

Microchip MPLAB XC8 Assembler V2.10 build 88905656 
                                                                                               Sat Feb 13 00:53:27 2021

Microchip MPLAB XC8 C Compiler v2.10 (Free license) build 20190730164152 Og1 
     1                           	processor	16F877A
     2                           	opt	pw 120
     3                           	opt	flic
     4                           	psect	idataBANK0,global,class=CODE,delta=2
     5                           	psect	strings,global,class=STRING,delta=2
     6                           	psect	cinit,global,class=CODE,merge=1,delta=2
     7                           	psect	bssBANK0,global,class=BANK0,space=1,delta=1
     8                           	psect	dataBANK0,global,class=BANK0,space=1,delta=1
     9                           	psect	inittext,global,class=CODE,delta=2
    10                           	psect	clrtext,global,class=CODE,delta=2
    11                           	psect	cstackCOMMON,global,class=COMMON,space=1,delta=1
    12                           	psect	cstackBANK0,global,class=BANK0,space=1,delta=1
    13                           	psect	maintext,global,class=CODE,split=1,delta=2
    14                           	psect	text1,local,class=CODE,merge=1,delta=2
    15                           	psect	text2,local,class=CODE,merge=1,delta=2
    16                           	psect	text3,local,class=CODE,merge=1,delta=2
    17                           	psect	text4,local,class=CODE,merge=1,delta=2
    18                           	psect	text5,local,class=CODE,merge=1,delta=2
    19                           	psect	text6,local,class=CODE,merge=1,delta=2,group=1
    20                           	psect	text7,local,class=CODE,merge=1,delta=2
    21                           	psect	text8,local,class=CODE,merge=1,delta=2
    22                           	psect	text9,local,class=CODE,merge=1,delta=2
    23                           	psect	text10,local,class=CODE,merge=1,delta=2
    24                           	psect	text11,local,class=CODE,merge=1,delta=2
    25                           	psect	text12,local,class=CODE,merge=1,delta=2
    26                           	psect	text13,local,class=CODE,merge=1,delta=2
    27                           	psect	text14,local,class=CODE,merge=1,delta=2
    28                           	psect	text15,local,class=CODE,merge=1,delta=2,group=1
    29                           	psect	text16,local,class=CODE,merge=1,delta=2,group=1
    30                           	psect	text17,local,class=CODE,merge=1,delta=2
    31                           	psect	text18,local,class=CODE,merge=1,delta=2
    32                           	psect	text19,local,class=CODE,merge=1,delta=2,group=1
    33                           	psect	text20,local,class=CODE,merge=1,delta=2
    34                           	psect	text21,local,class=CODE,merge=1,delta=2
    35                           	psect	text22,local,class=CODE,merge=1,delta=2
    36                           	psect	text23,local,class=CODE,merge=1,delta=2
    37                           	psect	text24,local,class=CODE,merge=1,delta=2
    38                           	psect	text25,local,class=CODE,merge=1,delta=2
    39                           	psect	intentry,global,class=CODE,delta=2
    40                           	psect	text26,local,class=CODE,merge=1,delta=2
    41                           	psect	text27,local,class=CODE,merge=1,delta=2
    42                           	psect	text28,local,class=CODE,merge=1,delta=2
    43                           	psect	text29,local,class=CODE,merge=1,delta=2
    44                           	psect	text30,local,class=CODE,merge=1,delta=2
    45                           	psect	text31,local,class=CODE,merge=1,delta=2
    46                           	psect	text32,local,class=CODE,merge=1,delta=2
    47                           	psect	text33,local,class=CODE,merge=1,delta=2
    48                           	dabs	1,0x7E,2
    49  0000                     
    50                           ; Version 2.10
    51                           ; Generated 31/07/2019 GMT
    52                           ; 
    53                           ; Copyright © 2019, Microchip Technology Inc. and its subsidiaries ("Microchip")
    54                           ; All rights reserved.
    55                           ; 
    56                           ; This software is developed by Microchip Technology Inc. and its subsidiaries ("Microch
      +                          ip").
    57                           ; 
    58                           ; Redistribution and use in source and binary forms, with or without modification, are
    59                           ; permitted provided that the following conditions are met:
    60                           ; 
    61                           ;     1. Redistributions of source code must retain the above copyright notice, this lis
      +                          t of
    62                           ;        conditions and the following disclaimer.
    63                           ; 
    64                           ;     2. Redistributions in binary form must reproduce the above copyright notice, this 
      +                          list
    65                           ;        of conditions and the following disclaimer in the documentation and/or other
    66                           ;        materials provided with the distribution.
    67                           ; 
    68                           ;     3. Microchip's name may not be used to endorse or promote products derived from th
      +                          is
    69                           ;        software without specific prior written permission.
    70                           ; 
    71                           ; THIS SOFTWARE IS PROVIDED BY MICROCHIP "AS IS" AND ANY EXPRESS OR IMPLIED WARRANTIES,
    72                           ; INCLUDING, BUT NOT LIMITED TO, THE IMPLIED WARRANTIES OF MERCHANTABILITY AND FITNESS F
      +                          OR
    73                           ; PURPOSE ARE DISCLAIMED.  IN NO EVENT SHALL MICROCHIP BE LIABLE FOR ANY DIRECT, INDIREC
      +                          T,
    74                           ; INCIDENTAL, SPECIAL, EXEMPLARY, OR CONSEQUENTIAL DAMAGES (INCLUDING BUT NOT LIMITED TO
    75                           ; PROCUREMENT OF SUBSTITUTE GOODS OR SERVICES; LOSS OF USE, DATA OR PROFITS; OR BUSINESS
    76                           ; INTERRUPTION) HOWSOEVER CAUSED AND ON ANY THEORY OF LIABILITY, WHETHER IN CONTRACT, ST
      +                          RICT
    77                           ; LIABILITY, OR TORT (INCLUDING NEGLIGENCE OR OTHERWISE) ARISING IN ANY WAY OUT OF THE U
      +                          SE OF
    78                           ; THIS SOFTWARE, EVEN IF ADVISED OF THE POSSIBILITY OF SUCH DAMAGE.
    79                           ; 
    80                           ; 
    81                           ; Code-generator required, PIC16F877A Definitions
    82                           ; 
    83                           ; SFR Addresses
    84  0000                     	;# 
    85  0001                     	;# 
    86  0002                     	;# 
    87  0003                     	;# 
    88  0004                     	;# 
    89  0005                     	;# 
    90  0006                     	;# 
    91  0007                     	;# 
    92  0008                     	;# 
    93  0009                     	;# 
    94  000A                     	;# 
    95  000B                     	;# 
    96  000C                     	;# 
    97  000D                     	;# 
    98  000E                     	;# 
    99  000E                     	;# 
   100  000F                     	;# 
   101  0010                     	;# 
   102  0011                     	;# 
   103  0012                     	;# 
   104  0013                     	;# 
   105  0014                     	;# 
   106  0015                     	;# 
   107  0015                     	;# 
   108  0016                     	;# 
   109  0017                     	;# 
   110  0018                     	;# 
   111  0019                     	;# 
   112  001A                     	;# 
   113  001B                     	;# 
   114  001B                     	;# 
   115  001C                     	;# 
   116  001D                     	;# 
   117  001E                     	;# 
   118  001F                     	;# 
   119  0081                     	;# 
   120  0085                     	;# 
   121  0086                     	;# 
   122  0087                     	;# 
   123  0088                     	;# 
   124  0089                     	;# 
   125  008C                     	;# 
   126  008D                     	;# 
   127  008E                     	;# 
   128  0091                     	;# 
   129  0092                     	;# 
   130  0093                     	;# 
   131  0094                     	;# 
   132  0098                     	;# 
   133  0099                     	;# 
   134  009C                     	;# 
   135  009D                     	;# 
   136  009E                     	;# 
   137  009F                     	;# 
   138  010C                     	;# 
   139  010D                     	;# 
   140  010E                     	;# 
   141  010F                     	;# 
   142  018C                     	;# 
   143  018D                     	;# 
   144  0000                     	;# 
   145  0001                     	;# 
   146  0002                     	;# 
   147  0003                     	;# 
   148  0004                     	;# 
   149  0005                     	;# 
   150  0006                     	;# 
   151  0007                     	;# 
   152  0008                     	;# 
   153  0009                     	;# 
   154  000A                     	;# 
   155  000B                     	;# 
   156  000C                     	;# 
   157  000D                     	;# 
   158  000E                     	;# 
   159  000E                     	;# 
   160  000F                     	;# 
   161  0010                     	;# 
   162  0011                     	;# 
   163  0012                     	;# 
   164  0013                     	;# 
   165  0014                     	;# 
   166  0015                     	;# 
   167  0015                     	;# 
   168  0016                     	;# 
   169  0017                     	;# 
   170  0018                     	;# 
   171  0019                     	;# 
   172  001A                     	;# 
   173  001B                     	;# 
   174  001B                     	;# 
   175  001C                     	;# 
   176  001D                     	;# 
   177  001E                     	;# 
   178  001F                     	;# 
   179  0081                     	;# 
   180  0085                     	;# 
   181  0086                     	;# 
   182  0087                     	;# 
   183  0088                     	;# 
   184  0089                     	;# 
   185  008C                     	;# 
   186  008D                     	;# 
   187  008E                     	;# 
   188  0091                     	;# 
   189  0092                     	;# 
   190  0093                     	;# 
   191  0094                     	;# 
   192  0098                     	;# 
   193  0099                     	;# 
   194  009C                     	;# 
   195  009D                     	;# 
   196  009E                     	;# 
   197  009F                     	;# 
   198  010C                     	;# 
   199  010D                     	;# 
   200  010E                     	;# 
   201  010F                     	;# 
   202  018C                     	;# 
   203  018D                     	;# 
   204                           
   205                           	psect	idataBANK0
   206  0DF0                     __pidataBANK0:	
   207                           
   208                           ;initializer for _logo
   209  0DF0  3445               	retlw	69
   210  0DF1  344C               	retlw	76
   211  0DF2  3445               	retlw	69
   212  0DF3  3443               	retlw	67
   213  0DF4  3454               	retlw	84
   214  0DF5  3452               	retlw	82
   215  0DF6  344F               	retlw	79
   216  0DF7  344E               	retlw	78
   217  0DF8  3449               	retlw	73
   218  0DF9  3443               	retlw	67
   219  0DFA  3453               	retlw	83
   220  0DFB  3400               	retlw	0
   221                           
   222                           ;initializer for _thresh
   223  0DFC  346E               	retlw	110
   224  0DFD  3403               	retlw	3
   225                           
   226                           ;initializer for _hour
   227  0DFE  340F               	retlw	15
   228  0DFF  3400               	retlw	0
   229                           
   230                           ;initializer for _min
   231  0E00  340A               	retlw	10
   232  0E01  3400               	retlw	0
   233                           
   234                           	psect	strings
   235  0643                     __pstrings:	
   236  0643                     stringtab:	
   237  0643                     __stringtab:	
   238  0643                     stringcode:	
   239                           ;	String table - string pointers are 1 byte each
   240                           
   241  0643                     stringdir:	
   242  0643  3006               	movlw	high stringdir
   243  0644  008A               	movwf	10
   244  0645  0804               	movf	4,w
   245  0646  0A84               	incf	4,f
   246  0647  0782               	addwf	2,f
   247  0648                     __stringbase:	
   248  0648  3400               	retlw	0
   249  0649                     __end_of__stringtab:	
   250  0649                     exp@coeff:	
   251  0649  3400               	retlw	0
   252  064A  3400               	retlw	0
   253  064B  3480               	retlw	128
   254  064C  343F               	retlw	63
   255  064D  3418               	retlw	24
   256  064E  3472               	retlw	114
   257  064F  3431               	retlw	49
   258  0650  343F               	retlw	63
   259  0651  34F0               	retlw	240
   260  0652  34FD               	retlw	253
   261  0653  3475               	retlw	117
   262  0654  343E               	retlw	62
   263  0655  3447               	retlw	71
   264  0656  3458               	retlw	88
   265  0657  3463               	retlw	99
   266  0658  343D               	retlw	61
   267  0659  3458               	retlw	88
   268  065A  3495               	retlw	149
   269  065B  341D               	retlw	29
   270  065C  343C               	retlw	60
   271  065D  3482               	retlw	130
   272  065E  34C4               	retlw	196
   273  065F  34AE               	retlw	174
   274  0660  343A               	retlw	58
   275  0661  34A8               	retlw	168
   276  0662  3478               	retlw	120
   277  0663  3421               	retlw	33
   278  0664  3439               	retlw	57
   279  0665  34EF               	retlw	239
   280  0666  3493               	retlw	147
   281  0667  3480               	retlw	128
   282  0668  3437               	retlw	55
   283  0669  34A0               	retlw	160
   284  066A  3492               	retlw	146
   285  066B  34A7               	retlw	167
   286  066C  3435               	retlw	53
   287  066D  3446               	retlw	70
   288  066E  3456               	retlw	86
   289  066F  3415               	retlw	21
   290  0670  3434               	retlw	52
   291  0671                     __end_ofexp@coeff:	
   292  0671                     log@coeff:	
   293  0671  3400               	retlw	0
   294  0672  3400               	retlw	0
   295  0673  3400               	retlw	0
   296  0674  3400               	retlw	0
   297  0675  34C4               	retlw	196
   298  0676  34FF               	retlw	255
   299  0677  347F               	retlw	127
   300  0678  343F               	retlw	63
   301  0679  3480               	retlw	128
   302  067A  34EF               	retlw	239
   303  067B  34FF               	retlw	255
   304  067C  34BE               	retlw	190
   305  067D  3490               	retlw	144
   306  067E  34E1               	retlw	225
   307  067F  34A9               	retlw	169
   308  0680  343E               	retlw	62
   309  0681  34EC               	retlw	236
   310  0682  3482               	retlw	130
   311  0683  3476               	retlw	118
   312  0684  34BE               	retlw	190
   313  0685  3482               	retlw	130
   314  0686  34AD               	retlw	173
   315  0687  342B               	retlw	43
   316  0688  343E               	retlw	62
   317  0689  340E               	retlw	14
   318  068A  343C               	retlw	60
   319  068B  34C3               	retlw	195
   320  068C  34BD               	retlw	189
   321  068D  3487               	retlw	135
   322  068E  34D1               	retlw	209
   323  068F  3413               	retlw	19
   324  0690  343D               	retlw	61
   325  0691  3441               	retlw	65
   326  0692  3478               	retlw	120
   327  0693  34D3               	retlw	211
   328  0694  34BB               	retlw	187
   329  0695                     __end_oflog@coeff:	
   330  000E                     _TMR1	set	14
   331  001E                     _ADRESH	set	30
   332  001F                     _ADCON0bits	set	31
   333  0010                     _T1CON	set	16
   334  0008                     _PORTD	set	8
   335  001F                     _ADCON0	set	31
   336  0001                     _TMR0	set	1
   337  0006                     _PORTBbits	set	6
   338  0013                     _SSPBUF	set	19
   339  0014                     _SSPCON	set	20
   340  0006                     _PORTB	set	6
   341  0043                     _RD3	set	67
   342  0042                     _RD2	set	66
   343  0041                     _RD1	set	65
   344  0040                     _RD0	set	64
   345  003C                     _RC4	set	60
   346  003D                     _RC5	set	61
   347  003E                     _RC6	set	62
   348  003F                     _RC7	set	63
   349  0044                     _RD4	set	68
   350  0080                     _TMR1ON	set	128
   351  005F                     _GIE	set	95
   352  005E                     _PEIE	set	94
   353  005D                     _TMR0IE	set	93
   354  0045                     _RD5	set	69
   355  0060                     _TMR1IF	set	96
   356  005A                     _TMR0IF	set	90
   357  0036                     _RB6	set	54
   358  0034                     _RB4	set	52
   359  009E                     _ADRESL	set	158
   360  0081                     _OPTION_REG	set	129
   361  0088                     _TRISD	set	136
   362  009F                     _ADCON1	set	159
   363  0085                     _TRISA	set	133
   364  0086                     _TRISB	set	134
   365  0086                     _TRISBbits	set	134
   366  0093                     _SSPADD	set	147
   367  0094                     _SSPSTAT	set	148
   368  0091                     _SSPCON2	set	145
   369  0445                     _TRISD5	set	1093
   370  0444                     _TRISD4	set	1092
   371  042B                     _TRISA3	set	1067
   372  042A                     _TRISA2	set	1066
   373  0429                     _TRISA1	set	1065
   374  0428                     _TRISA0	set	1064
   375  0463                     _SSPIE	set	1123
   376  0460                     _TMR1IE	set	1120
   377  0438                     _TRISC0	set	1080
   378  048C                     _ACKEN	set	1164
   379  048D                     _ACKDT	set	1165
   380  048B                     _RCEN	set	1163
   381  048E                     _ACKSTAT	set	1166
   382  048A                     _PEN	set	1162
   383  0489                     _RSEN	set	1161
   384  0488                     _SEN	set	1160
   385  043C                     _TRISC4	set	1084
   386  043B                     _TRISC3	set	1083
   387  0695                     STR_1:	
   388  0695  3450               	retlw	80	;'P'
   389  0696  3448               	retlw	72	;'H'
   390  0697  3441               	retlw	65	;'A'
   391  0698  3453               	retlw	83	;'S'
   392  0699  3445               	retlw	69	;'E'
   393  069A  3420               	retlw	32	;' '
   394  069B  3453               	retlw	83	;'S'
   395  069C  3445               	retlw	69	;'E'
   396  069D  344C               	retlw	76	;'L'
   397  069E  3445               	retlw	69	;'E'
   398  069F  3443               	retlw	67	;'C'
   399  06A0  3454               	retlw	84	;'T'
   400  06A1  344F               	retlw	79	;'O'
   401  06A2  3452               	retlw	82	;'R'
   402  06A3  3400               	retlw	0
   403  06A4                     STR_2:	
   404  06A4  343A               	retlw	58	;':'
   405  06A5  3400               	retlw	0
   406  06A4                     
   407                           ; #config settings
   408  0000                     
   409                           	psect	cinit
   410  0013                     start_initialization:	
   411  0013                     __initialization:	
   412                           
   413                           ; Initialize objects allocated to BANK0
   414  0013  1383               	bcf	3,7	;select IRP bank0
   415  0014  3052               	movlw	low (__pdataBANK0+18)
   416  0015  00FD               	movwf	btemp+-1
   417  0016  300D               	movlw	high __pidataBANK0
   418  0017  00FE               	movwf	btemp
   419  0018  30F0               	movlw	low __pidataBANK0
   420  0019  00FF               	movwf	btemp+1
   421  001A  3040               	movlw	low __pdataBANK0
   422  001B  0084               	movwf	4
   423  001C  120A  158A  2606  120A  118A  	fcall	init_ram0
   424                           
   425                           ; Clear objects allocated to BANK0
   426  0021  3052               	movlw	low __pbssBANK0
   427  0022  0084               	movwf	4
   428  0023  3063               	movlw	low (__pbssBANK0+17)
   429  0024  120A  158A  255A  120A  118A  	fcall	clear_ram0
   430  0029                     end_of_initialization:	
   431                           ;End of C runtime variable initialization code
   432                           
   433  0029                     __end_of__initialization:	
   434  0029  0183               	clrf	3
   435  002A  120A  118A  282D   	ljmp	_main	;jump to C main() function
   436                           
   437                           	psect	bssBANK0
   438  0052                     __pbssBANK0:	
   439  0052                     _NUM:	
   440  0052                     	ds	4
   441  0056                     _errno:	
   442  0056                     	ds	2
   443  0058                     _phcn_val:	
   444  0058                     	ds	2
   445  005A                     _biogas_val:	
   446  005A                     	ds	2
   447  005C                     _solar_val:	
   448  005C                     	ds	2
   449  005E                     _wind_val:	
   450  005E                     	ds	2
   451  0060                     _sec:	
   452  0060                     	ds	2
   453  0062                     _nextState:	
   454  0062                     	ds	1
   455                           
   456                           	psect	dataBANK0
   457  0040                     __pdataBANK0:	
   458  0040                     _logo:	
   459  0040                     	ds	12
   460  004C                     _thresh:	
   461  004C                     	ds	2
   462  004E                     _hour:	
   463  004E                     	ds	2
   464  0050                     _min:	
   465  0050                     	ds	2
   466                           
   467                           	psect	inittext
   468  0E02                     init_fetch0:	
   469                           ;	Called with low address in FSR and high address in W
   470                           
   471  0E02  087E               	movf	btemp,w
   472  0E03  008A               	movwf	10
   473  0E04  087F               	movf	btemp+1,w
   474  0E05  0082               	movwf	2
   475  0E06                     init_ram0:	
   476                           ;Called with:
   477                           ;	high address of idata address in btemp 
   478                           ;	low address of idata address in btemp+1 
   479                           ;	low address of data in FSR
   480                           ;	high address + 1 of data in btemp-1
   481                           
   482  0E06  120A  158A  2602  120A  158A  	fcall	init_fetch0
   483  0E0B  0080               	movwf	0
   484  0E0C  0A84               	incf	4,f
   485  0E0D  0804               	movf	4,w
   486  0E0E  067D               	xorwf	btemp+-1,w
   487  0E0F  1903               	btfsc	3,2
   488  0E10  3400               	retlw	0
   489  0E11  0AFF               	incf	btemp+1,f
   490  0E12  1903               	btfsc	3,2
   491  0E13  0AFE               	incf	btemp,f
   492  0E14  2E06               	goto	init_ram0
   493                           
   494                           	psect	clrtext
   495  0D5A                     clear_ram0:	
   496                           ;	Called with FSR containing the base address, and
   497                           ;	W with the last address+1
   498                           
   499  0D5A  0064               	clrwdt	;clear the watchdog before getting into this loop
   500  0D5B                     clrloop0:	
   501  0D5B  0180               	clrf	0	;clear RAM location pointed to by FSR
   502  0D5C  0A84               	incf	4,f	;increment pointer
   503  0D5D  0604               	xorwf	4,w	;XOR with final address
   504  0D5E  1903               	btfsc	3,2	;have we reached the end yet?
   505  0D5F  3400               	retlw	0	;all done for this memory range, return
   506  0D60  0604               	xorwf	4,w	;XOR again to restore value
   507  0D61  2D5B               	goto	clrloop0	;do the next byte
   508                           
   509                           	psect	cstackCOMMON
   510  0070                     __pcstackCOMMON:	
   511  0070                     ?_I2C_Hold:	
   512  0070                     ?_I2C_Begin:	
   513                           ; 1 bytes @ 0x0
   514                           
   515  0070                     ?_I2C_Restart:	
   516                           ; 1 bytes @ 0x0
   517                           
   518  0070                     ?_I2C_End:	
   519                           ; 1 bytes @ 0x0
   520                           
   521  0070                     ?_Set_Time_Date:	
   522                           ; 1 bytes @ 0x0
   523                           
   524  0070                     ?_Update_Current_Date_Time:	
   525                           ; 1 bytes @ 0x0
   526                           
   527  0070                     ?_delay1:	
   528                           ; 1 bytes @ 0x0
   529                           
   530  0070                     ?_delay2:	
   531                           ; 1 bytes @ 0x0
   532                           
   533  0070                     ?_CLOCK:	
   534                           ; 1 bytes @ 0x0
   535                           
   536  0070                     ?_LCDCHAR:	
   537                           ; 1 bytes @ 0x0
   538                           
   539  0070                     ?_LCDWRITE:	
   540                           ; 1 bytes @ 0x0
   541                           
   542  0070                     ?_CLRDISP:	
   543                           ; 1 bytes @ 0x0
   544                           
   545  0070                     ?_config:	
   546                           ; 1 bytes @ 0x0
   547                           
   548  0070                     ?_ISR:	
   549                           ; 1 bytes @ 0x0
   550                           
   551  0070                     ?_main:	
   552                           ; 1 bytes @ 0x0
   553                           
   554  0070                     ?i1_I2C_Hold:	
   555                           ; 1 bytes @ 0x0
   556                           
   557  0070                     ??i1_I2C_Hold:	
   558                           ; 1 bytes @ 0x0
   559                           
   560  0070                     ?i1_I2C_Begin:	
   561                           ; 1 bytes @ 0x0
   562                           
   563  0070                     ??i1_I2C_Begin:	
   564                           ; 1 bytes @ 0x0
   565                           
   566  0070                     ?i1_I2C_End:	
   567                           ; 1 bytes @ 0x0
   568                           
   569  0070                     ??i1_I2C_End:	
   570                           ; 1 bytes @ 0x0
   571                           
   572  0070                     ?i1_Set_Time_Date:	
   573                           ; 1 bytes @ 0x0
   574                           
   575  0070                     ?i1___awdiv:	
   576                           ; 1 bytes @ 0x0
   577                           
   578  0070                     ?i1___awmod:	
   579                           ; 2 bytes @ 0x0
   580                           
   581  0070                     i1___awdiv@divisor:	
   582                           ; 2 bytes @ 0x0
   583                           
   584  0070                     i1___awmod@divisor:	
   585                           ; 2 bytes @ 0x0
   586                           
   587                           
   588                           ; 2 bytes @ 0x0
   589  0070                     	ds	2
   590  0072                     i1___awdiv@dividend:	
   591  0072                     i1___awmod@dividend:	
   592                           ; 2 bytes @ 0x2
   593                           
   594                           
   595                           ; 2 bytes @ 0x2
   596  0072                     	ds	2
   597  0074                     ??i1___awdiv:	
   598  0074                     ??i1___awmod:	
   599                           ; 1 bytes @ 0x4
   600                           
   601                           
   602                           ; 1 bytes @ 0x4
   603  0074                     	ds	1
   604  0075                     i1___awdiv@counter:	
   605  0075                     i1___awmod@counter:	
   606                           ; 1 bytes @ 0x5
   607                           
   608                           
   609                           ; 1 bytes @ 0x5
   610  0075                     	ds	1
   611  0076                     i1___awdiv@sign:	
   612  0076                     i1___awmod@sign:	
   613                           ; 1 bytes @ 0x6
   614                           
   615                           
   616                           ; 1 bytes @ 0x6
   617  0076                     	ds	1
   618  0077                     i1___awdiv@quotient:	
   619                           
   620                           ; 2 bytes @ 0x7
   621  0077                     	ds	2
   622  0079                     ?i1_DEC_2_BCD:	
   623  0079                     i1DEC_2_BCD@num:	
   624                           ; 2 bytes @ 0x9
   625                           
   626                           
   627                           ; 2 bytes @ 0x9
   628  0079                     	ds	2
   629  007B                     ??i1_DEC_2_BCD:	
   630                           
   631                           ; 1 bytes @ 0xB
   632  007B                     	ds	2
   633  007D                     ??i1_I2C_Write:	
   634  007D                     ??i1_Set_Time_Date:	
   635                           ; 1 bytes @ 0xD
   636                           
   637                           
   638                           	psect	cstackBANK0
   639  0020                     __pcstackBANK0:	
   640                           ; 1 bytes @ 0xD
   641                           
   642  0020                     i1DEC_2_BCD@data:	
   643                           
   644                           ; 2 bytes @ 0x0
   645  0020                     	ds	2
   646  0022                     ?i1_I2C_Write:	
   647  0022                     i1I2C_Write@data:	
   648                           ; 2 bytes @ 0x2
   649                           
   650                           
   651                           ; 2 bytes @ 0x2
   652  0022                     	ds	2
   653  0024                     ??_ISR:	
   654                           
   655                           ; 1 bytes @ 0x4
   656  0024                     	ds	3
   657  0027                     ??_I2C_Hold:	
   658  0027                     ??_I2C_Begin:	
   659                           ; 1 bytes @ 0x7
   660                           
   661  0027                     ??_I2C_Restart:	
   662                           ; 1 bytes @ 0x7
   663                           
   664  0027                     ??_I2C_End:	
   665                           ; 1 bytes @ 0x7
   666                           
   667  0027                     ??_delay1:	
   668                           ; 1 bytes @ 0x7
   669                           
   670  0027                     ??_delay2:	
   671                           ; 1 bytes @ 0x7
   672                           
   673  0027                     ?_I2C_Read:	
   674                           ; 1 bytes @ 0x7
   675                           
   676  0027                     ?___wmul:	
   677                           ; 2 bytes @ 0x7
   678                           
   679  0027                     ?___awdiv:	
   680                           ; 2 bytes @ 0x7
   681                           
   682  0027                     ?___awmod:	
   683                           ; 2 bytes @ 0x7
   684                           
   685  0027                     ?___lldiv:	
   686                           ; 2 bytes @ 0x7
   687                           
   688  0027                     I2C_Read@ack:	
   689                           ; 4 bytes @ 0x7
   690                           
   691  0027                     ___wmul@multiplier:	
   692                           ; 2 bytes @ 0x7
   693                           
   694  0027                     ___awdiv@divisor:	
   695                           ; 2 bytes @ 0x7
   696                           
   697  0027                     ___awmod@divisor:	
   698                           ; 2 bytes @ 0x7
   699                           
   700  0027                     ___lldiv@divisor:	
   701                           ; 2 bytes @ 0x7
   702                           
   703                           
   704                           ; 4 bytes @ 0x7
   705  0027                     	ds	2
   706  0029                     ??_I2C_Read:	
   707  0029                     ??_CLOCK:	
   708                           ; 1 bytes @ 0x9
   709                           
   710  0029                     ??_LCDCHAR:	
   711                           ; 1 bytes @ 0x9
   712                           
   713  0029                     ??_LCDWRITE:	
   714                           ; 1 bytes @ 0x9
   715                           
   716  0029                     ?_CURSOR:	
   717                           ; 1 bytes @ 0x9
   718                           
   719  0029                     ??_CLRDISP:	
   720                           ; 1 bytes @ 0x9
   721                           
   722  0029                     ??_config:	
   723                           ; 1 bytes @ 0x9
   724                           
   725  0029                     CURSOR@b:	
   726                           ; 1 bytes @ 0x9
   727                           
   728  0029                     ___wmul@multiplicand:	
   729                           ; 1 bytes @ 0x9
   730                           
   731  0029                     ___awdiv@dividend:	
   732                           ; 2 bytes @ 0x9
   733                           
   734  0029                     ___awmod@dividend:	
   735                           ; 2 bytes @ 0x9
   736                           
   737                           
   738                           ; 2 bytes @ 0x9
   739  0029                     	ds	1
   740  002A                     ??_CURSOR:	
   741                           
   742                           ; 1 bytes @ 0xA
   743  002A                     	ds	1
   744  002B                     ??___wmul:	
   745  002B                     ??___awdiv:	
   746                           ; 1 bytes @ 0xB
   747                           
   748  002B                     ??___awmod:	
   749                           ; 1 bytes @ 0xB
   750                           
   751  002B                     LCDCHAR@k:	
   752                           ; 1 bytes @ 0xB
   753                           
   754  002B                     LCDWRITE@j:	
   755                           ; 1 bytes @ 0xB
   756                           
   757  002B                     I2C_Read@data:	
   758                           ; 1 bytes @ 0xB
   759                           
   760  002B                     ___wmul@product:	
   761                           ; 2 bytes @ 0xB
   762                           
   763  002B                     ___lldiv@dividend:	
   764                           ; 2 bytes @ 0xB
   765                           
   766                           
   767                           ; 4 bytes @ 0xB
   768  002B                     	ds	1
   769  002C                     LCDCHAR@j:	
   770  002C                     LCDWRITE@k:	
   771                           ; 1 bytes @ 0xC
   772                           
   773  002C                     CURSOR@a:	
   774                           ; 1 bytes @ 0xC
   775                           
   776  002C                     ___awdiv@counter:	
   777                           ; 1 bytes @ 0xC
   778                           
   779  002C                     ___awmod@counter:	
   780                           ; 1 bytes @ 0xC
   781                           
   782                           
   783                           ; 1 bytes @ 0xC
   784  002C                     	ds	1
   785  002D                     ?_BCD_2_DEC:	
   786  002D                     LCDCHAR@character:	
   787                           ; 2 bytes @ 0xD
   788                           
   789  002D                     LCDWRITE@i:	
   790                           ; 1 bytes @ 0xD
   791                           
   792  002D                     ___awdiv@sign:	
   793                           ; 1 bytes @ 0xD
   794                           
   795  002D                     ___awmod@sign:	
   796                           ; 1 bytes @ 0xD
   797                           
   798  002D                     BCD_2_DEC@num:	
   799                           ; 1 bytes @ 0xD
   800                           
   801                           
   802                           ; 2 bytes @ 0xD
   803  002D                     	ds	1
   804  002E                     LCDWRITE@P:	
   805  002E                     ___awdiv@quotient:	
   806                           ; 1 bytes @ 0xE
   807                           
   808                           
   809                           ; 2 bytes @ 0xE
   810  002E                     	ds	1
   811  002F                     ??_BCD_2_DEC:	
   812  002F                     ??___lldiv:	
   813                           ; 1 bytes @ 0xF
   814                           
   815                           
   816                           ; 1 bytes @ 0xF
   817  002F                     	ds	1
   818  0030                     ?_LCDNUM:	
   819  0030                     ?_DEC_2_BCD:	
   820                           ; 1 bytes @ 0x10
   821                           
   822  0030                     DEC_2_BCD@num:	
   823                           ; 2 bytes @ 0x10
   824                           
   825  0030                     LCDNUM@number:	
   826                           ; 2 bytes @ 0x10
   827                           
   828  0030                     ___lldiv@quotient:	
   829                           ; 2 bytes @ 0x10
   830                           
   831                           
   832                           ; 4 bytes @ 0x10
   833  0030                     	ds	1
   834  0031                     BCD_2_DEC@data:	
   835                           
   836                           ; 2 bytes @ 0x11
   837  0031                     	ds	1
   838  0032                     ??_DEC_2_BCD:	
   839  0032                     ??_LCDNUM:	
   840                           ; 1 bytes @ 0x12
   841                           
   842                           
   843                           ; 1 bytes @ 0x12
   844  0032                     	ds	1
   845  0033                     LCDNUM@t:	
   846                           
   847                           ; 1 bytes @ 0x13
   848  0033                     	ds	1
   849  0034                     LCDNUM@u:	
   850  0034                     ___lldiv@counter:	
   851                           ; 1 bytes @ 0x14
   852                           
   853  0034                     DEC_2_BCD@data:	
   854                           ; 1 bytes @ 0x14
   855                           
   856                           
   857                           ; 2 bytes @ 0x14
   858  0034                     	ds	1
   859  0035                     ?_I2C_Initialize:	
   860  0035                     I2C_Initialize@feq_K:	
   861                           ; 1 bytes @ 0x15
   862                           
   863                           
   864                           ; 4 bytes @ 0x15
   865  0035                     	ds	1
   866  0036                     ?_I2C_Write:	
   867  0036                     I2C_Write@data:	
   868                           ; 2 bytes @ 0x16
   869                           
   870                           
   871                           ; 2 bytes @ 0x16
   872  0036                     	ds	2
   873  0038                     ??_I2C_Write:	
   874  0038                     ??_Set_Time_Date:	
   875                           ; 1 bytes @ 0x18
   876                           
   877  0038                     ??_Update_Current_Date_Time:	
   878                           ; 1 bytes @ 0x18
   879                           
   880                           
   881                           ; 1 bytes @ 0x18
   882  0038                     	ds	1
   883  0039                     ??_I2C_Initialize:	
   884                           
   885                           ; 1 bytes @ 0x19
   886  0039                     	ds	4
   887  003D                     ??_main:	
   888                           
   889                           ; 1 bytes @ 0x1D
   890  003D                     	ds	3
   891                           
   892                           	psect	maintext
   893  002D                     __pmaintext:	
   894 ;;
   895 ;;Main: autosize = 0, tempsize = 3, incstack = 0, save=0
   896 ;;
   897 ;; *************** function _main *****************
   898 ;; Defined at:
   899 ;;		line 71 in file "main.c"
   900 ;; Parameters:    Size  Location     Type
   901 ;;		None
   902 ;; Auto vars:     Size  Location     Type
   903 ;;		None
   904 ;; Return value:  Size  Location     Type
   905 ;;                  1    wreg      void 
   906 ;; Registers used:
   907 ;;		wreg, fsr0l, fsr0h, status,2, status,0, btemp+1, pclath, cstack
   908 ;; Tracked objects:
   909 ;;		On entry : B00/0
   910 ;;		On exit  : 0/0
   911 ;;		Unchanged: 0/0
   912 ;; Data sizes:     COMMON   BANK0   BANK1   BANK3   BANK2
   913 ;;      Params:         0       0       0       0       0
   914 ;;      Locals:         0       0       0       0       0
   915 ;;      Temps:          0       3       0       0       0
   916 ;;      Totals:         0       3       0       0       0
   917 ;;Total ram usage:        3 bytes
   918 ;; Hardware stack levels required when called:    8
   919 ;; This function calls:
   920 ;;		_CLRDISP
   921 ;;		_CURSOR
   922 ;;		_I2C_Initialize
   923 ;;		_LCDNUM
   924 ;;		_LCDWRITE
   925 ;;		_Set_Time_Date
   926 ;;		_Update_Current_Date_Time
   927 ;;		_config
   928 ;; This function is called by:
   929 ;;		Startup code after reset
   930 ;; This function uses a non-reentrant model
   931 ;;
   932                           
   933                           
   934                           ;psect for function _main
   935  002D                     _main:	
   936  002D                     l2135:	
   937                           ;incstack = 0
   938                           ; Regs used in _main: [wreg-fsr0h+status,2+status,0+btemp+1+pclath+cstack]
   939                           
   940                           
   941                           ;main.c: 72:     TRISB=0x00;
   942  002D  1683               	bsf	3,5	;RP0=1, select bank1
   943  002E  1303               	bcf	3,6	;RP1=0, select bank1
   944  002F  0186               	clrf	6	;volatile
   945                           
   946                           ;main.c: 73:     PORTB=0x00;
   947  0030  1283               	bcf	3,5	;RP0=0, select bank0
   948  0031  1303               	bcf	3,6	;RP1=0, select bank0
   949  0032  0186               	clrf	6	;volatile
   950  0033                     l2137:	
   951                           
   952                           ;main.c: 74:     TRISA=0xFF;
   953  0033  30FF               	movlw	255
   954  0034  1683               	bsf	3,5	;RP0=1, select bank1
   955  0035  1303               	bcf	3,6	;RP1=0, select bank1
   956  0036  0085               	movwf	5	;volatile
   957  0037                     l2139:	
   958                           
   959                           ;main.c: 75:     ADCON1=0x80;
   960  0037  3080               	movlw	128
   961  0038  009F               	movwf	31	;volatile
   962  0039                     l2141:	
   963                           
   964                           ;main.c: 76:     ADCON0=0x41;
   965  0039  3041               	movlw	65
   966  003A  1283               	bcf	3,5	;RP0=0, select bank0
   967  003B  1303               	bcf	3,6	;RP1=0, select bank0
   968  003C  009F               	movwf	31	;volatile
   969  003D                     l2143:	
   970                           
   971                           ;main.c: 77:     TRISD=0xC0;
   972  003D  30C0               	movlw	192
   973  003E  1683               	bsf	3,5	;RP0=1, select bank1
   974  003F  1303               	bcf	3,6	;RP1=0, select bank1
   975  0040  0088               	movwf	8	;volatile
   976                           
   977                           ;main.c: 78:     PORTD=0x00;
   978  0041  1283               	bcf	3,5	;RP0=0, select bank0
   979  0042  1303               	bcf	3,6	;RP1=0, select bank0
   980  0043  0188               	clrf	8	;volatile
   981  0044                     l2145:	
   982                           
   983                           ;main.c: 79:     TMR0=255;
   984  0044  30FF               	movlw	255
   985  0045  0081               	movwf	1	;volatile
   986  0046                     l2147:	
   987                           
   988                           ;main.c: 80:     TMR0IE=1;
   989  0046  168B               	bsf	11,5	;volatile
   990  0047                     l2149:	
   991                           
   992                           ;main.c: 81:     OPTION_REG=0xA8;
   993  0047  30A8               	movlw	168
   994  0048  1683               	bsf	3,5	;RP0=1, select bank1
   995  0049  1303               	bcf	3,6	;RP1=0, select bank1
   996  004A  0081               	movwf	1	;volatile
   997  004B                     l2151:	
   998                           
   999                           ;main.c: 82:     TRISC0=1;
  1000  004B  1407               	bsf	7,0	;volatile
  1001  004C                     l2153:	
  1002                           
  1003                           ;main.c: 83:     T1CON=0x06;
  1004  004C  3006               	movlw	6
  1005  004D  1283               	bcf	3,5	;RP0=0, select bank0
  1006  004E  1303               	bcf	3,6	;RP1=0, select bank0
  1007  004F  0090               	movwf	16	;volatile
  1008  0050                     l2155:	
  1009                           
  1010                           ;main.c: 84:     TMR1=65535;
  1011  0050  30FF               	movlw	255
  1012  0051  008F               	movwf	15	;volatile
  1013  0052  30FF               	movlw	255
  1014  0053  008E               	movwf	14	;volatile
  1015  0054                     l2157:	
  1016                           
  1017                           ;main.c: 85:     TMR1IE=1;
  1018  0054  1683               	bsf	3,5	;RP0=1, select bank1
  1019  0055  1303               	bcf	3,6	;RP1=0, select bank1
  1020  0056  140C               	bsf	12,0	;volatile
  1021  0057                     l2159:	
  1022                           
  1023                           ;main.c: 86:     SSPIE=0;
  1024  0057  118C               	bcf	12,3	;volatile
  1025  0058                     l2161:	
  1026                           
  1027                           ;main.c: 87:     PEIE=1;
  1028  0058  170B               	bsf	11,6	;volatile
  1029  0059                     l2163:	
  1030                           
  1031                           ;main.c: 88:     GIE=1;
  1032  0059  178B               	bsf	11,7	;volatile
  1033  005A                     l2165:	
  1034                           
  1035                           ;main.c: 89:     TMR1ON=1;
  1036  005A  1283               	bcf	3,5	;RP0=0, select bank0
  1037  005B  1303               	bcf	3,6	;RP1=0, select bank0
  1038  005C  1410               	bsf	16,0	;volatile
  1039  005D                     l2167:	
  1040                           
  1041                           ;main.c: 90:     TRISA0=1;
  1042  005D  1683               	bsf	3,5	;RP0=1, select bank1
  1043  005E  1303               	bcf	3,6	;RP1=0, select bank1
  1044  005F  1405               	bsf	5,0	;volatile
  1045  0060                     l2169:	
  1046                           
  1047                           ;main.c: 91:     TRISA1=1;
  1048  0060  1485               	bsf	5,1	;volatile
  1049  0061                     l2171:	
  1050                           
  1051                           ;main.c: 92:     TRISA2=1;
  1052  0061  1505               	bsf	5,2	;volatile
  1053  0062                     l2173:	
  1054                           
  1055                           ;main.c: 93:     TRISA3=1;
  1056  0062  1585               	bsf	5,3	;volatile
  1057  0063                     l2175:	
  1058                           
  1059                           ;main.c: 94:     I2C_Initialize(100000);
  1060  0063  3000               	movlw	0
  1061  0064  1283               	bcf	3,5	;RP0=0, select bank0
  1062  0065  1303               	bcf	3,6	;RP1=0, select bank0
  1063  0066  00B8               	movwf	I2C_Initialize@feq_K+3
  1064  0067  3001               	movlw	1
  1065  0068  00B7               	movwf	I2C_Initialize@feq_K+2
  1066  0069  3086               	movlw	134
  1067  006A  00B6               	movwf	I2C_Initialize@feq_K+1
  1068  006B  30A0               	movlw	160
  1069  006C  00B5               	movwf	I2C_Initialize@feq_K
  1070  006D  120A  158A  273A  120A  118A  	fcall	_I2C_Initialize
  1071  0072                     l2177:	
  1072                           
  1073                           ;main.c: 95:     Set_Time_Date();
  1074  0072  120A  118A  2386  120A  118A  	fcall	_Set_Time_Date
  1075  0077                     l2179:	
  1076                           
  1077                           ;main.c: 96:     config();
  1078  0077  120A  118A  24A2  120A  118A  	fcall	_config
  1079  007C                     l2181:	
  1080                           
  1081                           ;main.c: 97:     CLRDISP();
  1082  007C  120A  158A  2615  120A  118A  	fcall	_CLRDISP
  1083  0081                     l2183:	
  1084                           
  1085                           ;main.c: 98:     TRISD4=0;TRISD5=0;
  1086  0081  1683               	bsf	3,5	;RP0=1, select bank1
  1087  0082  1303               	bcf	3,6	;RP1=0, select bank1
  1088  0083  1208               	bcf	8,4	;volatile
  1089  0084                     l2185:	
  1090  0084  1288               	bcf	8,5	;volatile
  1091  0085                     l2187:	
  1092                           
  1093                           ;main.c: 99:     RD4=0;RD5=0;
  1094  0085  1283               	bcf	3,5	;RP0=0, select bank0
  1095  0086  1303               	bcf	3,6	;RP1=0, select bank0
  1096  0087  1208               	bcf	8,4	;volatile
  1097  0088                     l2189:	
  1098  0088  1288               	bcf	8,5	;volatile
  1099  0089                     l2191:	
  1100                           
  1101                           ;main.c: 102:         CLRDISP();
  1102  0089  120A  158A  2615  120A  118A  	fcall	_CLRDISP
  1103  008E                     l2193:	
  1104                           
  1105                           ;main.c: 103:         CURSOR(0x80,3);
  1106  008E  3003               	movlw	3
  1107  008F  1283               	bcf	3,5	;RP0=0, select bank0
  1108  0090  1303               	bcf	3,6	;RP1=0, select bank0
  1109  0091  00BD               	movwf	??_main
  1110  0092  083D               	movf	??_main,w
  1111  0093  00A9               	movwf	CURSOR@b
  1112  0094  3080               	movlw	128
  1113  0095  120A  158A  2632  120A  118A  	fcall	_CURSOR
  1114  009A                     l2195:	
  1115                           
  1116                           ;main.c: 104:         LCDWRITE("PHASE SELECTOR");
  1117  009A  304D               	movlw	(low ((STR_1-__stringbase)| (0+32768)))& (0+255)
  1118  009B  120A  118A  27B1  120A  118A  	fcall	_LCDWRITE
  1119  00A0                     l2197:	
  1120                           
  1121                           ;main.c: 105:         CURSOR(0xC0,0);
  1122  00A0  1283               	bcf	3,5	;RP0=0, select bank0
  1123  00A1  1303               	bcf	3,6	;RP1=0, select bank0
  1124  00A2  01A9               	clrf	CURSOR@b
  1125  00A3  30C0               	movlw	192
  1126  00A4  120A  158A  2632  120A  118A  	fcall	_CURSOR
  1127  00A9                     l2199:	
  1128                           
  1129                           ;main.c: 106:         LCDNUM(hour);
  1130  00A9  1283               	bcf	3,5	;RP0=0, select bank0
  1131  00AA  1303               	bcf	3,6	;RP1=0, select bank0
  1132  00AB  084F               	movf	_hour+1,w
  1133  00AC  00B1               	movwf	LCDNUM@number+1
  1134  00AD  084E               	movf	_hour,w
  1135  00AE  00B0               	movwf	LCDNUM@number
  1136  00AF  120A  158A  27AE  120A  118A  	fcall	_LCDNUM
  1137  00B4                     l2201:	
  1138                           
  1139                           ;main.c: 107:         LCDWRITE(":");
  1140  00B4  305C               	movlw	(low ((STR_2-__stringbase)| (0+32768)))& (0+255)
  1141  00B5  120A  118A  27B1  120A  118A  	fcall	_LCDWRITE
  1142  00BA                     l2203:	
  1143                           
  1144                           ;main.c: 108:         LCDNUM(min);
  1145  00BA  1283               	bcf	3,5	;RP0=0, select bank0
  1146  00BB  1303               	bcf	3,6	;RP1=0, select bank0
  1147  00BC  0851               	movf	_min+1,w
  1148  00BD  00B1               	movwf	LCDNUM@number+1
  1149  00BE  0850               	movf	_min,w
  1150  00BF  00B0               	movwf	LCDNUM@number
  1151  00C0  120A  158A  27AE  120A  118A  	fcall	_LCDNUM
  1152  00C5                     l2205:	
  1153                           
  1154                           ;main.c: 109:         LCDWRITE(":");
  1155  00C5  305C               	movlw	(low ((STR_2-__stringbase)| (0+32768)))& (0+255)
  1156  00C6  120A  118A  27B1  120A  118A  	fcall	_LCDWRITE
  1157  00CB                     l2207:	
  1158                           
  1159                           ;main.c: 110:         LCDNUM(sec);
  1160  00CB  1283               	bcf	3,5	;RP0=0, select bank0
  1161  00CC  1303               	bcf	3,6	;RP1=0, select bank0
  1162  00CD  0861               	movf	_sec+1,w
  1163  00CE  00B1               	movwf	LCDNUM@number+1
  1164  00CF  0860               	movf	_sec,w
  1165  00D0  00B0               	movwf	LCDNUM@number
  1166  00D1  120A  158A  27AE  120A  118A  	fcall	_LCDNUM
  1167  00D6                     l2209:	
  1168                           
  1169                           ;main.c: 111:         if(nextState==initialState){
  1170  00D6  1283               	bcf	3,5	;RP0=0, select bank0
  1171  00D7  1303               	bcf	3,6	;RP1=0, select bank0
  1172  00D8  0862               	movf	_nextState,w
  1173  00D9  1D03               	btfss	3,2
  1174  00DA  28DC               	goto	u1621
  1175  00DB  28DD               	goto	u1620
  1176  00DC                     u1621:	
  1177  00DC  29E5               	goto	l245
  1178  00DD                     u1620:	
  1179  00DD                     l2211:	
  1180                           
  1181                           ;main.c: 112:             RC7=RC6=RC5=RC4=1;
  1182  00DD  1607               	bsf	7,4	;volatile
  1183  00DE  1A07               	btfsc	7,4	;volatile
  1184  00DF  28E1               	goto	u1631
  1185  00E0  28E5               	goto	u1630
  1186  00E1                     u1631:	
  1187  00E1  1283               	bcf	3,5	;RP0=0, select bank0
  1188  00E2  1303               	bcf	3,6	;RP1=0, select bank0
  1189  00E3  1687               	bsf	7,5	;volatile
  1190  00E4  28E8               	goto	u1644
  1191  00E5                     u1630:	
  1192  00E5  1283               	bcf	3,5	;RP0=0, select bank0
  1193  00E6  1303               	bcf	3,6	;RP1=0, select bank0
  1194  00E7  1287               	bcf	7,5	;volatile
  1195  00E8                     u1644:	
  1196  00E8  1A87               	btfsc	7,5	;volatile
  1197  00E9  28EB               	goto	u1641
  1198  00EA  28EF               	goto	u1640
  1199  00EB                     u1641:	
  1200  00EB  1283               	bcf	3,5	;RP0=0, select bank0
  1201  00EC  1303               	bcf	3,6	;RP1=0, select bank0
  1202  00ED  1707               	bsf	7,6	;volatile
  1203  00EE  28F2               	goto	u1654
  1204  00EF                     u1640:	
  1205  00EF  1283               	bcf	3,5	;RP0=0, select bank0
  1206  00F0  1303               	bcf	3,6	;RP1=0, select bank0
  1207  00F1  1307               	bcf	7,6	;volatile
  1208  00F2                     u1654:	
  1209  00F2  1B07               	btfsc	7,6	;volatile
  1210  00F3  28F5               	goto	u1651
  1211  00F4  28F9               	goto	u1650
  1212  00F5                     u1651:	
  1213  00F5  1283               	bcf	3,5	;RP0=0, select bank0
  1214  00F6  1303               	bcf	3,6	;RP1=0, select bank0
  1215  00F7  1787               	bsf	7,7	;volatile
  1216  00F8  28FC               	goto	u1664
  1217  00F9                     u1650:	
  1218  00F9  1283               	bcf	3,5	;RP0=0, select bank0
  1219  00FA  1303               	bcf	3,6	;RP1=0, select bank0
  1220  00FB  1387               	bcf	7,7	;volatile
  1221  00FC                     u1664:	
  1222  00FC                     l2213:	
  1223                           
  1224                           ;main.c: 113:             _delay((unsigned long)((100)*(20000000/4000.0)));
  1225  00FC  3003               	movlw	3
  1226  00FD  1283               	bcf	3,5	;RP0=0, select bank0
  1227  00FE  1303               	bcf	3,6	;RP1=0, select bank0
  1228  00FF  00BF               	movwf	??_main+2
  1229  0100  308A               	movlw	138
  1230  0101  00BE               	movwf	??_main+1
  1231  0102  3055               	movlw	85
  1232  0103  00BD               	movwf	??_main
  1233  0104                     u1897:	
  1234  0104  0BBD               	decfsz	??_main,f
  1235  0105  2904               	goto	u1897
  1236  0106  0BBE               	decfsz	??_main+1,f
  1237  0107  2904               	goto	u1897
  1238  0108  0BBF               	decfsz	??_main+2,f
  1239  0109  2904               	goto	u1897
  1240  010A                     l2215:	
  1241                           
  1242                           ;main.c: 114:             ADCON0bits.CHS=0;
  1243  010A  30C7               	movlw	-57
  1244  010B  1283               	bcf	3,5	;RP0=0, select bank0
  1245  010C  1303               	bcf	3,6	;RP1=0, select bank0
  1246  010D  059F               	andwf	31,f	;volatile
  1247  010E                     l2217:	
  1248                           
  1249                           ;main.c: 115:             ADCON0bits.GO_nDONE=1;
  1250  010E  151F               	bsf	31,2	;volatile
  1251  010F                     l246:	
  1252                           ;main.c: 116:             while(ADCON0bits.GO_nDONE);
  1253                           
  1254  010F  191F               	btfsc	31,2	;volatile
  1255  0110  2912               	goto	u1671
  1256  0111  2913               	goto	u1670
  1257  0112                     u1671:	
  1258  0112  290F               	goto	l246
  1259  0113                     u1670:	
  1260  0113                     l2219:	
  1261                           
  1262                           ;main.c: 117:             _delay((unsigned long)((20)*(20000000/4000000.0)));
  1263  0113  3020               	movlw	32
  1264  0114  1283               	bcf	3,5	;RP0=0, select bank0
  1265  0115  1303               	bcf	3,6	;RP1=0, select bank0
  1266  0116  00BD               	movwf	??_main
  1267  0117                     u1907:	
  1268  0117  0BBD               	decfsz	??_main,f
  1269  0118  2917               	goto	u1907
  1270  0119  0000               	nop
  1271                           
  1272                           ;main.c: 118:             wind_val=(ADRESH<<8)+ADRESL;
  1273  011A  1283               	bcf	3,5	;RP0=0, select bank0
  1274  011B  1303               	bcf	3,6	;RP1=0, select bank0
  1275  011C  081E               	movf	30,w	;volatile
  1276  011D  00DF               	movwf	_wind_val+1
  1277  011E  1683               	bsf	3,5	;RP0=1, select bank1
  1278  011F  1303               	bcf	3,6	;RP1=0, select bank1
  1279  0120  081E               	movf	30,w	;volatile
  1280  0121  1283               	bcf	3,5	;RP0=0, select bank0
  1281  0122  1303               	bcf	3,6	;RP1=0, select bank0
  1282  0123  00DE               	movwf	_wind_val
  1283  0124                     l2221:	
  1284                           
  1285                           ;main.c: 119:             ADCON0bits.CHS=1;
  1286  0124  081F               	movf	31,w	;volatile
  1287  0125  39C7               	andlw	-57
  1288  0126  3808               	iorlw	8
  1289  0127  009F               	movwf	31	;volatile
  1290  0128                     l2223:	
  1291                           
  1292                           ;main.c: 120:             ADCON0bits.GO_nDONE=1;
  1293  0128  151F               	bsf	31,2	;volatile
  1294  0129                     l249:	
  1295                           ;main.c: 121:             while(ADCON0bits.GO_nDONE);
  1296                           
  1297  0129  191F               	btfsc	31,2	;volatile
  1298  012A  292C               	goto	u1681
  1299  012B  292D               	goto	u1680
  1300  012C                     u1681:	
  1301  012C  2929               	goto	l249
  1302  012D                     u1680:	
  1303  012D                     l2225:	
  1304                           
  1305                           ;main.c: 122:             _delay((unsigned long)((20)*(20000000/4000000.0)));
  1306  012D  3020               	movlw	32
  1307  012E  1283               	bcf	3,5	;RP0=0, select bank0
  1308  012F  1303               	bcf	3,6	;RP1=0, select bank0
  1309  0130  00BD               	movwf	??_main
  1310  0131                     u1917:	
  1311  0131  0BBD               	decfsz	??_main,f
  1312  0132  2931               	goto	u1917
  1313  0133  0000               	nop
  1314                           
  1315                           ;main.c: 123:             solar_val=(ADRESH<<8)+ADRESL;
  1316  0134  1283               	bcf	3,5	;RP0=0, select bank0
  1317  0135  1303               	bcf	3,6	;RP1=0, select bank0
  1318  0136  081E               	movf	30,w	;volatile
  1319  0137  00DD               	movwf	_solar_val+1
  1320  0138  1683               	bsf	3,5	;RP0=1, select bank1
  1321  0139  1303               	bcf	3,6	;RP1=0, select bank1
  1322  013A  081E               	movf	30,w	;volatile
  1323  013B  1283               	bcf	3,5	;RP0=0, select bank0
  1324  013C  1303               	bcf	3,6	;RP1=0, select bank0
  1325  013D  00DC               	movwf	_solar_val
  1326  013E                     l2227:	
  1327                           
  1328                           ;main.c: 124:             ADCON0bits.CHS=2;
  1329  013E  081F               	movf	31,w	;volatile
  1330  013F  39C7               	andlw	-57
  1331  0140  3810               	iorlw	16
  1332  0141  009F               	movwf	31	;volatile
  1333  0142                     l2229:	
  1334                           
  1335                           ;main.c: 125:             ADCON0bits.GO_nDONE=1;
  1336  0142  151F               	bsf	31,2	;volatile
  1337  0143                     l252:	
  1338                           ;main.c: 126:             while(ADCON0bits.GO_nDONE);
  1339                           
  1340  0143  191F               	btfsc	31,2	;volatile
  1341  0144  2946               	goto	u1691
  1342  0145  2947               	goto	u1690
  1343  0146                     u1691:	
  1344  0146  2943               	goto	l252
  1345  0147                     u1690:	
  1346  0147                     l2231:	
  1347                           
  1348                           ;main.c: 127:             _delay((unsigned long)((20)*(20000000/4000000.0)));
  1349  0147  3020               	movlw	32
  1350  0148  1283               	bcf	3,5	;RP0=0, select bank0
  1351  0149  1303               	bcf	3,6	;RP1=0, select bank0
  1352  014A  00BD               	movwf	??_main
  1353  014B                     u1927:	
  1354  014B  0BBD               	decfsz	??_main,f
  1355  014C  294B               	goto	u1927
  1356  014D  0000               	nop
  1357                           
  1358                           ;main.c: 128:             biogas_val=(ADRESH<<8)+ADRESL;
  1359  014E  1283               	bcf	3,5	;RP0=0, select bank0
  1360  014F  1303               	bcf	3,6	;RP1=0, select bank0
  1361  0150  081E               	movf	30,w	;volatile
  1362  0151  00DB               	movwf	_biogas_val+1
  1363  0152  1683               	bsf	3,5	;RP0=1, select bank1
  1364  0153  1303               	bcf	3,6	;RP1=0, select bank1
  1365  0154  081E               	movf	30,w	;volatile
  1366  0155  1283               	bcf	3,5	;RP0=0, select bank0
  1367  0156  1303               	bcf	3,6	;RP1=0, select bank0
  1368  0157  00DA               	movwf	_biogas_val
  1369  0158                     l2233:	
  1370                           
  1371                           ;main.c: 129:             ADCON0bits.CHS=3;
  1372  0158  081F               	movf	31,w	;volatile
  1373  0159  39C7               	andlw	-57
  1374  015A  3818               	iorlw	24
  1375  015B  009F               	movwf	31	;volatile
  1376  015C                     l2235:	
  1377                           
  1378                           ;main.c: 130:             ADCON0bits.GO_nDONE=1;
  1379  015C  151F               	bsf	31,2	;volatile
  1380  015D                     l255:	
  1381                           ;main.c: 131:             while(ADCON0bits.GO_nDONE);
  1382                           
  1383  015D  191F               	btfsc	31,2	;volatile
  1384  015E  2960               	goto	u1701
  1385  015F  2961               	goto	u1700
  1386  0160                     u1701:	
  1387  0160  295D               	goto	l255
  1388  0161                     u1700:	
  1389  0161                     l2237:	
  1390                           
  1391                           ;main.c: 132:             _delay((unsigned long)((20)*(20000000/4000000.0)));
  1392  0161  3020               	movlw	32
  1393  0162  1283               	bcf	3,5	;RP0=0, select bank0
  1394  0163  1303               	bcf	3,6	;RP1=0, select bank0
  1395  0164  00BD               	movwf	??_main
  1396  0165                     u1937:	
  1397  0165  0BBD               	decfsz	??_main,f
  1398  0166  2965               	goto	u1937
  1399  0167  0000               	nop
  1400                           
  1401                           ;main.c: 133:             phcn_val=(ADRESH<<8)+ADRESL;
  1402  0168  1283               	bcf	3,5	;RP0=0, select bank0
  1403  0169  1303               	bcf	3,6	;RP1=0, select bank0
  1404  016A  081E               	movf	30,w	;volatile
  1405  016B  00D9               	movwf	_phcn_val+1
  1406  016C  1683               	bsf	3,5	;RP0=1, select bank1
  1407  016D  1303               	bcf	3,6	;RP1=0, select bank1
  1408  016E  081E               	movf	30,w	;volatile
  1409  016F  1283               	bcf	3,5	;RP0=0, select bank0
  1410  0170  1303               	bcf	3,6	;RP1=0, select bank0
  1411  0171  00D8               	movwf	_phcn_val
  1412  0172                     l2239:	
  1413                           
  1414                           ;main.c: 134:             Update_Current_Date_Time();
  1415  0172  120A  118A  22E2  120A  118A  	fcall	_Update_Current_Date_Time
  1416  0177                     l2241:	
  1417                           
  1418                           ;main.c: 135:             if((hour>0)&&(hour<=7))nextState=night;
  1419  0177  1283               	bcf	3,5	;RP0=0, select bank0
  1420  0178  1303               	bcf	3,6	;RP1=0, select bank0
  1421  0179  084F               	movf	_hour+1,w
  1422  017A  3A80               	xorlw	128
  1423  017B  00FF               	movwf	btemp+1
  1424  017C  3080               	movlw	128
  1425  017D  027F               	subwf	btemp+1,w
  1426  017E  1D03               	skipz
  1427  017F  2982               	goto	u1715
  1428  0180  3001               	movlw	1
  1429  0181  024E               	subwf	_hour,w
  1430  0182                     u1715:	
  1431  0182  1C03               	skipc
  1432  0183  2985               	goto	u1711
  1433  0184  2986               	goto	u1710
  1434  0185                     u1711:	
  1435  0185  299C               	goto	l2247
  1436  0186                     u1710:	
  1437  0186                     l2243:	
  1438  0186  1283               	bcf	3,5	;RP0=0, select bank0
  1439  0187  1303               	bcf	3,6	;RP1=0, select bank0
  1440  0188  084F               	movf	_hour+1,w
  1441  0189  3A80               	xorlw	128
  1442  018A  00FF               	movwf	btemp+1
  1443  018B  3080               	movlw	128
  1444  018C  027F               	subwf	btemp+1,w
  1445  018D  1D03               	skipz
  1446  018E  2991               	goto	u1725
  1447  018F  3008               	movlw	8
  1448  0190  024E               	subwf	_hour,w
  1449  0191                     u1725:	
  1450  0191  1803               	skipnc
  1451  0192  2994               	goto	u1721
  1452  0193  2995               	goto	u1720
  1453  0194                     u1721:	
  1454  0194  299C               	goto	l2247
  1455  0195                     u1720:	
  1456  0195                     l2245:	
  1457  0195  3003               	movlw	3
  1458  0196  1283               	bcf	3,5	;RP0=0, select bank0
  1459  0197  1303               	bcf	3,6	;RP1=0, select bank0
  1460  0198  00BD               	movwf	??_main
  1461  0199  083D               	movf	??_main,w
  1462  019A  00E2               	movwf	_nextState
  1463  019B  29E5               	goto	l245
  1464  019C                     l2247:	
  1465  019C  1283               	bcf	3,5	;RP0=0, select bank0
  1466  019D  1303               	bcf	3,6	;RP1=0, select bank0
  1467  019E  084F               	movf	_hour+1,w
  1468  019F  3A80               	xorlw	128
  1469  01A0  00FF               	movwf	btemp+1
  1470  01A1  3080               	movlw	128
  1471  01A2  027F               	subwf	btemp+1,w
  1472  01A3  1D03               	skipz
  1473  01A4  29A7               	goto	u1735
  1474  01A5  3008               	movlw	8
  1475  01A6  024E               	subwf	_hour,w
  1476  01A7                     u1735:	
  1477  01A7  1C03               	skipc
  1478  01A8  29AA               	goto	u1731
  1479  01A9  29AB               	goto	u1730
  1480  01AA                     u1731:	
  1481  01AA  29BF               	goto	l2253
  1482  01AB                     u1730:	
  1483  01AB                     l2249:	
  1484  01AB  1283               	bcf	3,5	;RP0=0, select bank0
  1485  01AC  1303               	bcf	3,6	;RP1=0, select bank0
  1486  01AD  084F               	movf	_hour+1,w
  1487  01AE  3A80               	xorlw	128
  1488  01AF  00FF               	movwf	btemp+1
  1489  01B0  3080               	movlw	128
  1490  01B1  027F               	subwf	btemp+1,w
  1491  01B2  1D03               	skipz
  1492  01B3  29B6               	goto	u1745
  1493  01B4  300C               	movlw	12
  1494  01B5  024E               	subwf	_hour,w
  1495  01B6                     u1745:	
  1496  01B6  1803               	skipnc
  1497  01B7  29B9               	goto	u1741
  1498  01B8  29BA               	goto	u1740
  1499  01B9                     u1741:	
  1500  01B9  29BF               	goto	l2253
  1501  01BA                     u1740:	
  1502  01BA                     l2251:	
  1503  01BA  1283               	bcf	3,5	;RP0=0, select bank0
  1504  01BB  1303               	bcf	3,6	;RP1=0, select bank0
  1505  01BC  01E2               	clrf	_nextState
  1506  01BD  0AE2               	incf	_nextState,f
  1507  01BE  29E5               	goto	l245
  1508  01BF                     l2253:	
  1509  01BF  1283               	bcf	3,5	;RP0=0, select bank0
  1510  01C0  1303               	bcf	3,6	;RP1=0, select bank0
  1511  01C1  084F               	movf	_hour+1,w
  1512  01C2  3A80               	xorlw	128
  1513  01C3  00FF               	movwf	btemp+1
  1514  01C4  3080               	movlw	128
  1515  01C5  027F               	subwf	btemp+1,w
  1516  01C6  1D03               	skipz
  1517  01C7  29CA               	goto	u1755
  1518  01C8  3012               	movlw	18
  1519  01C9  024E               	subwf	_hour,w
  1520  01CA                     u1755:	
  1521  01CA  1803               	skipnc
  1522  01CB  29CD               	goto	u1751
  1523  01CC  29CE               	goto	u1750
  1524  01CD                     u1751:	
  1525  01CD  29D5               	goto	l2257
  1526  01CE                     u1750:	
  1527  01CE                     l2255:	
  1528  01CE  3002               	movlw	2
  1529  01CF  1283               	bcf	3,5	;RP0=0, select bank0
  1530  01D0  1303               	bcf	3,6	;RP1=0, select bank0
  1531  01D1  00BD               	movwf	??_main
  1532  01D2  083D               	movf	??_main,w
  1533  01D3  00E2               	movwf	_nextState
  1534  01D4  29E5               	goto	l245
  1535  01D5                     l2257:	
  1536  01D5  1283               	bcf	3,5	;RP0=0, select bank0
  1537  01D6  1303               	bcf	3,6	;RP1=0, select bank0
  1538  01D7  084F               	movf	_hour+1,w
  1539  01D8  3A80               	xorlw	128
  1540  01D9  00FF               	movwf	btemp+1
  1541  01DA  3080               	movlw	128
  1542  01DB  027F               	subwf	btemp+1,w
  1543  01DC  1D03               	skipz
  1544  01DD  29E0               	goto	u1765
  1545  01DE  3017               	movlw	23
  1546  01DF  024E               	subwf	_hour,w
  1547  01E0                     u1765:	
  1548  01E0  1803               	skipnc
  1549  01E1  29E3               	goto	u1761
  1550  01E2  29E4               	goto	u1760
  1551  01E3                     u1761:	
  1552  01E3  29E5               	goto	l261
  1553  01E4                     u1760:	
  1554  01E4  2995               	goto	l2245
  1555  01E5                     l261:	
  1556  01E5                     l245:	
  1557                           ;main.c: 139:         }
  1558                           
  1559  01E5  0064               	clrwdt	;# 
  1560                           
  1561                           ;main.c: 141:         _delay((unsigned long)((10)*(20000000/4000.0)));
  1562  01E6  3041               	movlw	65
  1563  01E7  1283               	bcf	3,5	;RP0=0, select bank0
  1564  01E8  1303               	bcf	3,6	;RP1=0, select bank0
  1565  01E9  00BE               	movwf	??_main+1
  1566  01EA  30ED               	movlw	237
  1567  01EB  00BD               	movwf	??_main
  1568  01EC                     u1947:	
  1569  01EC  0BBD               	decfsz	??_main,f
  1570  01ED  29EC               	goto	u1947
  1571  01EE  0BBE               	decfsz	??_main+1,f
  1572  01EF  29EC               	goto	u1947
  1573  01F0  29F1               	nop2
  1574  01F1                     l2261:	
  1575                           
  1576                           ;main.c: 142:         if(nextState==morning){
  1577  01F1  1283               	bcf	3,5	;RP0=0, select bank0
  1578  01F2  1303               	bcf	3,6	;RP1=0, select bank0
  1579  01F3  0362               	decf	_nextState,w
  1580  01F4  1D03               	btfss	3,2
  1581  01F5  29F7               	goto	u1771
  1582  01F6  29F8               	goto	u1770
  1583  01F7                     u1771:	
  1584  01F7  2A3F               	goto	l2277
  1585  01F8                     u1770:	
  1586  01F8                     l2263:	
  1587                           
  1588                           ;main.c: 143:             if(solar_val<thresh){
  1589  01F8  085D               	movf	_solar_val+1,w
  1590  01F9  3A80               	xorlw	128
  1591  01FA  00FF               	movwf	btemp+1
  1592  01FB  3083               	movlw	131
  1593  01FC  027F               	subwf	btemp+1,w
  1594  01FD  1D03               	skipz
  1595  01FE  2A01               	goto	u1785
  1596  01FF  306E               	movlw	110
  1597  0200  025C               	subwf	_solar_val,w
  1598  0201                     u1785:	
  1599  0201  1803               	skipnc
  1600  0202  2A04               	goto	u1781
  1601  0203  2A05               	goto	u1780
  1602  0204                     u1781:	
  1603  0204  2A0C               	goto	l2267
  1604  0205                     u1780:	
  1605  0205                     l2265:	
  1606                           
  1607                           ;main.c: 144:                 RD0=0;RD1=1;RD2=0;RD3=0;
  1608  0205  1283               	bcf	3,5	;RP0=0, select bank0
  1609  0206  1303               	bcf	3,6	;RP1=0, select bank0
  1610  0207  1008               	bcf	8,0	;volatile
  1611  0208  1488               	bsf	8,1	;volatile
  1612  0209  1108               	bcf	8,2	;volatile
  1613  020A  1188               	bcf	8,3	;volatile
  1614                           
  1615                           ;main.c: 145:             }else if(wind_val<thresh){
  1616  020B  2A3E               	goto	l2275
  1617  020C                     l2267:	
  1618  020C  1283               	bcf	3,5	;RP0=0, select bank0
  1619  020D  1303               	bcf	3,6	;RP1=0, select bank0
  1620  020E  085F               	movf	_wind_val+1,w
  1621  020F  3A80               	xorlw	128
  1622  0210  00FF               	movwf	btemp+1
  1623  0211  3083               	movlw	131
  1624  0212  027F               	subwf	btemp+1,w
  1625  0213  1D03               	skipz
  1626  0214  2A17               	goto	u1795
  1627  0215  306E               	movlw	110
  1628  0216  025E               	subwf	_wind_val,w
  1629  0217                     u1795:	
  1630  0217  1803               	skipnc
  1631  0218  2A1A               	goto	u1791
  1632  0219  2A1B               	goto	u1790
  1633  021A                     u1791:	
  1634  021A  2A22               	goto	l2271
  1635  021B                     u1790:	
  1636  021B                     l2269:	
  1637                           
  1638                           ;main.c: 146:                 RD0=1;RD1=0;RD2=0;RD3=0;
  1639  021B  1283               	bcf	3,5	;RP0=0, select bank0
  1640  021C  1303               	bcf	3,6	;RP1=0, select bank0
  1641  021D  1408               	bsf	8,0	;volatile
  1642  021E  1088               	bcf	8,1	;volatile
  1643  021F  1108               	bcf	8,2	;volatile
  1644  0220  1188               	bcf	8,3	;volatile
  1645                           
  1646                           ;main.c: 147:             }else if(phcn_val<thresh){
  1647  0221  2A3E               	goto	l2275
  1648  0222                     l2271:	
  1649  0222  1283               	bcf	3,5	;RP0=0, select bank0
  1650  0223  1303               	bcf	3,6	;RP1=0, select bank0
  1651  0224  0859               	movf	_phcn_val+1,w
  1652  0225  3A80               	xorlw	128
  1653  0226  00FF               	movwf	btemp+1
  1654  0227  3083               	movlw	131
  1655  0228  027F               	subwf	btemp+1,w
  1656  0229  1D03               	skipz
  1657  022A  2A2D               	goto	u1805
  1658  022B  306E               	movlw	110
  1659  022C  0258               	subwf	_phcn_val,w
  1660  022D                     u1805:	
  1661  022D  1803               	skipnc
  1662  022E  2A30               	goto	u1801
  1663  022F  2A31               	goto	u1800
  1664  0230                     u1801:	
  1665  0230  2A38               	goto	l270
  1666  0231                     u1800:	
  1667  0231                     l2273:	
  1668                           
  1669                           ;main.c: 148:                 RD0=0;RD1=0;RD2=0;RD3=1;
  1670  0231  1283               	bcf	3,5	;RP0=0, select bank0
  1671  0232  1303               	bcf	3,6	;RP1=0, select bank0
  1672  0233  1008               	bcf	8,0	;volatile
  1673  0234  1088               	bcf	8,1	;volatile
  1674  0235  1108               	bcf	8,2	;volatile
  1675  0236  1588               	bsf	8,3	;volatile
  1676                           
  1677                           ;main.c: 149:             }else{
  1678  0237  2A3E               	goto	l2275
  1679  0238                     l270:	
  1680                           
  1681                           ;main.c: 150:                 RD0=0;RD1=0;RD2=0;RD3=0;
  1682  0238  1283               	bcf	3,5	;RP0=0, select bank0
  1683  0239  1303               	bcf	3,6	;RP1=0, select bank0
  1684  023A  1008               	bcf	8,0	;volatile
  1685  023B  1088               	bcf	8,1	;volatile
  1686  023C  1108               	bcf	8,2	;volatile
  1687  023D  1188               	bcf	8,3	;volatile
  1688  023E                     l2275:	
  1689                           
  1690                           ;main.c: 152:             nextState=initialState;
  1691  023E  01E2               	clrf	_nextState
  1692  023F                     l2277:	
  1693                           
  1694                           ;main.c: 154:         if(nextState==afternoon){
  1695  023F  3002               	movlw	2
  1696  0240  0662               	xorwf	_nextState,w
  1697  0241  1D03               	btfss	3,2
  1698  0242  2A44               	goto	u1811
  1699  0243  2A45               	goto	u1810
  1700  0244                     u1811:	
  1701  0244  2A8C               	goto	l2293
  1702  0245                     u1810:	
  1703  0245                     l2279:	
  1704                           
  1705                           ;main.c: 155:             if(solar_val<thresh){
  1706  0245  085D               	movf	_solar_val+1,w
  1707  0246  3A80               	xorlw	128
  1708  0247  00FF               	movwf	btemp+1
  1709  0248  3083               	movlw	131
  1710  0249  027F               	subwf	btemp+1,w
  1711  024A  1D03               	skipz
  1712  024B  2A4E               	goto	u1825
  1713  024C  306E               	movlw	110
  1714  024D  025C               	subwf	_solar_val,w
  1715  024E                     u1825:	
  1716  024E  1803               	skipnc
  1717  024F  2A51               	goto	u1821
  1718  0250  2A52               	goto	u1820
  1719  0251                     u1821:	
  1720  0251  2A59               	goto	l2283
  1721  0252                     u1820:	
  1722  0252                     l2281:	
  1723                           
  1724                           ;main.c: 156:                 RD0=0;RD1=1;RD2=0;RD3=0;
  1725  0252  1283               	bcf	3,5	;RP0=0, select bank0
  1726  0253  1303               	bcf	3,6	;RP1=0, select bank0
  1727  0254  1008               	bcf	8,0	;volatile
  1728  0255  1488               	bsf	8,1	;volatile
  1729  0256  1108               	bcf	8,2	;volatile
  1730  0257  1188               	bcf	8,3	;volatile
  1731                           
  1732                           ;main.c: 157:             }else if(wind_val<thresh){
  1733  0258  2A8B               	goto	l2291
  1734  0259                     l2283:	
  1735  0259  1283               	bcf	3,5	;RP0=0, select bank0
  1736  025A  1303               	bcf	3,6	;RP1=0, select bank0
  1737  025B  085F               	movf	_wind_val+1,w
  1738  025C  3A80               	xorlw	128
  1739  025D  00FF               	movwf	btemp+1
  1740  025E  3083               	movlw	131
  1741  025F  027F               	subwf	btemp+1,w
  1742  0260  1D03               	skipz
  1743  0261  2A64               	goto	u1835
  1744  0262  306E               	movlw	110
  1745  0263  025E               	subwf	_wind_val,w
  1746  0264                     u1835:	
  1747  0264  1803               	skipnc
  1748  0265  2A67               	goto	u1831
  1749  0266  2A68               	goto	u1830
  1750  0267                     u1831:	
  1751  0267  2A6F               	goto	l2287
  1752  0268                     u1830:	
  1753  0268                     l2285:	
  1754                           
  1755                           ;main.c: 158:                 RD0=1;RD1=0;RD2=0;RD3=0;
  1756  0268  1283               	bcf	3,5	;RP0=0, select bank0
  1757  0269  1303               	bcf	3,6	;RP1=0, select bank0
  1758  026A  1408               	bsf	8,0	;volatile
  1759  026B  1088               	bcf	8,1	;volatile
  1760  026C  1108               	bcf	8,2	;volatile
  1761  026D  1188               	bcf	8,3	;volatile
  1762                           
  1763                           ;main.c: 159:             }else if(phcn_val<thresh){
  1764  026E  2A8B               	goto	l2291
  1765  026F                     l2287:	
  1766  026F  1283               	bcf	3,5	;RP0=0, select bank0
  1767  0270  1303               	bcf	3,6	;RP1=0, select bank0
  1768  0271  0859               	movf	_phcn_val+1,w
  1769  0272  3A80               	xorlw	128
  1770  0273  00FF               	movwf	btemp+1
  1771  0274  3083               	movlw	131
  1772  0275  027F               	subwf	btemp+1,w
  1773  0276  1D03               	skipz
  1774  0277  2A7A               	goto	u1845
  1775  0278  306E               	movlw	110
  1776  0279  0258               	subwf	_phcn_val,w
  1777  027A                     u1845:	
  1778  027A  1803               	skipnc
  1779  027B  2A7D               	goto	u1841
  1780  027C  2A7E               	goto	u1840
  1781  027D                     u1841:	
  1782  027D  2A85               	goto	l277
  1783  027E                     u1840:	
  1784  027E                     l2289:	
  1785                           
  1786                           ;main.c: 160:                 RD0=0;RD1=0;RD2=0;RD3=1;
  1787  027E  1283               	bcf	3,5	;RP0=0, select bank0
  1788  027F  1303               	bcf	3,6	;RP1=0, select bank0
  1789  0280  1008               	bcf	8,0	;volatile
  1790  0281  1088               	bcf	8,1	;volatile
  1791  0282  1108               	bcf	8,2	;volatile
  1792  0283  1588               	bsf	8,3	;volatile
  1793                           
  1794                           ;main.c: 161:             }else{
  1795  0284  2A8B               	goto	l2291
  1796  0285                     l277:	
  1797                           
  1798                           ;main.c: 162:                 RD0=0;RD1=0;RD2=1;RD3=0;
  1799  0285  1283               	bcf	3,5	;RP0=0, select bank0
  1800  0286  1303               	bcf	3,6	;RP1=0, select bank0
  1801  0287  1008               	bcf	8,0	;volatile
  1802  0288  1088               	bcf	8,1	;volatile
  1803  0289  1508               	bsf	8,2	;volatile
  1804  028A  1188               	bcf	8,3	;volatile
  1805  028B                     l2291:	
  1806                           
  1807                           ;main.c: 164:             nextState=initialState;
  1808  028B  01E2               	clrf	_nextState
  1809  028C                     l2293:	
  1810                           
  1811                           ;main.c: 166:         if(nextState==night){
  1812  028C  3003               	movlw	3
  1813  028D  0662               	xorwf	_nextState,w
  1814  028E  1D03               	btfss	3,2
  1815  028F  2A91               	goto	u1851
  1816  0290  2A92               	goto	u1850
  1817  0291                     u1851:	
  1818  0291  2AD9               	goto	l2309
  1819  0292                     u1850:	
  1820  0292                     l2295:	
  1821                           
  1822                           ;main.c: 167:             if(biogas_val<thresh){
  1823  0292  085B               	movf	_biogas_val+1,w
  1824  0293  3A80               	xorlw	128
  1825  0294  00FF               	movwf	btemp+1
  1826  0295  3083               	movlw	131
  1827  0296  027F               	subwf	btemp+1,w
  1828  0297  1D03               	skipz
  1829  0298  2A9B               	goto	u1865
  1830  0299  306E               	movlw	110
  1831  029A  025A               	subwf	_biogas_val,w
  1832  029B                     u1865:	
  1833  029B  1803               	skipnc
  1834  029C  2A9E               	goto	u1861
  1835  029D  2A9F               	goto	u1860
  1836  029E                     u1861:	
  1837  029E  2AA6               	goto	l2299
  1838  029F                     u1860:	
  1839  029F                     l2297:	
  1840                           
  1841                           ;main.c: 168:                 RD0=0;RD1=0;RD2=1;RD3=0;
  1842  029F  1283               	bcf	3,5	;RP0=0, select bank0
  1843  02A0  1303               	bcf	3,6	;RP1=0, select bank0
  1844  02A1  1008               	bcf	8,0	;volatile
  1845  02A2  1088               	bcf	8,1	;volatile
  1846  02A3  1508               	bsf	8,2	;volatile
  1847  02A4  1188               	bcf	8,3	;volatile
  1848                           
  1849                           ;main.c: 169:             }else if(wind_val<thresh){
  1850  02A5  2AD8               	goto	l2307
  1851  02A6                     l2299:	
  1852  02A6  1283               	bcf	3,5	;RP0=0, select bank0
  1853  02A7  1303               	bcf	3,6	;RP1=0, select bank0
  1854  02A8  085F               	movf	_wind_val+1,w
  1855  02A9  3A80               	xorlw	128
  1856  02AA  00FF               	movwf	btemp+1
  1857  02AB  3083               	movlw	131
  1858  02AC  027F               	subwf	btemp+1,w
  1859  02AD  1D03               	skipz
  1860  02AE  2AB1               	goto	u1875
  1861  02AF  306E               	movlw	110
  1862  02B0  025E               	subwf	_wind_val,w
  1863  02B1                     u1875:	
  1864  02B1  1803               	skipnc
  1865  02B2  2AB4               	goto	u1871
  1866  02B3  2AB5               	goto	u1870
  1867  02B4                     u1871:	
  1868  02B4  2ABC               	goto	l2303
  1869  02B5                     u1870:	
  1870  02B5                     l2301:	
  1871                           
  1872                           ;main.c: 170:                 RD0=1;RD1=0;RD2=0;RD3=0;
  1873  02B5  1283               	bcf	3,5	;RP0=0, select bank0
  1874  02B6  1303               	bcf	3,6	;RP1=0, select bank0
  1875  02B7  1408               	bsf	8,0	;volatile
  1876  02B8  1088               	bcf	8,1	;volatile
  1877  02B9  1108               	bcf	8,2	;volatile
  1878  02BA  1188               	bcf	8,3	;volatile
  1879                           
  1880                           ;main.c: 171:             }else if(phcn_val<thresh){
  1881  02BB  2AD8               	goto	l2307
  1882  02BC                     l2303:	
  1883  02BC  1283               	bcf	3,5	;RP0=0, select bank0
  1884  02BD  1303               	bcf	3,6	;RP1=0, select bank0
  1885  02BE  0859               	movf	_phcn_val+1,w
  1886  02BF  3A80               	xorlw	128
  1887  02C0  00FF               	movwf	btemp+1
  1888  02C1  3083               	movlw	131
  1889  02C2  027F               	subwf	btemp+1,w
  1890  02C3  1D03               	skipz
  1891  02C4  2AC7               	goto	u1885
  1892  02C5  306E               	movlw	110
  1893  02C6  0258               	subwf	_phcn_val,w
  1894  02C7                     u1885:	
  1895  02C7  1803               	skipnc
  1896  02C8  2ACA               	goto	u1881
  1897  02C9  2ACB               	goto	u1880
  1898  02CA                     u1881:	
  1899  02CA  2AD2               	goto	l284
  1900  02CB                     u1880:	
  1901  02CB                     l2305:	
  1902                           
  1903                           ;main.c: 172:                 RD0=0;RD1=0;RD2=0;RD3=1;
  1904  02CB  1283               	bcf	3,5	;RP0=0, select bank0
  1905  02CC  1303               	bcf	3,6	;RP1=0, select bank0
  1906  02CD  1008               	bcf	8,0	;volatile
  1907  02CE  1088               	bcf	8,1	;volatile
  1908  02CF  1108               	bcf	8,2	;volatile
  1909  02D0  1588               	bsf	8,3	;volatile
  1910                           
  1911                           ;main.c: 173:             }else{
  1912  02D1  2AD8               	goto	l2307
  1913  02D2                     l284:	
  1914                           
  1915                           ;main.c: 174:                 RD0=0;RD1=1;RD2=0;RD3=0;
  1916  02D2  1283               	bcf	3,5	;RP0=0, select bank0
  1917  02D3  1303               	bcf	3,6	;RP1=0, select bank0
  1918  02D4  1008               	bcf	8,0	;volatile
  1919  02D5  1488               	bsf	8,1	;volatile
  1920  02D6  1108               	bcf	8,2	;volatile
  1921  02D7  1188               	bcf	8,3	;volatile
  1922  02D8                     l2307:	
  1923                           
  1924                           ;main.c: 176:             nextState=initialState;
  1925  02D8  01E2               	clrf	_nextState
  1926  02D9                     l2309:	
  1927                           
  1928                           ;main.c: 178:         Update_Current_Date_Time();
  1929  02D9  120A  118A  22E2  120A  118A  	fcall	_Update_Current_Date_Time
  1930  02DE  2889               	goto	l2191
  1931  02DF  120A  118A  2810   	ljmp	start
  1932  02E2                     __end_of_main:	
  1933                           
  1934                           	psect	text1
  1935  04A2                     __ptext1:	
  1936 ;; *************** function _config *****************
  1937 ;; Defined at:
  1938 ;;		line 169 in file "./LCDLIBRARY1.h"
  1939 ;; Parameters:    Size  Location     Type
  1940 ;;		None
  1941 ;; Auto vars:     Size  Location     Type
  1942 ;;		None
  1943 ;; Return value:  Size  Location     Type
  1944 ;;                  1    wreg      void 
  1945 ;; Registers used:
  1946 ;;		wreg, status,2, status,0, pclath, cstack
  1947 ;; Tracked objects:
  1948 ;;		On entry : 0/0
  1949 ;;		On exit  : 0/0
  1950 ;;		Unchanged: 0/0
  1951 ;; Data sizes:     COMMON   BANK0   BANK1   BANK3   BANK2
  1952 ;;      Params:         0       0       0       0       0
  1953 ;;      Locals:         0       0       0       0       0
  1954 ;;      Temps:          0       0       0       0       0
  1955 ;;      Totals:         0       0       0       0       0
  1956 ;;Total ram usage:        0 bytes
  1957 ;; Hardware stack levels used:    1
  1958 ;; Hardware stack levels required when called:    6
  1959 ;; This function calls:
  1960 ;;		_CLOCK
  1961 ;;		_delay1
  1962 ;; This function is called by:
  1963 ;;		_main
  1964 ;; This function uses a non-reentrant model
  1965 ;;
  1966                           
  1967                           
  1968                           ;psect for function _config
  1969  04A2                     _config:	
  1970  04A2                     l2025:	
  1971                           ;incstack = 0
  1972                           ; Regs used in _config: [wreg+status,2+status,0+pclath+cstack]
  1973                           
  1974                           
  1975                           ;./LCDLIBRARY1.h: 171:     TRISBbits.TRISB4=0;PORTBbits.RB5=0;
  1976  04A2  1683               	bsf	3,5	;RP0=1, select bank1
  1977  04A3  1303               	bcf	3,6	;RP1=0, select bank1
  1978  04A4  1206               	bcf	6,4	;volatile
  1979  04A5  1283               	bcf	3,5	;RP0=0, select bank0
  1980  04A6  1303               	bcf	3,6	;RP1=0, select bank0
  1981  04A7  1286               	bcf	6,5	;volatile
  1982  04A8                     l2027:	
  1983                           
  1984                           ;./LCDLIBRARY1.h: 172:     PORTB= 3;
  1985  04A8  3003               	movlw	3
  1986  04A9  0086               	movwf	6	;volatile
  1987  04AA                     l2029:	
  1988                           
  1989                           ;./LCDLIBRARY1.h: 173:     CLOCK();
  1990  04AA  120A  158A  25DF  120A  118A  	fcall	_CLOCK
  1991  04AF                     l2031:	
  1992                           
  1993                           ;./LCDLIBRARY1.h: 174:     delay1();
  1994  04AF  120A  158A  259B  120A  118A  	fcall	_delay1
  1995                           
  1996                           ;./LCDLIBRARY1.h: 176:     PORTB= 2;
  1997  04B4  3002               	movlw	2
  1998  04B5  1283               	bcf	3,5	;RP0=0, select bank0
  1999  04B6  1303               	bcf	3,6	;RP1=0, select bank0
  2000  04B7  0086               	movwf	6	;volatile
  2001  04B8                     l2033:	
  2002                           
  2003                           ;./LCDLIBRARY1.h: 177:     CLOCK();
  2004  04B8  120A  158A  25DF  120A  118A  	fcall	_CLOCK
  2005  04BD                     l2035:	
  2006                           
  2007                           ;./LCDLIBRARY1.h: 178:     delay1();
  2008  04BD  120A  158A  259B  120A  118A  	fcall	_delay1
  2009                           
  2010                           ;./LCDLIBRARY1.h: 180:     PORTB= 2;
  2011  04C2  3002               	movlw	2
  2012  04C3  1283               	bcf	3,5	;RP0=0, select bank0
  2013  04C4  1303               	bcf	3,6	;RP1=0, select bank0
  2014  04C5  0086               	movwf	6	;volatile
  2015  04C6                     l2037:	
  2016                           
  2017                           ;./LCDLIBRARY1.h: 181:     CLOCK();
  2018  04C6  120A  158A  25DF  120A  118A  	fcall	_CLOCK
  2019  04CB                     l2039:	
  2020                           
  2021                           ;./LCDLIBRARY1.h: 182:     delay1();
  2022  04CB  120A  158A  259B  120A  118A  	fcall	_delay1
  2023                           
  2024                           ;./LCDLIBRARY1.h: 184:     PORTB= 0x8;
  2025  04D0  3008               	movlw	8
  2026  04D1  1283               	bcf	3,5	;RP0=0, select bank0
  2027  04D2  1303               	bcf	3,6	;RP1=0, select bank0
  2028  04D3  0086               	movwf	6	;volatile
  2029  04D4                     l2041:	
  2030                           
  2031                           ;./LCDLIBRARY1.h: 185:     CLOCK();
  2032  04D4  120A  158A  25DF  120A  118A  	fcall	_CLOCK
  2033  04D9                     l2043:	
  2034                           
  2035                           ;./LCDLIBRARY1.h: 186:     delay1();
  2036  04D9  120A  158A  259B  120A  118A  	fcall	_delay1
  2037  04DE                     l2045:	
  2038                           
  2039                           ;./LCDLIBRARY1.h: 188:     PORTB= 0;
  2040  04DE  1283               	bcf	3,5	;RP0=0, select bank0
  2041  04DF  1303               	bcf	3,6	;RP1=0, select bank0
  2042  04E0  0186               	clrf	6	;volatile
  2043  04E1                     l2047:	
  2044                           
  2045                           ;./LCDLIBRARY1.h: 189:     CLOCK();
  2046  04E1  120A  158A  25DF  120A  118A  	fcall	_CLOCK
  2047  04E6                     l2049:	
  2048                           
  2049                           ;./LCDLIBRARY1.h: 190:     PORTB= 0X0C;
  2050  04E6  300C               	movlw	12
  2051  04E7  1283               	bcf	3,5	;RP0=0, select bank0
  2052  04E8  1303               	bcf	3,6	;RP1=0, select bank0
  2053  04E9  0086               	movwf	6	;volatile
  2054  04EA                     l2051:	
  2055                           
  2056                           ;./LCDLIBRARY1.h: 191:     CLOCK();
  2057  04EA  120A  158A  25DF  120A  118A  	fcall	_CLOCK
  2058  04EF                     l2053:	
  2059                           
  2060                           ;./LCDLIBRARY1.h: 192:     delay1();
  2061  04EF  120A  158A  259B  120A  118A  	fcall	_delay1
  2062  04F4                     l2055:	
  2063                           
  2064                           ;./LCDLIBRARY1.h: 194:     PORTB= 0;
  2065  04F4  1283               	bcf	3,5	;RP0=0, select bank0
  2066  04F5  1303               	bcf	3,6	;RP1=0, select bank0
  2067  04F6  0186               	clrf	6	;volatile
  2068                           
  2069                           ;./LCDLIBRARY1.h: 195:     CLOCK();
  2070  04F7  120A  158A  25DF  120A  118A  	fcall	_CLOCK
  2071  04FC                     l2057:	
  2072                           
  2073                           ;./LCDLIBRARY1.h: 196:     PORTB= 6;
  2074  04FC  3006               	movlw	6
  2075  04FD  1283               	bcf	3,5	;RP0=0, select bank0
  2076  04FE  1303               	bcf	3,6	;RP1=0, select bank0
  2077  04FF  0086               	movwf	6	;volatile
  2078  0500                     l2059:	
  2079                           
  2080                           ;./LCDLIBRARY1.h: 197:     CLOCK();
  2081  0500  120A  158A  25DF  120A  118A  	fcall	_CLOCK
  2082  0505                     l2061:	
  2083                           
  2084                           ;./LCDLIBRARY1.h: 198:     delay1();
  2085  0505  120A  158A  259B  120A  118A  	fcall	_delay1
  2086  050A                     l214:	
  2087  050A  0008               	return
  2088  050B                     __end_of_config:	
  2089                           
  2090                           	psect	text2
  2091  02E2                     __ptext2:	
  2092 ;; *************** function _Update_Current_Date_Time *****************
  2093 ;; Defined at:
  2094 ;;		line 43 in file "./PIC16F877a_DS3231.h"
  2095 ;; Parameters:    Size  Location     Type
  2096 ;;		None
  2097 ;; Auto vars:     Size  Location     Type
  2098 ;;		None
  2099 ;; Return value:  Size  Location     Type
  2100 ;;                  1    wreg      void 
  2101 ;; Registers used:
  2102 ;;		wreg, status,2, status,0, pclath, cstack
  2103 ;; Tracked objects:
  2104 ;;		On entry : 0/0
  2105 ;;		On exit  : 0/0
  2106 ;;		Unchanged: 0/0
  2107 ;; Data sizes:     COMMON   BANK0   BANK1   BANK3   BANK2
  2108 ;;      Params:         0       0       0       0       0
  2109 ;;      Locals:         0       0       0       0       0
  2110 ;;      Temps:          0       0       0       0       0
  2111 ;;      Totals:         0       0       0       0       0
  2112 ;;Total ram usage:        0 bytes
  2113 ;; Hardware stack levels used:    1
  2114 ;; Hardware stack levels required when called:    6
  2115 ;; This function calls:
  2116 ;;		_BCD_2_DEC
  2117 ;;		_I2C_Begin
  2118 ;;		_I2C_End
  2119 ;;		_I2C_Read
  2120 ;;		_I2C_Restart
  2121 ;;		_I2C_Write
  2122 ;; This function is called by:
  2123 ;;		_main
  2124 ;; This function uses a non-reentrant model
  2125 ;;
  2126                           
  2127                           
  2128                           ;psect for function _Update_Current_Date_Time
  2129  02E2                     _Update_Current_Date_Time:	
  2130  02E2                     l1967:	
  2131                           ;incstack = 0
  2132                           ; Regs used in _Update_Current_Date_Time: [wreg+status,2+status,0+pclath+cstack]
  2133                           
  2134                           
  2135                           ;./PIC16F877a_DS3231.h: 45:    I2C_Begin();
  2136  02E2  120A  158A  2574  120A  118A  	fcall	_I2C_Begin
  2137                           
  2138                           ;./PIC16F877a_DS3231.h: 46:    I2C_Write(0xD0);
  2139  02E7  30D0               	movlw	208
  2140  02E8  1283               	bcf	3,5	;RP0=0, select bank0
  2141  02E9  1303               	bcf	3,6	;RP1=0, select bank0
  2142  02EA  00B6               	movwf	I2C_Write@data
  2143  02EB  3000               	movlw	0
  2144  02EC  00B7               	movwf	I2C_Write@data+1
  2145  02ED  120A  158A  25D0  120A  118A  	fcall	_I2C_Write
  2146                           
  2147                           ;./PIC16F877a_DS3231.h: 47:    I2C_Write(0);
  2148  02F2  3000               	movlw	0
  2149  02F3  1283               	bcf	3,5	;RP0=0, select bank0
  2150  02F4  1303               	bcf	3,6	;RP1=0, select bank0
  2151  02F5  00B6               	movwf	I2C_Write@data
  2152  02F6  00B7               	movwf	I2C_Write@data+1
  2153  02F7  120A  158A  25D0  120A  118A  	fcall	_I2C_Write
  2154                           
  2155                           ;./PIC16F877a_DS3231.h: 48:    I2C_Restart();
  2156  02FC  120A  158A  2586  120A  118A  	fcall	_I2C_Restart
  2157                           
  2158                           ;./PIC16F877a_DS3231.h: 49:    I2C_Write(0xD1);
  2159  0301  30D1               	movlw	209
  2160  0302  1283               	bcf	3,5	;RP0=0, select bank0
  2161  0303  1303               	bcf	3,6	;RP1=0, select bank0
  2162  0304  00B6               	movwf	I2C_Write@data
  2163  0305  3000               	movlw	0
  2164  0306  00B7               	movwf	I2C_Write@data+1
  2165  0307  120A  158A  25D0  120A  118A  	fcall	_I2C_Write
  2166                           
  2167                           ;./PIC16F877a_DS3231.h: 50:    sec=BCD_2_DEC(I2C_Read(0));
  2168  030C  3000               	movlw	0
  2169  030D  1283               	bcf	3,5	;RP0=0, select bank0
  2170  030E  1303               	bcf	3,6	;RP1=0, select bank0
  2171  030F  00A7               	movwf	I2C_Read@ack
  2172  0310  00A8               	movwf	I2C_Read@ack+1
  2173  0311  120A  158A  26D5  120A  118A  	fcall	_I2C_Read
  2174  0316  1283               	bcf	3,5	;RP0=0, select bank0
  2175  0317  1303               	bcf	3,6	;RP1=0, select bank0
  2176  0318  0828               	movf	?_I2C_Read+1,w
  2177  0319  00AE               	movwf	BCD_2_DEC@num+1
  2178  031A  0827               	movf	?_I2C_Read,w
  2179  031B  00AD               	movwf	BCD_2_DEC@num
  2180  031C  120A  158A  26A8  120A  118A  	fcall	_BCD_2_DEC
  2181  0321  1283               	bcf	3,5	;RP0=0, select bank0
  2182  0322  1303               	bcf	3,6	;RP1=0, select bank0
  2183  0323  082E               	movf	?_BCD_2_DEC+1,w
  2184  0324  00E1               	movwf	_sec+1
  2185  0325  082D               	movf	?_BCD_2_DEC,w
  2186  0326  00E0               	movwf	_sec
  2187                           
  2188                           ;./PIC16F877a_DS3231.h: 51:    min=BCD_2_DEC(I2C_Read(0));
  2189  0327  3000               	movlw	0
  2190  0328  00A7               	movwf	I2C_Read@ack
  2191  0329  00A8               	movwf	I2C_Read@ack+1
  2192  032A  120A  158A  26D5  120A  118A  	fcall	_I2C_Read
  2193  032F  1283               	bcf	3,5	;RP0=0, select bank0
  2194  0330  1303               	bcf	3,6	;RP1=0, select bank0
  2195  0331  0828               	movf	?_I2C_Read+1,w
  2196  0332  00AE               	movwf	BCD_2_DEC@num+1
  2197  0333  0827               	movf	?_I2C_Read,w
  2198  0334  00AD               	movwf	BCD_2_DEC@num
  2199  0335  120A  158A  26A8  120A  118A  	fcall	_BCD_2_DEC
  2200  033A  1283               	bcf	3,5	;RP0=0, select bank0
  2201  033B  1303               	bcf	3,6	;RP1=0, select bank0
  2202  033C  082E               	movf	?_BCD_2_DEC+1,w
  2203  033D  00D1               	movwf	_min+1
  2204  033E  082D               	movf	?_BCD_2_DEC,w
  2205  033F  00D0               	movwf	_min
  2206                           
  2207                           ;./PIC16F877a_DS3231.h: 52:    hour=BCD_2_DEC(I2C_Read(0));
  2208  0340  3000               	movlw	0
  2209  0341  00A7               	movwf	I2C_Read@ack
  2210  0342  00A8               	movwf	I2C_Read@ack+1
  2211  0343  120A  158A  26D5  120A  118A  	fcall	_I2C_Read
  2212  0348  1283               	bcf	3,5	;RP0=0, select bank0
  2213  0349  1303               	bcf	3,6	;RP1=0, select bank0
  2214  034A  0828               	movf	?_I2C_Read+1,w
  2215  034B  00AE               	movwf	BCD_2_DEC@num+1
  2216  034C  0827               	movf	?_I2C_Read,w
  2217  034D  00AD               	movwf	BCD_2_DEC@num
  2218  034E  120A  158A  26A8  120A  118A  	fcall	_BCD_2_DEC
  2219  0353  1283               	bcf	3,5	;RP0=0, select bank0
  2220  0354  1303               	bcf	3,6	;RP1=0, select bank0
  2221  0355  082E               	movf	?_BCD_2_DEC+1,w
  2222  0356  00CF               	movwf	_hour+1
  2223  0357  082D               	movf	?_BCD_2_DEC,w
  2224  0358  00CE               	movwf	_hour
  2225                           
  2226                           ;./PIC16F877a_DS3231.h: 53:    I2C_Read(0);
  2227  0359  3000               	movlw	0
  2228  035A  00A7               	movwf	I2C_Read@ack
  2229  035B  00A8               	movwf	I2C_Read@ack+1
  2230  035C  120A  158A  26D5  120A  118A  	fcall	_I2C_Read
  2231                           
  2232                           ;./PIC16F877a_DS3231.h: 54:    I2C_Read(0);
  2233  0361  3000               	movlw	0
  2234  0362  1283               	bcf	3,5	;RP0=0, select bank0
  2235  0363  1303               	bcf	3,6	;RP1=0, select bank0
  2236  0364  00A7               	movwf	I2C_Read@ack
  2237  0365  00A8               	movwf	I2C_Read@ack+1
  2238  0366  120A  158A  26D5  120A  118A  	fcall	_I2C_Read
  2239                           
  2240                           ;./PIC16F877a_DS3231.h: 55:    I2C_Read(0);
  2241  036B  3000               	movlw	0
  2242  036C  1283               	bcf	3,5	;RP0=0, select bank0
  2243  036D  1303               	bcf	3,6	;RP1=0, select bank0
  2244  036E  00A7               	movwf	I2C_Read@ack
  2245  036F  00A8               	movwf	I2C_Read@ack+1
  2246  0370  120A  158A  26D5  120A  118A  	fcall	_I2C_Read
  2247                           
  2248                           ;./PIC16F877a_DS3231.h: 56:    I2C_Read(1);
  2249  0375  3001               	movlw	1
  2250  0376  1283               	bcf	3,5	;RP0=0, select bank0
  2251  0377  1303               	bcf	3,6	;RP1=0, select bank0
  2252  0378  00A7               	movwf	I2C_Read@ack
  2253  0379  3000               	movlw	0
  2254  037A  00A8               	movwf	I2C_Read@ack+1
  2255  037B  120A  158A  26D5  120A  118A  	fcall	_I2C_Read
  2256                           
  2257                           ;./PIC16F877a_DS3231.h: 57:    I2C_End();
  2258  0380  120A  158A  257D  120A  118A  	fcall	_I2C_End
  2259  0385                     l160:	
  2260  0385  0008               	return
  2261  0386                     __end_of_Update_Current_Date_Time:	
  2262                           
  2263                           	psect	text3
  2264  0D86                     __ptext3:	
  2265 ;; *************** function _I2C_Restart *****************
  2266 ;; Defined at:
  2267 ;;		line 30 in file "./PIC16F877a_I2C.h"
  2268 ;; Parameters:    Size  Location     Type
  2269 ;;		None
  2270 ;; Auto vars:     Size  Location     Type
  2271 ;;		None
  2272 ;; Return value:  Size  Location     Type
  2273 ;;                  1    wreg      void 
  2274 ;; Registers used:
  2275 ;;		wreg, status,2, status,0, pclath, cstack
  2276 ;; Tracked objects:
  2277 ;;		On entry : 0/0
  2278 ;;		On exit  : 0/0
  2279 ;;		Unchanged: 0/0
  2280 ;; Data sizes:     COMMON   BANK0   BANK1   BANK3   BANK2
  2281 ;;      Params:         0       0       0       0       0
  2282 ;;      Locals:         0       0       0       0       0
  2283 ;;      Temps:          0       0       0       0       0
  2284 ;;      Totals:         0       0       0       0       0
  2285 ;;Total ram usage:        0 bytes
  2286 ;; Hardware stack levels used:    1
  2287 ;; Hardware stack levels required when called:    5
  2288 ;; This function calls:
  2289 ;;		_I2C_Hold
  2290 ;; This function is called by:
  2291 ;;		_Update_Current_Date_Time
  2292 ;; This function uses a non-reentrant model
  2293 ;;
  2294                           
  2295                           
  2296                           ;psect for function _I2C_Restart
  2297  0D86                     _I2C_Restart:	
  2298  0D86                     l1843:	
  2299                           ;incstack = 0
  2300                           ; Regs used in _I2C_Restart: [wreg+status,2+status,0+pclath+cstack]
  2301                           
  2302                           
  2303                           ;./PIC16F877a_I2C.h: 31:     I2C_Hold();
  2304  0D86  120A  158A  25B4  120A  158A  	fcall	_I2C_Hold
  2305  0D8B                     l1845:	
  2306                           
  2307                           ;./PIC16F877a_I2C.h: 32:     RSEN=1;
  2308  0D8B  1683               	bsf	3,5	;RP0=1, select bank1
  2309  0D8C  1303               	bcf	3,6	;RP1=0, select bank1
  2310  0D8D  1491               	bsf	17,1	;volatile
  2311  0D8E                     l133:	
  2312  0D8E  0008               	return
  2313  0D8F                     __end_of_I2C_Restart:	
  2314                           
  2315                           	psect	text4
  2316  0ED5                     __ptext4:	
  2317 ;; *************** function _I2C_Read *****************
  2318 ;; Defined at:
  2319 ;;		line 50 in file "./PIC16F877a_I2C.h"
  2320 ;; Parameters:    Size  Location     Type
  2321 ;;  ack             2    7[BANK0 ] unsigned short 
  2322 ;; Auto vars:     Size  Location     Type
  2323 ;;  data            2   11[BANK0 ] unsigned short 
  2324 ;; Return value:  Size  Location     Type
  2325 ;;                  2    7[BANK0 ] unsigned short 
  2326 ;; Registers used:
  2327 ;;		wreg, status,2, status,0, pclath, cstack
  2328 ;; Tracked objects:
  2329 ;;		On entry : 0/0
  2330 ;;		On exit  : 0/0
  2331 ;;		Unchanged: 0/0
  2332 ;; Data sizes:     COMMON   BANK0   BANK1   BANK3   BANK2
  2333 ;;      Params:         0       2       0       0       0
  2334 ;;      Locals:         0       2       0       0       0
  2335 ;;      Temps:          0       2       0       0       0
  2336 ;;      Totals:         0       6       0       0       0
  2337 ;;Total ram usage:        6 bytes
  2338 ;; Hardware stack levels used:    1
  2339 ;; Hardware stack levels required when called:    5
  2340 ;; This function calls:
  2341 ;;		_I2C_Hold
  2342 ;; This function is called by:
  2343 ;;		_Update_Current_Date_Time
  2344 ;; This function uses a non-reentrant model
  2345 ;;
  2346                           
  2347                           
  2348                           ;psect for function _I2C_Read
  2349  0ED5                     _I2C_Read:	
  2350  0ED5                     l1861:	
  2351                           ;incstack = 0
  2352                           ; Regs used in _I2C_Read: [wreg+status,2+status,0+pclath+cstack]
  2353                           
  2354                           
  2355                           ;./PIC16F877a_I2C.h: 50: unsigned short I2C_Read(unsigned short ack);./PIC16F877a_I2C.h:
      +                           51: {;./PIC16F877a_I2C.h: 52:     unsigned short data;;./PIC16F877a_I2C.h: 53:     I2C_
      +                          Hold();
  2356  0ED5  120A  158A  25B4  120A  158A  	fcall	_I2C_Hold
  2357  0EDA                     l1863:	
  2358                           
  2359                           ;./PIC16F877a_I2C.h: 54:     RCEN = 1;
  2360  0EDA  1683               	bsf	3,5	;RP0=1, select bank1
  2361  0EDB  1303               	bcf	3,6	;RP1=0, select bank1
  2362  0EDC  1591               	bsf	17,3	;volatile
  2363                           
  2364                           ;./PIC16F877a_I2C.h: 55:     I2C_Hold();
  2365  0EDD  120A  158A  25B4  120A  158A  	fcall	_I2C_Hold
  2366  0EE2                     l1865:	
  2367                           
  2368                           ;./PIC16F877a_I2C.h: 56:     data=SSPBUF;
  2369  0EE2  1283               	bcf	3,5	;RP0=0, select bank0
  2370  0EE3  1303               	bcf	3,6	;RP1=0, select bank0
  2371  0EE4  0813               	movf	19,w	;volatile
  2372  0EE5  00A9               	movwf	??_I2C_Read
  2373  0EE6  01AA               	clrf	??_I2C_Read+1
  2374  0EE7  0829               	movf	??_I2C_Read,w
  2375  0EE8  00AB               	movwf	I2C_Read@data
  2376  0EE9  082A               	movf	??_I2C_Read+1,w
  2377  0EEA  00AC               	movwf	I2C_Read@data+1
  2378  0EEB                     l1867:	
  2379                           
  2380                           ;./PIC16F877a_I2C.h: 57:     I2C_Hold();
  2381  0EEB  120A  158A  25B4  120A  158A  	fcall	_I2C_Hold
  2382  0EF0                     l1869:	
  2383                           
  2384                           ;./PIC16F877a_I2C.h: 58:     ACKDT=ack;
  2385  0EF0  1283               	bcf	3,5	;RP0=0, select bank0
  2386  0EF1  1303               	bcf	3,6	;RP1=0, select bank0
  2387  0EF2  1827               	btfsc	I2C_Read@ack,0
  2388  0EF3  2EF5               	goto	u1411
  2389  0EF4  2EF9               	goto	u1410
  2390  0EF5                     u1411:	
  2391  0EF5  1683               	bsf	3,5	;RP0=1, select bank1
  2392  0EF6  1303               	bcf	3,6	;RP1=0, select bank1
  2393  0EF7  1691               	bsf	17,5	;volatile
  2394  0EF8  2EFC               	goto	u1424
  2395  0EF9                     u1410:	
  2396  0EF9  1683               	bsf	3,5	;RP0=1, select bank1
  2397  0EFA  1303               	bcf	3,6	;RP1=0, select bank1
  2398  0EFB  1291               	bcf	17,5	;volatile
  2399  0EFC                     u1424:	
  2400  0EFC                     l1871:	
  2401                           
  2402                           ;./PIC16F877a_I2C.h: 59:     ACKEN=1;
  2403  0EFC  1611               	bsf	17,4	;volatile
  2404                           
  2405                           ;./PIC16F877a_I2C.h: 60:     return data;
  2406  0EFD  1283               	bcf	3,5	;RP0=0, select bank0
  2407  0EFE  1303               	bcf	3,6	;RP1=0, select bank0
  2408  0EFF  082C               	movf	I2C_Read@data+1,w
  2409  0F00  00A8               	movwf	?_I2C_Read+1
  2410  0F01  082B               	movf	I2C_Read@data,w
  2411  0F02  00A7               	movwf	?_I2C_Read
  2412  0F03                     l142:	
  2413  0F03  0008               	return
  2414  0F04                     __end_of_I2C_Read:	
  2415                           
  2416                           	psect	text5
  2417  0EA8                     __ptext5:	
  2418 ;; *************** function _BCD_2_DEC *****************
  2419 ;; Defined at:
  2420 ;;		line 16 in file "./PIC16F877a_DS3231.h"
  2421 ;; Parameters:    Size  Location     Type
  2422 ;;  num             2   13[BANK0 ] int 
  2423 ;; Auto vars:     Size  Location     Type
  2424 ;;  data            2   17[BANK0 ] int 
  2425 ;; Return value:  Size  Location     Type
  2426 ;;                  2   13[BANK0 ] int 
  2427 ;; Registers used:
  2428 ;;		wreg, status,2, status,0, pclath, cstack
  2429 ;; Tracked objects:
  2430 ;;		On entry : 0/0
  2431 ;;		On exit  : 0/0
  2432 ;;		Unchanged: 0/0
  2433 ;; Data sizes:     COMMON   BANK0   BANK1   BANK3   BANK2
  2434 ;;      Params:         0       2       0       0       0
  2435 ;;      Locals:         0       2       0       0       0
  2436 ;;      Temps:          0       2       0       0       0
  2437 ;;      Totals:         0       6       0       0       0
  2438 ;;Total ram usage:        6 bytes
  2439 ;; Hardware stack levels used:    1
  2440 ;; Hardware stack levels required when called:    5
  2441 ;; This function calls:
  2442 ;;		___wmul
  2443 ;; This function is called by:
  2444 ;;		_Update_Current_Date_Time
  2445 ;; This function uses a non-reentrant model
  2446 ;;
  2447                           
  2448                           
  2449                           ;psect for function _BCD_2_DEC
  2450  0EA8                     _BCD_2_DEC:	
  2451  0EA8                     l1875:	
  2452                           ;incstack = 0
  2453                           ; Regs used in _BCD_2_DEC: [wreg+status,2+status,0+pclath+cstack]
  2454                           
  2455                           
  2456                           ;./PIC16F877a_DS3231.h: 16: int BCD_2_DEC(int num);./PIC16F877a_DS3231.h: 17: {;./PIC16F
      +                          877a_DS3231.h: 18:     int data=((num>>4)*10)+(num&0x0F);
  2457  0EA8  300F               	movlw	15
  2458  0EA9  1283               	bcf	3,5	;RP0=0, select bank0
  2459  0EAA  1303               	bcf	3,6	;RP1=0, select bank0
  2460  0EAB  052D               	andwf	BCD_2_DEC@num,w
  2461  0EAC  00AF               	movwf	??_BCD_2_DEC
  2462  0EAD  3000               	movlw	0
  2463  0EAE  052E               	andwf	BCD_2_DEC@num+1,w
  2464  0EAF  00B0               	movwf	??_BCD_2_DEC+1
  2465  0EB0  0E2D               	swapf	BCD_2_DEC@num,w
  2466  0EB1  390F               	andlw	15
  2467  0EB2  00A7               	movwf	___wmul@multiplier
  2468  0EB3  0E2E               	swapf	BCD_2_DEC@num+1,w
  2469  0EB4  39F0               	andlw	240
  2470  0EB5  04A7               	iorwf	___wmul@multiplier,f
  2471  0EB6  0E2E               	swapf	BCD_2_DEC@num+1,w
  2472  0EB7  390F               	andlw	15
  2473  0EB8  00A8               	movwf	___wmul@multiplier+1
  2474  0EB9  30F0               	movlw	240
  2475  0EBA  1DA8               	btfss	___wmul@multiplier+1,3
  2476  0EBB  3000               	movlw	0
  2477  0EBC  04A8               	iorwf	___wmul@multiplier+1,f
  2478  0EBD  300A               	movlw	10
  2479  0EBE  00A9               	movwf	___wmul@multiplicand
  2480  0EBF  3000               	movlw	0
  2481  0EC0  00AA               	movwf	___wmul@multiplicand+1
  2482  0EC1  120A  158A  2656  120A  158A  	fcall	___wmul
  2483  0EC6  1283               	bcf	3,5	;RP0=0, select bank0
  2484  0EC7  1303               	bcf	3,6	;RP1=0, select bank0
  2485  0EC8  082F               	movf	??_BCD_2_DEC,w
  2486  0EC9  0727               	addwf	?___wmul,w
  2487  0ECA  00B1               	movwf	BCD_2_DEC@data
  2488  0ECB  0830               	movf	??_BCD_2_DEC+1,w
  2489  0ECC  1803               	skipnc
  2490  0ECD  0A30               	incf	??_BCD_2_DEC+1,w
  2491  0ECE  0728               	addwf	?___wmul+1,w
  2492  0ECF  00B2               	movwf	BCD_2_DEC@data+1
  2493  0ED0                     l1877:	
  2494                           
  2495                           ;./PIC16F877a_DS3231.h: 19:     return data;
  2496  0ED0  0832               	movf	BCD_2_DEC@data+1,w
  2497  0ED1  00AE               	movwf	?_BCD_2_DEC+1
  2498  0ED2  0831               	movf	BCD_2_DEC@data,w
  2499  0ED3  00AD               	movwf	?_BCD_2_DEC
  2500  0ED4                     l151:	
  2501  0ED4  0008               	return
  2502  0ED5                     __end_of_BCD_2_DEC:	
  2503                           
  2504                           	psect	text6
  2505  0E56                     __ptext6:	
  2506 ;; *************** function ___wmul *****************
  2507 ;; Defined at:
  2508 ;;		line 15 in file "C:\Program Files (x86)\Microchip\xc8\v2.10\pic\sources\c90\common\Umul16.c"
  2509 ;; Parameters:    Size  Location     Type
  2510 ;;  multiplier      2    7[BANK0 ] unsigned int 
  2511 ;;  multiplicand    2    9[BANK0 ] unsigned int 
  2512 ;; Auto vars:     Size  Location     Type
  2513 ;;  product         2   11[BANK0 ] unsigned int 
  2514 ;; Return value:  Size  Location     Type
  2515 ;;                  2    7[BANK0 ] unsigned int 
  2516 ;; Registers used:
  2517 ;;		wreg, status,2, status,0
  2518 ;; Tracked objects:
  2519 ;;		On entry : 0/0
  2520 ;;		On exit  : 0/0
  2521 ;;		Unchanged: 0/0
  2522 ;; Data sizes:     COMMON   BANK0   BANK1   BANK3   BANK2
  2523 ;;      Params:         0       4       0       0       0
  2524 ;;      Locals:         0       2       0       0       0
  2525 ;;      Temps:          0       0       0       0       0
  2526 ;;      Totals:         0       6       0       0       0
  2527 ;;Total ram usage:        6 bytes
  2528 ;; Hardware stack levels used:    1
  2529 ;; Hardware stack levels required when called:    4
  2530 ;; This function calls:
  2531 ;;		Nothing
  2532 ;; This function is called by:
  2533 ;;		_BCD_2_DEC
  2534 ;; This function uses a non-reentrant model
  2535 ;;
  2536                           
  2537                           
  2538                           ;psect for function ___wmul
  2539  0E56                     ___wmul:	
  2540  0E56                     l1655:	
  2541                           ;incstack = 0
  2542                           ; Regs used in ___wmul: [wreg+status,2+status,0]
  2543                           
  2544  0E56  1283               	bcf	3,5	;RP0=0, select bank0
  2545  0E57  1303               	bcf	3,6	;RP1=0, select bank0
  2546  0E58  01AB               	clrf	___wmul@product
  2547  0E59  01AC               	clrf	___wmul@product+1
  2548  0E5A                     l1657:	
  2549  0E5A  1C27               	btfss	___wmul@multiplier,0
  2550  0E5B  2E5D               	goto	u971
  2551  0E5C  2E5E               	goto	u970
  2552  0E5D                     u971:	
  2553  0E5D  2E64               	goto	l374
  2554  0E5E                     u970:	
  2555  0E5E                     l1659:	
  2556  0E5E  0829               	movf	___wmul@multiplicand,w
  2557  0E5F  07AB               	addwf	___wmul@product,f
  2558  0E60  1803               	skipnc
  2559  0E61  0AAC               	incf	___wmul@product+1,f
  2560  0E62  082A               	movf	___wmul@multiplicand+1,w
  2561  0E63  07AC               	addwf	___wmul@product+1,f
  2562  0E64                     l374:	
  2563  0E64  3001               	movlw	1
  2564  0E65                     u985:	
  2565  0E65  1003               	clrc
  2566  0E66  0DA9               	rlf	___wmul@multiplicand,f
  2567  0E67  0DAA               	rlf	___wmul@multiplicand+1,f
  2568  0E68  3EFF               	addlw	-1
  2569  0E69  1D03               	skipz
  2570  0E6A  2E65               	goto	u985
  2571  0E6B                     l1661:	
  2572  0E6B  3001               	movlw	1
  2573  0E6C                     u995:	
  2574  0E6C  1003               	clrc
  2575  0E6D  0CA8               	rrf	___wmul@multiplier+1,f
  2576  0E6E  0CA7               	rrf	___wmul@multiplier,f
  2577  0E6F  3EFF               	addlw	-1
  2578  0E70  1D03               	skipz
  2579  0E71  2E6C               	goto	u995
  2580  0E72                     l1663:	
  2581  0E72  0827               	movf	___wmul@multiplier,w
  2582  0E73  0428               	iorwf	___wmul@multiplier+1,w
  2583  0E74  1D03               	btfss	3,2
  2584  0E75  2E77               	goto	u1001
  2585  0E76  2E78               	goto	u1000
  2586  0E77                     u1001:	
  2587  0E77  2E5A               	goto	l1657
  2588  0E78                     u1000:	
  2589  0E78                     l1665:	
  2590  0E78  082C               	movf	___wmul@product+1,w
  2591  0E79  00A8               	movwf	?___wmul+1
  2592  0E7A  082B               	movf	___wmul@product,w
  2593  0E7B  00A7               	movwf	?___wmul
  2594  0E7C                     l376:	
  2595  0E7C  0008               	return
  2596  0E7D                     __end_of___wmul:	
  2597                           
  2598                           	psect	text7
  2599  0386                     __ptext7:	
  2600 ;; *************** function _Set_Time_Date *****************
  2601 ;; Defined at:
  2602 ;;		line 28 in file "./PIC16F877a_DS3231.h"
  2603 ;; Parameters:    Size  Location     Type
  2604 ;;		None
  2605 ;; Auto vars:     Size  Location     Type
  2606 ;;		None
  2607 ;; Return value:  Size  Location     Type
  2608 ;;                  1    wreg      void 
  2609 ;; Registers used:
  2610 ;;		wreg, status,2, status,0, pclath, cstack
  2611 ;; Tracked objects:
  2612 ;;		On entry : 0/0
  2613 ;;		On exit  : 0/0
  2614 ;;		Unchanged: 0/0
  2615 ;; Data sizes:     COMMON   BANK0   BANK1   BANK3   BANK2
  2616 ;;      Params:         0       0       0       0       0
  2617 ;;      Locals:         0       0       0       0       0
  2618 ;;      Temps:          0       0       0       0       0
  2619 ;;      Totals:         0       0       0       0       0
  2620 ;;Total ram usage:        0 bytes
  2621 ;; Hardware stack levels used:    1
  2622 ;; Hardware stack levels required when called:    6
  2623 ;; This function calls:
  2624 ;;		_DEC_2_BCD
  2625 ;;		_I2C_Begin
  2626 ;;		_I2C_End
  2627 ;;		_I2C_Write
  2628 ;; This function is called by:
  2629 ;;		_main
  2630 ;; This function uses a non-reentrant model
  2631 ;;
  2632                           
  2633                           
  2634                           ;psect for function _Set_Time_Date
  2635  0386                     _Set_Time_Date:	
  2636  0386                     l1965:	
  2637                           ;incstack = 0
  2638                           ; Regs used in _Set_Time_Date: [wreg+status,2+status,0+pclath+cstack]
  2639                           
  2640                           
  2641                           ;./PIC16F877a_DS3231.h: 30:    I2C_Begin();
  2642  0386  120A  158A  2574  120A  118A  	fcall	_I2C_Begin
  2643                           
  2644                           ;./PIC16F877a_DS3231.h: 31:    I2C_Write(0xD0);
  2645  038B  30D0               	movlw	208
  2646  038C  1283               	bcf	3,5	;RP0=0, select bank0
  2647  038D  1303               	bcf	3,6	;RP1=0, select bank0
  2648  038E  00B6               	movwf	I2C_Write@data
  2649  038F  3000               	movlw	0
  2650  0390  00B7               	movwf	I2C_Write@data+1
  2651  0391  120A  158A  25D0  120A  118A  	fcall	_I2C_Write
  2652                           
  2653                           ;./PIC16F877a_DS3231.h: 32:    I2C_Write(0);
  2654  0396  3000               	movlw	0
  2655  0397  1283               	bcf	3,5	;RP0=0, select bank0
  2656  0398  1303               	bcf	3,6	;RP1=0, select bank0
  2657  0399  00B6               	movwf	I2C_Write@data
  2658  039A  00B7               	movwf	I2C_Write@data+1
  2659  039B  120A  158A  25D0  120A  118A  	fcall	_I2C_Write
  2660                           
  2661                           ;./PIC16F877a_DS3231.h: 33:    I2C_Write(DEC_2_BCD(sec));
  2662  03A0  1283               	bcf	3,5	;RP0=0, select bank0
  2663  03A1  1303               	bcf	3,6	;RP1=0, select bank0
  2664  03A2  0861               	movf	_sec+1,w
  2665  03A3  00B1               	movwf	DEC_2_BCD@num+1
  2666  03A4  0860               	movf	_sec,w
  2667  03A5  00B0               	movwf	DEC_2_BCD@num
  2668  03A6  120A  158A  2774  120A  118A  	fcall	_DEC_2_BCD
  2669  03AB  1283               	bcf	3,5	;RP0=0, select bank0
  2670  03AC  1303               	bcf	3,6	;RP1=0, select bank0
  2671  03AD  0831               	movf	?_DEC_2_BCD+1,w
  2672  03AE  00B7               	movwf	I2C_Write@data+1
  2673  03AF  0830               	movf	?_DEC_2_BCD,w
  2674  03B0  00B6               	movwf	I2C_Write@data
  2675  03B1  120A  158A  25D0  120A  118A  	fcall	_I2C_Write
  2676                           
  2677                           ;./PIC16F877a_DS3231.h: 34:    I2C_Write(DEC_2_BCD(min));
  2678  03B6  1283               	bcf	3,5	;RP0=0, select bank0
  2679  03B7  1303               	bcf	3,6	;RP1=0, select bank0
  2680  03B8  0851               	movf	_min+1,w
  2681  03B9  00B1               	movwf	DEC_2_BCD@num+1
  2682  03BA  0850               	movf	_min,w
  2683  03BB  00B0               	movwf	DEC_2_BCD@num
  2684  03BC  120A  158A  2774  120A  118A  	fcall	_DEC_2_BCD
  2685  03C1  1283               	bcf	3,5	;RP0=0, select bank0
  2686  03C2  1303               	bcf	3,6	;RP1=0, select bank0
  2687  03C3  0831               	movf	?_DEC_2_BCD+1,w
  2688  03C4  00B7               	movwf	I2C_Write@data+1
  2689  03C5  0830               	movf	?_DEC_2_BCD,w
  2690  03C6  00B6               	movwf	I2C_Write@data
  2691  03C7  120A  158A  25D0  120A  118A  	fcall	_I2C_Write
  2692                           
  2693                           ;./PIC16F877a_DS3231.h: 35:    I2C_Write(DEC_2_BCD(hour));
  2694  03CC  1283               	bcf	3,5	;RP0=0, select bank0
  2695  03CD  1303               	bcf	3,6	;RP1=0, select bank0
  2696  03CE  084F               	movf	_hour+1,w
  2697  03CF  00B1               	movwf	DEC_2_BCD@num+1
  2698  03D0  084E               	movf	_hour,w
  2699  03D1  00B0               	movwf	DEC_2_BCD@num
  2700  03D2  120A  158A  2774  120A  118A  	fcall	_DEC_2_BCD
  2701  03D7  1283               	bcf	3,5	;RP0=0, select bank0
  2702  03D8  1303               	bcf	3,6	;RP1=0, select bank0
  2703  03D9  0831               	movf	?_DEC_2_BCD+1,w
  2704  03DA  00B7               	movwf	I2C_Write@data+1
  2705  03DB  0830               	movf	?_DEC_2_BCD,w
  2706  03DC  00B6               	movwf	I2C_Write@data
  2707  03DD  120A  158A  25D0  120A  118A  	fcall	_I2C_Write
  2708                           
  2709                           ;./PIC16F877a_DS3231.h: 36:    I2C_Write(1);
  2710  03E2  3001               	movlw	1
  2711  03E3  1283               	bcf	3,5	;RP0=0, select bank0
  2712  03E4  1303               	bcf	3,6	;RP1=0, select bank0
  2713  03E5  00B6               	movwf	I2C_Write@data
  2714  03E6  3000               	movlw	0
  2715  03E7  00B7               	movwf	I2C_Write@data+1
  2716  03E8  120A  158A  25D0  120A  118A  	fcall	_I2C_Write
  2717                           
  2718                           ;./PIC16F877a_DS3231.h: 37:    I2C_Write(1);
  2719  03ED  3001               	movlw	1
  2720  03EE  1283               	bcf	3,5	;RP0=0, select bank0
  2721  03EF  1303               	bcf	3,6	;RP1=0, select bank0
  2722  03F0  00B6               	movwf	I2C_Write@data
  2723  03F1  3000               	movlw	0
  2724  03F2  00B7               	movwf	I2C_Write@data+1
  2725  03F3  120A  158A  25D0  120A  118A  	fcall	_I2C_Write
  2726                           
  2727                           ;./PIC16F877a_DS3231.h: 38:    I2C_Write(1);
  2728  03F8  3001               	movlw	1
  2729  03F9  1283               	bcf	3,5	;RP0=0, select bank0
  2730  03FA  1303               	bcf	3,6	;RP1=0, select bank0
  2731  03FB  00B6               	movwf	I2C_Write@data
  2732  03FC  3000               	movlw	0
  2733  03FD  00B7               	movwf	I2C_Write@data+1
  2734  03FE  120A  158A  25D0  120A  118A  	fcall	_I2C_Write
  2735                           
  2736                           ;./PIC16F877a_DS3231.h: 39:    I2C_Write(1);
  2737  0403  3001               	movlw	1
  2738  0404  1283               	bcf	3,5	;RP0=0, select bank0
  2739  0405  1303               	bcf	3,6	;RP1=0, select bank0
  2740  0406  00B6               	movwf	I2C_Write@data
  2741  0407  3000               	movlw	0
  2742  0408  00B7               	movwf	I2C_Write@data+1
  2743  0409  120A  158A  25D0  120A  118A  	fcall	_I2C_Write
  2744                           
  2745                           ;./PIC16F877a_DS3231.h: 40:    I2C_End();
  2746  040E  120A  158A  257D  120A  118A  	fcall	_I2C_End
  2747  0413                     l157:	
  2748  0413  0008               	return
  2749  0414                     __end_of_Set_Time_Date:	
  2750                           
  2751                           	psect	text8
  2752  0DD0                     __ptext8:	
  2753 ;; *************** function _I2C_Write *****************
  2754 ;; Defined at:
  2755 ;;		line 42 in file "./PIC16F877a_I2C.h"
  2756 ;; Parameters:    Size  Location     Type
  2757 ;;  data            2   22[BANK0 ] unsigned short 
  2758 ;; Auto vars:     Size  Location     Type
  2759 ;;		None
  2760 ;; Return value:  Size  Location     Type
  2761 ;;                  2   22[BANK0 ] unsigned short 
  2762 ;; Registers used:
  2763 ;;		wreg, status,2, status,0, pclath, cstack
  2764 ;; Tracked objects:
  2765 ;;		On entry : 0/0
  2766 ;;		On exit  : 0/0
  2767 ;;		Unchanged: 0/0
  2768 ;; Data sizes:     COMMON   BANK0   BANK1   BANK3   BANK2
  2769 ;;      Params:         0       2       0       0       0
  2770 ;;      Locals:         0       0       0       0       0
  2771 ;;      Temps:          0       0       0       0       0
  2772 ;;      Totals:         0       2       0       0       0
  2773 ;;Total ram usage:        2 bytes
  2774 ;; Hardware stack levels used:    1
  2775 ;; Hardware stack levels required when called:    5
  2776 ;; This function calls:
  2777 ;;		_I2C_Hold
  2778 ;; This function is called by:
  2779 ;;		_Set_Time_Date
  2780 ;;		_Update_Current_Date_Time
  2781 ;; This function uses a non-reentrant model
  2782 ;;
  2783                           
  2784                           
  2785                           ;psect for function _I2C_Write
  2786  0DD0                     _I2C_Write:	
  2787  0DD0                     l1851:	
  2788                           ;incstack = 0
  2789                           ; Regs used in _I2C_Write: [wreg+status,2+status,0+pclath+cstack]
  2790                           
  2791                           
  2792                           ;./PIC16F877a_I2C.h: 42: unsigned short I2C_Write(unsigned short data);./PIC16F877a_I2C.
      +                          h: 43: {;./PIC16F877a_I2C.h: 44:     I2C_Hold();
  2793  0DD0  120A  158A  25B4  120A  158A  	fcall	_I2C_Hold
  2794  0DD5                     l1853:	
  2795                           
  2796                           ;./PIC16F877a_I2C.h: 45:     SSPBUF = data;
  2797  0DD5  1283               	bcf	3,5	;RP0=0, select bank0
  2798  0DD6  1303               	bcf	3,6	;RP1=0, select bank0
  2799  0DD7  0836               	movf	I2C_Write@data,w
  2800  0DD8  0093               	movwf	19	;volatile
  2801  0DD9                     l1855:	
  2802                           
  2803                           ;./PIC16F877a_I2C.h: 46:     I2C_Hold();
  2804  0DD9  120A  158A  25B4  120A  158A  	fcall	_I2C_Hold
  2805  0DDE                     l1857:	
  2806  0DDE                     l139:	
  2807                           ;./PIC16F877a_I2C.h: 47:     return ACKSTAT;;	Return value of _I2C_Write is never used
  2808                           
  2809  0DDE  0008               	return
  2810  0DDF                     __end_of_I2C_Write:	
  2811                           
  2812                           	psect	text9
  2813  0D7D                     __ptext9:	
  2814 ;; *************** function _I2C_End *****************
  2815 ;; Defined at:
  2816 ;;		line 35 in file "./PIC16F877a_I2C.h"
  2817 ;; Parameters:    Size  Location     Type
  2818 ;;		None
  2819 ;; Auto vars:     Size  Location     Type
  2820 ;;		None
  2821 ;; Return value:  Size  Location     Type
  2822 ;;                  1    wreg      void 
  2823 ;; Registers used:
  2824 ;;		wreg, status,2, status,0, pclath, cstack
  2825 ;; Tracked objects:
  2826 ;;		On entry : 0/0
  2827 ;;		On exit  : 0/0
  2828 ;;		Unchanged: 0/0
  2829 ;; Data sizes:     COMMON   BANK0   BANK1   BANK3   BANK2
  2830 ;;      Params:         0       0       0       0       0
  2831 ;;      Locals:         0       0       0       0       0
  2832 ;;      Temps:          0       0       0       0       0
  2833 ;;      Totals:         0       0       0       0       0
  2834 ;;Total ram usage:        0 bytes
  2835 ;; Hardware stack levels used:    1
  2836 ;; Hardware stack levels required when called:    5
  2837 ;; This function calls:
  2838 ;;		_I2C_Hold
  2839 ;; This function is called by:
  2840 ;;		_Set_Time_Date
  2841 ;;		_Update_Current_Date_Time
  2842 ;; This function uses a non-reentrant model
  2843 ;;
  2844                           
  2845                           
  2846                           ;psect for function _I2C_End
  2847  0D7D                     _I2C_End:	
  2848  0D7D                     l1847:	
  2849                           ;incstack = 0
  2850                           ; Regs used in _I2C_End: [wreg+status,2+status,0+pclath+cstack]
  2851                           
  2852                           
  2853                           ;./PIC16F877a_I2C.h: 37:   I2C_Hold();
  2854  0D7D  120A  158A  25B4  120A  158A  	fcall	_I2C_Hold
  2855  0D82                     l1849:	
  2856                           
  2857                           ;./PIC16F877a_I2C.h: 38:   PEN = 1;
  2858  0D82  1683               	bsf	3,5	;RP0=1, select bank1
  2859  0D83  1303               	bcf	3,6	;RP1=0, select bank1
  2860  0D84  1511               	bsf	17,2	;volatile
  2861  0D85                     l136:	
  2862  0D85  0008               	return
  2863  0D86                     __end_of_I2C_End:	
  2864                           
  2865                           	psect	text10
  2866  0D74                     __ptext10:	
  2867 ;; *************** function _I2C_Begin *****************
  2868 ;; Defined at:
  2869 ;;		line 24 in file "./PIC16F877a_I2C.h"
  2870 ;; Parameters:    Size  Location     Type
  2871 ;;		None
  2872 ;; Auto vars:     Size  Location     Type
  2873 ;;		None
  2874 ;; Return value:  Size  Location     Type
  2875 ;;                  1    wreg      void 
  2876 ;; Registers used:
  2877 ;;		wreg, status,2, status,0, pclath, cstack
  2878 ;; Tracked objects:
  2879 ;;		On entry : 0/0
  2880 ;;		On exit  : 0/0
  2881 ;;		Unchanged: 0/0
  2882 ;; Data sizes:     COMMON   BANK0   BANK1   BANK3   BANK2
  2883 ;;      Params:         0       0       0       0       0
  2884 ;;      Locals:         0       0       0       0       0
  2885 ;;      Temps:          0       0       0       0       0
  2886 ;;      Totals:         0       0       0       0       0
  2887 ;;Total ram usage:        0 bytes
  2888 ;; Hardware stack levels used:    1
  2889 ;; Hardware stack levels required when called:    5
  2890 ;; This function calls:
  2891 ;;		_I2C_Hold
  2892 ;; This function is called by:
  2893 ;;		_Set_Time_Date
  2894 ;;		_Update_Current_Date_Time
  2895 ;; This function uses a non-reentrant model
  2896 ;;
  2897                           
  2898                           
  2899                           ;psect for function _I2C_Begin
  2900  0D74                     _I2C_Begin:	
  2901  0D74                     l1839:	
  2902                           ;incstack = 0
  2903                           ; Regs used in _I2C_Begin: [wreg+status,2+status,0+pclath+cstack]
  2904                           
  2905                           
  2906                           ;./PIC16F877a_I2C.h: 26:   I2C_Hold();
  2907  0D74  120A  158A  25B4  120A  158A  	fcall	_I2C_Hold
  2908  0D79                     l1841:	
  2909                           
  2910                           ;./PIC16F877a_I2C.h: 27:   SEN = 1;
  2911  0D79  1683               	bsf	3,5	;RP0=1, select bank1
  2912  0D7A  1303               	bcf	3,6	;RP1=0, select bank1
  2913  0D7B  1411               	bsf	17,0	;volatile
  2914  0D7C                     l130:	
  2915  0D7C  0008               	return
  2916  0D7D                     __end_of_I2C_Begin:	
  2917                           
  2918                           	psect	text11
  2919  0DB4                     __ptext11:	
  2920 ;; *************** function _I2C_Hold *****************
  2921 ;; Defined at:
  2922 ;;		line 19 in file "./PIC16F877a_I2C.h"
  2923 ;; Parameters:    Size  Location     Type
  2924 ;;		None
  2925 ;; Auto vars:     Size  Location     Type
  2926 ;;		None
  2927 ;; Return value:  Size  Location     Type
  2928 ;;                  1    wreg      void 
  2929 ;; Registers used:
  2930 ;;		wreg, status,2
  2931 ;; Tracked objects:
  2932 ;;		On entry : 0/0
  2933 ;;		On exit  : 0/0
  2934 ;;		Unchanged: 0/0
  2935 ;; Data sizes:     COMMON   BANK0   BANK1   BANK3   BANK2
  2936 ;;      Params:         0       0       0       0       0
  2937 ;;      Locals:         0       0       0       0       0
  2938 ;;      Temps:          0       0       0       0       0
  2939 ;;      Totals:         0       0       0       0       0
  2940 ;;Total ram usage:        0 bytes
  2941 ;; Hardware stack levels used:    1
  2942 ;; Hardware stack levels required when called:    4
  2943 ;; This function calls:
  2944 ;;		Nothing
  2945 ;; This function is called by:
  2946 ;;		_I2C_Begin
  2947 ;;		_I2C_Restart
  2948 ;;		_I2C_End
  2949 ;;		_I2C_Write
  2950 ;;		_I2C_Read
  2951 ;; This function uses a non-reentrant model
  2952 ;;
  2953                           
  2954                           
  2955                           ;psect for function _I2C_Hold
  2956  0DB4                     _I2C_Hold:	
  2957  0DB4                     l1641:	
  2958                           ;incstack = 0
  2959                           ; Regs used in _I2C_Hold: [wreg+status,2]
  2960                           
  2961  0DB4                     l1643:	
  2962                           ;./PIC16F877a_I2C.h: 21:     while ( (SSPCON2 & 0b00011111) || (SSPSTAT & 0b00000100) ) 
      +                          ;
  2963                           
  2964  0DB4  1683               	bsf	3,5	;RP0=1, select bank1
  2965  0DB5  1303               	bcf	3,6	;RP1=0, select bank1
  2966  0DB6  0811               	movf	17,w	;volatile
  2967  0DB7  391F               	andlw	31
  2968  0DB8  1D03               	btfss	3,2
  2969  0DB9  2DBB               	goto	u951
  2970  0DBA  2DBC               	goto	u950
  2971  0DBB                     u951:	
  2972  0DBB  2DB4               	goto	l1643
  2973  0DBC                     u950:	
  2974  0DBC                     l1645:	
  2975  0DBC  1914               	btfsc	20,2	;volatile
  2976  0DBD  2DBF               	goto	u961
  2977  0DBE  2DC0               	goto	u960
  2978  0DBF                     u961:	
  2979  0DBF  2DB4               	goto	l1643
  2980  0DC0                     u960:	
  2981  0DC0                     l127:	
  2982  0DC0  0008               	return
  2983  0DC1                     __end_of_I2C_Hold:	
  2984                           
  2985                           	psect	text12
  2986  0F74                     __ptext12:	
  2987 ;; *************** function _DEC_2_BCD *****************
  2988 ;; Defined at:
  2989 ;;		line 22 in file "./PIC16F877a_DS3231.h"
  2990 ;; Parameters:    Size  Location     Type
  2991 ;;  num             2   16[BANK0 ] int 
  2992 ;; Auto vars:     Size  Location     Type
  2993 ;;  data            2   20[BANK0 ] int 
  2994 ;; Return value:  Size  Location     Type
  2995 ;;                  2   16[BANK0 ] int 
  2996 ;; Registers used:
  2997 ;;		wreg, status,2, status,0, pclath, cstack
  2998 ;; Tracked objects:
  2999 ;;		On entry : 0/0
  3000 ;;		On exit  : 0/0
  3001 ;;		Unchanged: 0/0
  3002 ;; Data sizes:     COMMON   BANK0   BANK1   BANK3   BANK2
  3003 ;;      Params:         0       2       0       0       0
  3004 ;;      Locals:         0       2       0       0       0
  3005 ;;      Temps:          0       2       0       0       0
  3006 ;;      Totals:         0       6       0       0       0
  3007 ;;Total ram usage:        6 bytes
  3008 ;; Hardware stack levels used:    1
  3009 ;; Hardware stack levels required when called:    5
  3010 ;; This function calls:
  3011 ;;		___awdiv
  3012 ;;		___awmod
  3013 ;; This function is called by:
  3014 ;;		_Set_Time_Date
  3015 ;; This function uses a non-reentrant model
  3016 ;;
  3017                           
  3018                           
  3019                           ;psect for function _DEC_2_BCD
  3020  0F74                     _DEC_2_BCD:	
  3021  0F74                     l1881:	
  3022                           ;incstack = 0
  3023                           ; Regs used in _DEC_2_BCD: [wreg+status,2+status,0+pclath+cstack]
  3024                           
  3025                           
  3026                           ;./PIC16F877a_DS3231.h: 22: int DEC_2_BCD (int num);./PIC16F877a_DS3231.h: 23: {;./PIC16
      +                          F877a_DS3231.h: 24:     int data=((num/10)<<4)+(num%10);
  3027  0F74  300A               	movlw	10
  3028  0F75  1283               	bcf	3,5	;RP0=0, select bank0
  3029  0F76  1303               	bcf	3,6	;RP1=0, select bank0
  3030  0F77  00A7               	movwf	___awdiv@divisor
  3031  0F78  3000               	movlw	0
  3032  0F79  00A8               	movwf	___awdiv@divisor+1
  3033  0F7A  0831               	movf	DEC_2_BCD@num+1,w
  3034  0F7B  00AA               	movwf	___awdiv@dividend+1
  3035  0F7C  0830               	movf	DEC_2_BCD@num,w
  3036  0F7D  00A9               	movwf	___awdiv@dividend
  3037  0F7E  120A  118A  250B  120A  158A  	fcall	___awdiv
  3038  0F83  1283               	bcf	3,5	;RP0=0, select bank0
  3039  0F84  1303               	bcf	3,6	;RP1=0, select bank0
  3040  0F85  0827               	movf	?___awdiv,w
  3041  0F86  00B2               	movwf	??_DEC_2_BCD
  3042  0F87  0828               	movf	?___awdiv+1,w
  3043  0F88  00B3               	movwf	??_DEC_2_BCD+1
  3044  0F89  0EB2               	swapf	??_DEC_2_BCD,f
  3045  0F8A  0EB3               	swapf	??_DEC_2_BCD+1,f
  3046  0F8B  30F0               	movlw	240
  3047  0F8C  05B3               	andwf	??_DEC_2_BCD+1,f
  3048  0F8D  0832               	movf	??_DEC_2_BCD,w
  3049  0F8E  390F               	andlw	15
  3050  0F8F  04B3               	iorwf	??_DEC_2_BCD+1,f
  3051  0F90  30F0               	movlw	240
  3052  0F91  05B2               	andwf	??_DEC_2_BCD,f
  3053  0F92  300A               	movlw	10
  3054  0F93  00A7               	movwf	___awmod@divisor
  3055  0F94  3000               	movlw	0
  3056  0F95  00A8               	movwf	___awmod@divisor+1
  3057  0F96  0831               	movf	DEC_2_BCD@num+1,w
  3058  0F97  00AA               	movwf	___awmod@dividend+1
  3059  0F98  0830               	movf	DEC_2_BCD@num,w
  3060  0F99  00A9               	movwf	___awmod@dividend
  3061  0F9A  120A  118A  26A6  120A  158A  	fcall	___awmod
  3062  0F9F  1283               	bcf	3,5	;RP0=0, select bank0
  3063  0FA0  1303               	bcf	3,6	;RP1=0, select bank0
  3064  0FA1  0827               	movf	?___awmod,w
  3065  0FA2  0732               	addwf	??_DEC_2_BCD,w
  3066  0FA3  00B4               	movwf	DEC_2_BCD@data
  3067  0FA4  0828               	movf	?___awmod+1,w
  3068  0FA5  1803               	skipnc
  3069  0FA6  0A28               	incf	?___awmod+1,w
  3070  0FA7  0733               	addwf	??_DEC_2_BCD+1,w
  3071  0FA8  00B5               	movwf	DEC_2_BCD@data+1
  3072  0FA9                     l1883:	
  3073                           
  3074                           ;./PIC16F877a_DS3231.h: 25:     return data;
  3075  0FA9  0835               	movf	DEC_2_BCD@data+1,w
  3076  0FAA  00B1               	movwf	?_DEC_2_BCD+1
  3077  0FAB  0834               	movf	DEC_2_BCD@data,w
  3078  0FAC  00B0               	movwf	?_DEC_2_BCD
  3079  0FAD                     l154:	
  3080  0FAD  0008               	return
  3081  0FAE                     __end_of_DEC_2_BCD:	
  3082                           
  3083                           	psect	text13
  3084  07B1                     __ptext13:	
  3085 ;; *************** function _LCDWRITE *****************
  3086 ;; Defined at:
  3087 ;;		line 76 in file "./LCDLIBRARY1.h"
  3088 ;; Parameters:    Size  Location     Type
  3089 ;;  P               1    wreg     PTR const unsigned char 
  3090 ;;		 -> STR_3(2), STR_2(2), STR_1(15), 
  3091 ;; Auto vars:     Size  Location     Type
  3092 ;;  P               1   14[BANK0 ] PTR const unsigned char 
  3093 ;;		 -> STR_3(2), STR_2(2), STR_1(15), 
  3094 ;;  i               1   13[BANK0 ] unsigned char 
  3095 ;;  k               1   12[BANK0 ] unsigned char 
  3096 ;;  j               1   11[BANK0 ] unsigned char 
  3097 ;; Return value:  Size  Location     Type
  3098 ;;                  1    wreg      void 
  3099 ;; Registers used:
  3100 ;;		wreg, fsr0l, fsr0h, status,2, status,0, pclath, cstack
  3101 ;; Tracked objects:
  3102 ;;		On entry : 0/0
  3103 ;;		On exit  : 0/0
  3104 ;;		Unchanged: 0/0
  3105 ;; Data sizes:     COMMON   BANK0   BANK1   BANK3   BANK2
  3106 ;;      Params:         0       0       0       0       0
  3107 ;;      Locals:         0       4       0       0       0
  3108 ;;      Temps:          0       2       0       0       0
  3109 ;;      Totals:         0       6       0       0       0
  3110 ;;Total ram usage:        6 bytes
  3111 ;; Hardware stack levels used:    1
  3112 ;; Hardware stack levels required when called:    6
  3113 ;; This function calls:
  3114 ;;		_CLOCK
  3115 ;; This function is called by:
  3116 ;;		_main
  3117 ;; This function uses a non-reentrant model
  3118 ;;
  3119                           
  3120                           
  3121                           ;psect for function _LCDWRITE
  3122  07B1                     _LCDWRITE:	
  3123                           
  3124                           ;incstack = 0
  3125                           ; Regs used in _LCDWRITE: [wreg-fsr0h+status,2+status,0+pclath+cstack]
  3126                           ;LCDWRITE@P stored from wreg
  3127  07B1  1283               	bcf	3,5	;RP0=0, select bank0
  3128  07B2  1303               	bcf	3,6	;RP1=0, select bank0
  3129  07B3  00AE               	movwf	LCDWRITE@P
  3130  07B4                     l1975:	
  3131                           
  3132                           ;./LCDLIBRARY1.h: 76: void LCDWRITE( const char* P);./LCDLIBRARY1.h: 77: {;./LCDLIBRARY1
      +                          .h: 78:     unsigned char i ,j,k;;./LCDLIBRARY1.h: 79:     for(i=0; P[i]!='\0'; i++)
  3133  07B4  01AD               	clrf	LCDWRITE@i
  3134  07B5  2FF1               	goto	l1991
  3135  07B6                     l1977:	
  3136                           
  3137                           ;./LCDLIBRARY1.h: 80:     {;./LCDLIBRARY1.h: 81:         k = (0x0f & (P[i] >> 4)) ;
  3138  07B6  082D               	movf	LCDWRITE@i,w
  3139  07B7  072E               	addwf	LCDWRITE@P,w
  3140  07B8  0084               	movwf	4
  3141  07B9  120A  118A  2643  120A  118A  	fcall	stringdir
  3142  07BE  00A9               	movwf	??_LCDWRITE
  3143  07BF  3004               	movlw	4
  3144  07C0                     u1535:	
  3145  07C0  1003               	clrc
  3146  07C1  0CA9               	rrf	??_LCDWRITE,f
  3147  07C2  3EFF               	addlw	-1
  3148  07C3  1D03               	skipz
  3149  07C4  2FC0               	goto	u1535
  3150  07C5  0829               	movf	??_LCDWRITE,w
  3151  07C6  390F               	andlw	15
  3152  07C7  00AA               	movwf	??_LCDWRITE+1
  3153  07C8  082A               	movf	??_LCDWRITE+1,w
  3154  07C9  00AC               	movwf	LCDWRITE@k
  3155                           
  3156                           ;./LCDLIBRARY1.h: 82:         j = ( 0x0f & P[i] );
  3157  07CA  082D               	movf	LCDWRITE@i,w
  3158  07CB  072E               	addwf	LCDWRITE@P,w
  3159  07CC  0084               	movwf	4
  3160  07CD  120A  118A  2643  120A  118A  	fcall	stringdir
  3161  07D2  390F               	andlw	15
  3162  07D3  00A9               	movwf	??_LCDWRITE
  3163  07D4  0829               	movf	??_LCDWRITE,w
  3164  07D5  00AB               	movwf	LCDWRITE@j
  3165  07D6                     l1979:	
  3166                           
  3167                           ;./LCDLIBRARY1.h: 83:         PORTBbits.RB4 =1;
  3168  07D6  1606               	bsf	6,4	;volatile
  3169  07D7                     l1981:	
  3170                           
  3171                           ;./LCDLIBRARY1.h: 85:         PORTB = k | PORTB & 0xf0 ;
  3172  07D7  0806               	movf	6,w	;volatile
  3173  07D8  39F0               	andlw	240
  3174  07D9  042C               	iorwf	LCDWRITE@k,w
  3175  07DA  0086               	movwf	6	;volatile
  3176  07DB                     l1983:	
  3177                           
  3178                           ;./LCDLIBRARY1.h: 86:         CLOCK();
  3179  07DB  120A  158A  25DF  120A  118A  	fcall	_CLOCK
  3180  07E0                     l1985:	
  3181                           
  3182                           ;./LCDLIBRARY1.h: 87:         PORTB = j | PORTB & 0xf0 ;
  3183  07E0  1283               	bcf	3,5	;RP0=0, select bank0
  3184  07E1  1303               	bcf	3,6	;RP1=0, select bank0
  3185  07E2  0806               	movf	6,w	;volatile
  3186  07E3  39F0               	andlw	240
  3187  07E4  042B               	iorwf	LCDWRITE@j,w
  3188  07E5  0086               	movwf	6	;volatile
  3189  07E6                     l1987:	
  3190                           
  3191                           ;./LCDLIBRARY1.h: 88:         CLOCK();
  3192  07E6  120A  158A  25DF  120A  118A  	fcall	_CLOCK
  3193  07EB                     l1989:	
  3194                           
  3195                           ;./LCDLIBRARY1.h: 89:     }
  3196  07EB  3001               	movlw	1
  3197  07EC  1283               	bcf	3,5	;RP0=0, select bank0
  3198  07ED  1303               	bcf	3,6	;RP1=0, select bank0
  3199  07EE  00A9               	movwf	??_LCDWRITE
  3200  07EF  0829               	movf	??_LCDWRITE,w
  3201  07F0  07AD               	addwf	LCDWRITE@i,f
  3202  07F1                     l1991:	
  3203  07F1  082D               	movf	LCDWRITE@i,w
  3204  07F2  072E               	addwf	LCDWRITE@P,w
  3205  07F3  0084               	movwf	4
  3206  07F4  120A  118A  2643  120A  118A  	fcall	stringdir
  3207  07F9  3A00               	xorlw	0
  3208  07FA  1D03               	skipz
  3209  07FB  2FFD               	goto	u1541
  3210  07FC  2FFE               	goto	u1540
  3211  07FD                     u1541:	
  3212  07FD  2FB6               	goto	l1977
  3213  07FE                     u1540:	
  3214  07FE                     l187:	
  3215  07FE  0008               	return
  3216  07FF                     __end_of_LCDWRITE:	
  3217                           
  3218                           	psect	text14
  3219  0FAE                     __ptext14:	
  3220 ;; *************** function _LCDNUM *****************
  3221 ;; Defined at:
  3222 ;;		line 65 in file "./LCDLIBRARY1.h"
  3223 ;; Parameters:    Size  Location     Type
  3224 ;;  number          2   16[BANK0 ] int 
  3225 ;; Auto vars:     Size  Location     Type
  3226 ;;  u               1   20[BANK0 ] unsigned char 
  3227 ;;  t               1   19[BANK0 ] unsigned char 
  3228 ;; Return value:  Size  Location     Type
  3229 ;;                  1    wreg      void 
  3230 ;; Registers used:
  3231 ;;		wreg, status,2, status,0, btemp+1, pclath, cstack
  3232 ;; Tracked objects:
  3233 ;;		On entry : 0/0
  3234 ;;		On exit  : 0/0
  3235 ;;		Unchanged: 0/0
  3236 ;; Data sizes:     COMMON   BANK0   BANK1   BANK3   BANK2
  3237 ;;      Params:         0       2       0       0       0
  3238 ;;      Locals:         0       2       0       0       0
  3239 ;;      Temps:          0       1       0       0       0
  3240 ;;      Totals:         0       5       0       0       0
  3241 ;;Total ram usage:        5 bytes
  3242 ;; Hardware stack levels used:    1
  3243 ;; Hardware stack levels required when called:    7
  3244 ;; This function calls:
  3245 ;;		_LCDCHAR
  3246 ;;		___awdiv
  3247 ;;		___awmod
  3248 ;; This function is called by:
  3249 ;;		_main
  3250 ;; This function uses a non-reentrant model
  3251 ;;
  3252                           
  3253                           
  3254                           ;psect for function _LCDNUM
  3255  0FAE                     _LCDNUM:	
  3256  0FAE                     l1969:	
  3257                           ;incstack = 0
  3258                           ; Regs used in _LCDNUM: [wreg+status,2+status,0+btemp+1+pclath+cstack]
  3259                           
  3260                           
  3261                           ;./LCDLIBRARY1.h: 66:     if(number>9){
  3262  0FAE  1283               	bcf	3,5	;RP0=0, select bank0
  3263  0FAF  1303               	bcf	3,6	;RP1=0, select bank0
  3264  0FB0  0831               	movf	LCDNUM@number+1,w
  3265  0FB1  3A80               	xorlw	128
  3266  0FB2  00FF               	movwf	btemp+1
  3267  0FB3  3080               	movlw	128
  3268  0FB4  027F               	subwf	btemp+1,w
  3269  0FB5  1D03               	skipz
  3270  0FB6  2FB9               	goto	u1525
  3271  0FB7  300A               	movlw	10
  3272  0FB8  0230               	subwf	LCDNUM@number,w
  3273  0FB9                     u1525:	
  3274  0FB9  1C03               	skipc
  3275  0FBA  2FBC               	goto	u1521
  3276  0FBB  2FBD               	goto	u1520
  3277  0FBC                     u1521:	
  3278  0FBC  2FF6               	goto	l1973
  3279  0FBD                     u1520:	
  3280  0FBD                     l1971:	
  3281                           
  3282                           ;./LCDLIBRARY1.h: 67:         unsigned char t=48+(number/10);
  3283  0FBD  300A               	movlw	10
  3284  0FBE  1283               	bcf	3,5	;RP0=0, select bank0
  3285  0FBF  1303               	bcf	3,6	;RP1=0, select bank0
  3286  0FC0  00A7               	movwf	___awdiv@divisor
  3287  0FC1  3000               	movlw	0
  3288  0FC2  00A8               	movwf	___awdiv@divisor+1
  3289  0FC3  0831               	movf	LCDNUM@number+1,w
  3290  0FC4  00AA               	movwf	___awdiv@dividend+1
  3291  0FC5  0830               	movf	LCDNUM@number,w
  3292  0FC6  00A9               	movwf	___awdiv@dividend
  3293  0FC7  120A  118A  250B  120A  158A  	fcall	___awdiv
  3294  0FCC  1283               	bcf	3,5	;RP0=0, select bank0
  3295  0FCD  1303               	bcf	3,6	;RP1=0, select bank0
  3296  0FCE  0827               	movf	?___awdiv,w
  3297  0FCF  3E30               	addlw	48
  3298  0FD0  00B2               	movwf	??_LCDNUM
  3299  0FD1  0832               	movf	??_LCDNUM,w
  3300  0FD2  00B3               	movwf	LCDNUM@t
  3301                           
  3302                           ;./LCDLIBRARY1.h: 68:         unsigned char u=48+(number%10);
  3303  0FD3  300A               	movlw	10
  3304  0FD4  00A7               	movwf	___awmod@divisor
  3305  0FD5  3000               	movlw	0
  3306  0FD6  00A8               	movwf	___awmod@divisor+1
  3307  0FD7  0831               	movf	LCDNUM@number+1,w
  3308  0FD8  00AA               	movwf	___awmod@dividend+1
  3309  0FD9  0830               	movf	LCDNUM@number,w
  3310  0FDA  00A9               	movwf	___awmod@dividend
  3311  0FDB  120A  118A  26A6  120A  158A  	fcall	___awmod
  3312  0FE0  1283               	bcf	3,5	;RP0=0, select bank0
  3313  0FE1  1303               	bcf	3,6	;RP1=0, select bank0
  3314  0FE2  0827               	movf	?___awmod,w
  3315  0FE3  3E30               	addlw	48
  3316  0FE4  00B2               	movwf	??_LCDNUM
  3317  0FE5  0832               	movf	??_LCDNUM,w
  3318  0FE6  00B4               	movwf	LCDNUM@u
  3319                           
  3320                           ;./LCDLIBRARY1.h: 69:         LCDCHAR(t);
  3321  0FE7  0833               	movf	LCDNUM@t,w
  3322  0FE8  120A  158A  267D  120A  158A  	fcall	_LCDCHAR
  3323                           
  3324                           ;./LCDLIBRARY1.h: 70:         LCDCHAR(u);
  3325  0FED  1283               	bcf	3,5	;RP0=0, select bank0
  3326  0FEE  1303               	bcf	3,6	;RP1=0, select bank0
  3327  0FEF  0834               	movf	LCDNUM@u,w
  3328  0FF0  120A  158A  267D  120A  158A  	fcall	_LCDCHAR
  3329                           
  3330                           ;./LCDLIBRARY1.h: 71:     }else{
  3331  0FF5  2FFF               	goto	l181
  3332  0FF6                     l1973:	
  3333                           
  3334                           ;./LCDLIBRARY1.h: 72:         LCDCHAR(number+48);
  3335  0FF6  1283               	bcf	3,5	;RP0=0, select bank0
  3336  0FF7  1303               	bcf	3,6	;RP1=0, select bank0
  3337  0FF8  0830               	movf	LCDNUM@number,w
  3338  0FF9  3E30               	addlw	48
  3339  0FFA  120A  158A  267D  120A  158A  	fcall	_LCDCHAR
  3340  0FFF                     l181:	
  3341  0FFF  0008               	return
  3342  1000                     __end_of_LCDNUM:	
  3343                           
  3344                           	psect	text15
  3345  06A6                     __ptext15:	
  3346 ;; *************** function ___awmod *****************
  3347 ;; Defined at:
  3348 ;;		line 5 in file "C:\Program Files (x86)\Microchip\xc8\v2.10\pic\sources\c90\common\awmod.c"
  3349 ;; Parameters:    Size  Location     Type
  3350 ;;  divisor         2    7[BANK0 ] int 
  3351 ;;  dividend        2    9[BANK0 ] int 
  3352 ;; Auto vars:     Size  Location     Type
  3353 ;;  sign            1   13[BANK0 ] unsigned char 
  3354 ;;  counter         1   12[BANK0 ] unsigned char 
  3355 ;; Return value:  Size  Location     Type
  3356 ;;                  2    7[BANK0 ] int 
  3357 ;; Registers used:
  3358 ;;		wreg, status,2, status,0
  3359 ;; Tracked objects:
  3360 ;;		On entry : 0/0
  3361 ;;		On exit  : 0/0
  3362 ;;		Unchanged: 0/0
  3363 ;; Data sizes:     COMMON   BANK0   BANK1   BANK3   BANK2
  3364 ;;      Params:         0       4       0       0       0
  3365 ;;      Locals:         0       2       0       0       0
  3366 ;;      Temps:          0       1       0       0       0
  3367 ;;      Totals:         0       7       0       0       0
  3368 ;;Total ram usage:        7 bytes
  3369 ;; Hardware stack levels used:    1
  3370 ;; Hardware stack levels required when called:    4
  3371 ;; This function calls:
  3372 ;;		Nothing
  3373 ;; This function is called by:
  3374 ;;		_DEC_2_BCD
  3375 ;;		_LCDNUM
  3376 ;; This function uses a non-reentrant model
  3377 ;;
  3378                           
  3379                           
  3380                           ;psect for function ___awmod
  3381  06A6                     ___awmod:	
  3382  06A6                     l1713:	
  3383                           ;incstack = 0
  3384                           ; Regs used in ___awmod: [wreg+status,2+status,0]
  3385                           
  3386  06A6  1283               	bcf	3,5	;RP0=0, select bank0
  3387  06A7  1303               	bcf	3,6	;RP1=0, select bank0
  3388  06A8  01AD               	clrf	___awmod@sign
  3389  06A9                     l1715:	
  3390  06A9  1FAA               	btfss	___awmod@dividend+1,7
  3391  06AA  2EAC               	goto	u1111
  3392  06AB  2EAD               	goto	u1110
  3393  06AC                     u1111:	
  3394  06AC  2EB4               	goto	l1721
  3395  06AD                     u1110:	
  3396  06AD                     l1717:	
  3397  06AD  09A9               	comf	___awmod@dividend,f
  3398  06AE  09AA               	comf	___awmod@dividend+1,f
  3399  06AF  0AA9               	incf	___awmod@dividend,f
  3400  06B0  1903               	skipnz
  3401  06B1  0AAA               	incf	___awmod@dividend+1,f
  3402  06B2                     l1719:	
  3403  06B2  01AD               	clrf	___awmod@sign
  3404  06B3  0AAD               	incf	___awmod@sign,f
  3405  06B4                     l1721:	
  3406  06B4  1FA8               	btfss	___awmod@divisor+1,7
  3407  06B5  2EB7               	goto	u1121
  3408  06B6  2EB8               	goto	u1120
  3409  06B7                     u1121:	
  3410  06B7  2EBD               	goto	l1725
  3411  06B8                     u1120:	
  3412  06B8                     l1723:	
  3413  06B8  09A7               	comf	___awmod@divisor,f
  3414  06B9  09A8               	comf	___awmod@divisor+1,f
  3415  06BA  0AA7               	incf	___awmod@divisor,f
  3416  06BB  1903               	skipnz
  3417  06BC  0AA8               	incf	___awmod@divisor+1,f
  3418  06BD                     l1725:	
  3419  06BD  0827               	movf	___awmod@divisor,w
  3420  06BE  0428               	iorwf	___awmod@divisor+1,w
  3421  06BF  1903               	btfsc	3,2
  3422  06C0  2EC2               	goto	u1131
  3423  06C1  2EC3               	goto	u1130
  3424  06C2                     u1131:	
  3425  06C2  2EF2               	goto	l1743
  3426  06C3                     u1130:	
  3427  06C3                     l1727:	
  3428  06C3  01AC               	clrf	___awmod@counter
  3429  06C4  0AAC               	incf	___awmod@counter,f
  3430  06C5  2ED1               	goto	l1733
  3431  06C6                     l1729:	
  3432  06C6  3001               	movlw	1
  3433  06C7                     u1145:	
  3434  06C7  1003               	clrc
  3435  06C8  0DA7               	rlf	___awmod@divisor,f
  3436  06C9  0DA8               	rlf	___awmod@divisor+1,f
  3437  06CA  3EFF               	addlw	-1
  3438  06CB  1D03               	skipz
  3439  06CC  2EC7               	goto	u1145
  3440  06CD                     l1731:	
  3441  06CD  3001               	movlw	1
  3442  06CE  00AB               	movwf	??___awmod
  3443  06CF  082B               	movf	??___awmod,w
  3444  06D0  07AC               	addwf	___awmod@counter,f
  3445  06D1                     l1733:	
  3446  06D1  1FA8               	btfss	___awmod@divisor+1,7
  3447  06D2  2ED4               	goto	u1151
  3448  06D3  2ED5               	goto	u1150
  3449  06D4                     u1151:	
  3450  06D4  2EC6               	goto	l1729
  3451  06D5                     u1150:	
  3452  06D5                     l1735:	
  3453  06D5  0828               	movf	___awmod@divisor+1,w
  3454  06D6  022A               	subwf	___awmod@dividend+1,w
  3455  06D7  1D03               	skipz
  3456  06D8  2EDB               	goto	u1165
  3457  06D9  0827               	movf	___awmod@divisor,w
  3458  06DA  0229               	subwf	___awmod@dividend,w
  3459  06DB                     u1165:	
  3460  06DB  1C03               	skipc
  3461  06DC  2EDE               	goto	u1161
  3462  06DD  2EDF               	goto	u1160
  3463  06DE                     u1161:	
  3464  06DE  2EE5               	goto	l1739
  3465  06DF                     u1160:	
  3466  06DF                     l1737:	
  3467  06DF  0827               	movf	___awmod@divisor,w
  3468  06E0  02A9               	subwf	___awmod@dividend,f
  3469  06E1  0828               	movf	___awmod@divisor+1,w
  3470  06E2  1C03               	skipc
  3471  06E3  03AA               	decf	___awmod@dividend+1,f
  3472  06E4  02AA               	subwf	___awmod@dividend+1,f
  3473  06E5                     l1739:	
  3474  06E5  3001               	movlw	1
  3475  06E6                     u1175:	
  3476  06E6  1003               	clrc
  3477  06E7  0CA8               	rrf	___awmod@divisor+1,f
  3478  06E8  0CA7               	rrf	___awmod@divisor,f
  3479  06E9  3EFF               	addlw	-1
  3480  06EA  1D03               	skipz
  3481  06EB  2EE6               	goto	u1175
  3482  06EC                     l1741:	
  3483  06EC  3001               	movlw	1
  3484  06ED  02AC               	subwf	___awmod@counter,f
  3485  06EE  1D03               	btfss	3,2
  3486  06EF  2EF1               	goto	u1181
  3487  06F0  2EF2               	goto	u1180
  3488  06F1                     u1181:	
  3489  06F1  2ED5               	goto	l1735
  3490  06F2                     u1180:	
  3491  06F2                     l1743:	
  3492  06F2  082D               	movf	___awmod@sign,w
  3493  06F3  1903               	btfsc	3,2
  3494  06F4  2EF6               	goto	u1191
  3495  06F5  2EF7               	goto	u1190
  3496  06F6                     u1191:	
  3497  06F6  2EFC               	goto	l1747
  3498  06F7                     u1190:	
  3499  06F7                     l1745:	
  3500  06F7  09A9               	comf	___awmod@dividend,f
  3501  06F8  09AA               	comf	___awmod@dividend+1,f
  3502  06F9  0AA9               	incf	___awmod@dividend,f
  3503  06FA  1903               	skipnz
  3504  06FB  0AAA               	incf	___awmod@dividend+1,f
  3505  06FC                     l1747:	
  3506  06FC  082A               	movf	___awmod@dividend+1,w
  3507  06FD  00A8               	movwf	?___awmod+1
  3508  06FE  0829               	movf	___awmod@dividend,w
  3509  06FF  00A7               	movwf	?___awmod
  3510  0700                     l540:	
  3511  0700  0008               	return
  3512  0701                     __end_of___awmod:	
  3513                           
  3514                           	psect	text16
  3515  050B                     __ptext16:	
  3516 ;; *************** function ___awdiv *****************
  3517 ;; Defined at:
  3518 ;;		line 5 in file "C:\Program Files (x86)\Microchip\xc8\v2.10\pic\sources\c90\common\awdiv.c"
  3519 ;; Parameters:    Size  Location     Type
  3520 ;;  divisor         2    7[BANK0 ] int 
  3521 ;;  dividend        2    9[BANK0 ] int 
  3522 ;; Auto vars:     Size  Location     Type
  3523 ;;  quotient        2   14[BANK0 ] int 
  3524 ;;  sign            1   13[BANK0 ] unsigned char 
  3525 ;;  counter         1   12[BANK0 ] unsigned char 
  3526 ;; Return value:  Size  Location     Type
  3527 ;;                  2    7[BANK0 ] int 
  3528 ;; Registers used:
  3529 ;;		wreg, status,2, status,0
  3530 ;; Tracked objects:
  3531 ;;		On entry : 0/0
  3532 ;;		On exit  : 0/0
  3533 ;;		Unchanged: 0/0
  3534 ;; Data sizes:     COMMON   BANK0   BANK1   BANK3   BANK2
  3535 ;;      Params:         0       4       0       0       0
  3536 ;;      Locals:         0       4       0       0       0
  3537 ;;      Temps:          0       1       0       0       0
  3538 ;;      Totals:         0       9       0       0       0
  3539 ;;Total ram usage:        9 bytes
  3540 ;; Hardware stack levels used:    1
  3541 ;; Hardware stack levels required when called:    4
  3542 ;; This function calls:
  3543 ;;		Nothing
  3544 ;; This function is called by:
  3545 ;;		_DEC_2_BCD
  3546 ;;		_LCDNUM
  3547 ;; This function uses a non-reentrant model
  3548 ;;
  3549                           
  3550                           
  3551                           ;psect for function ___awdiv
  3552  050B                     ___awdiv:	
  3553  050B                     l1669:	
  3554                           ;incstack = 0
  3555                           ; Regs used in ___awdiv: [wreg+status,2+status,0]
  3556                           
  3557  050B  1283               	bcf	3,5	;RP0=0, select bank0
  3558  050C  1303               	bcf	3,6	;RP1=0, select bank0
  3559  050D  01AD               	clrf	___awdiv@sign
  3560  050E                     l1671:	
  3561  050E  1FA8               	btfss	___awdiv@divisor+1,7
  3562  050F  2D11               	goto	u1011
  3563  0510  2D12               	goto	u1010
  3564  0511                     u1011:	
  3565  0511  2D19               	goto	l1677
  3566  0512                     u1010:	
  3567  0512                     l1673:	
  3568  0512  09A7               	comf	___awdiv@divisor,f
  3569  0513  09A8               	comf	___awdiv@divisor+1,f
  3570  0514  0AA7               	incf	___awdiv@divisor,f
  3571  0515  1903               	skipnz
  3572  0516  0AA8               	incf	___awdiv@divisor+1,f
  3573  0517                     l1675:	
  3574  0517  01AD               	clrf	___awdiv@sign
  3575  0518  0AAD               	incf	___awdiv@sign,f
  3576  0519                     l1677:	
  3577  0519  1FAA               	btfss	___awdiv@dividend+1,7
  3578  051A  2D1C               	goto	u1021
  3579  051B  2D1D               	goto	u1020
  3580  051C                     u1021:	
  3581  051C  2D26               	goto	l1683
  3582  051D                     u1020:	
  3583  051D                     l1679:	
  3584  051D  09A9               	comf	___awdiv@dividend,f
  3585  051E  09AA               	comf	___awdiv@dividend+1,f
  3586  051F  0AA9               	incf	___awdiv@dividend,f
  3587  0520  1903               	skipnz
  3588  0521  0AAA               	incf	___awdiv@dividend+1,f
  3589  0522                     l1681:	
  3590  0522  3001               	movlw	1
  3591  0523  00AB               	movwf	??___awdiv
  3592  0524  082B               	movf	??___awdiv,w
  3593  0525  06AD               	xorwf	___awdiv@sign,f
  3594  0526                     l1683:	
  3595  0526  01AE               	clrf	___awdiv@quotient
  3596  0527  01AF               	clrf	___awdiv@quotient+1
  3597  0528                     l1685:	
  3598  0528  0827               	movf	___awdiv@divisor,w
  3599  0529  0428               	iorwf	___awdiv@divisor+1,w
  3600  052A  1903               	btfsc	3,2
  3601  052B  2D2D               	goto	u1031
  3602  052C  2D2E               	goto	u1030
  3603  052D                     u1031:	
  3604  052D  2D65               	goto	l1705
  3605  052E                     u1030:	
  3606  052E                     l1687:	
  3607  052E  01AC               	clrf	___awdiv@counter
  3608  052F  0AAC               	incf	___awdiv@counter,f
  3609  0530  2D3C               	goto	l1693
  3610  0531                     l1689:	
  3611  0531  3001               	movlw	1
  3612  0532                     u1045:	
  3613  0532  1003               	clrc
  3614  0533  0DA7               	rlf	___awdiv@divisor,f
  3615  0534  0DA8               	rlf	___awdiv@divisor+1,f
  3616  0535  3EFF               	addlw	-1
  3617  0536  1D03               	skipz
  3618  0537  2D32               	goto	u1045
  3619  0538                     l1691:	
  3620  0538  3001               	movlw	1
  3621  0539  00AB               	movwf	??___awdiv
  3622  053A  082B               	movf	??___awdiv,w
  3623  053B  07AC               	addwf	___awdiv@counter,f
  3624  053C                     l1693:	
  3625  053C  1FA8               	btfss	___awdiv@divisor+1,7
  3626  053D  2D3F               	goto	u1051
  3627  053E  2D40               	goto	u1050
  3628  053F                     u1051:	
  3629  053F  2D31               	goto	l1689
  3630  0540                     u1050:	
  3631  0540                     l1695:	
  3632  0540  3001               	movlw	1
  3633  0541                     u1065:	
  3634  0541  1003               	clrc
  3635  0542  0DAE               	rlf	___awdiv@quotient,f
  3636  0543  0DAF               	rlf	___awdiv@quotient+1,f
  3637  0544  3EFF               	addlw	-1
  3638  0545  1D03               	skipz
  3639  0546  2D41               	goto	u1065
  3640  0547  0828               	movf	___awdiv@divisor+1,w
  3641  0548  022A               	subwf	___awdiv@dividend+1,w
  3642  0549  1D03               	skipz
  3643  054A  2D4D               	goto	u1075
  3644  054B  0827               	movf	___awdiv@divisor,w
  3645  054C  0229               	subwf	___awdiv@dividend,w
  3646  054D                     u1075:	
  3647  054D  1C03               	skipc
  3648  054E  2D50               	goto	u1071
  3649  054F  2D51               	goto	u1070
  3650  0550                     u1071:	
  3651  0550  2D58               	goto	l1701
  3652  0551                     u1070:	
  3653  0551                     l1697:	
  3654  0551  0827               	movf	___awdiv@divisor,w
  3655  0552  02A9               	subwf	___awdiv@dividend,f
  3656  0553  0828               	movf	___awdiv@divisor+1,w
  3657  0554  1C03               	skipc
  3658  0555  03AA               	decf	___awdiv@dividend+1,f
  3659  0556  02AA               	subwf	___awdiv@dividend+1,f
  3660  0557                     l1699:	
  3661  0557  142E               	bsf	___awdiv@quotient,0
  3662  0558                     l1701:	
  3663  0558  3001               	movlw	1
  3664  0559                     u1085:	
  3665  0559  1003               	clrc
  3666  055A  0CA8               	rrf	___awdiv@divisor+1,f
  3667  055B  0CA7               	rrf	___awdiv@divisor,f
  3668  055C  3EFF               	addlw	-1
  3669  055D  1D03               	skipz
  3670  055E  2D59               	goto	u1085
  3671  055F                     l1703:	
  3672  055F  3001               	movlw	1
  3673  0560  02AC               	subwf	___awdiv@counter,f
  3674  0561  1D03               	btfss	3,2
  3675  0562  2D64               	goto	u1091
  3676  0563  2D65               	goto	u1090
  3677  0564                     u1091:	
  3678  0564  2D40               	goto	l1695
  3679  0565                     u1090:	
  3680  0565                     l1705:	
  3681  0565  082D               	movf	___awdiv@sign,w
  3682  0566  1903               	btfsc	3,2
  3683  0567  2D69               	goto	u1101
  3684  0568  2D6A               	goto	u1100
  3685  0569                     u1101:	
  3686  0569  2D6F               	goto	l1709
  3687  056A                     u1100:	
  3688  056A                     l1707:	
  3689  056A  09AE               	comf	___awdiv@quotient,f
  3690  056B  09AF               	comf	___awdiv@quotient+1,f
  3691  056C  0AAE               	incf	___awdiv@quotient,f
  3692  056D  1903               	skipnz
  3693  056E  0AAF               	incf	___awdiv@quotient+1,f
  3694  056F                     l1709:	
  3695  056F  082F               	movf	___awdiv@quotient+1,w
  3696  0570  00A8               	movwf	?___awdiv+1
  3697  0571  082E               	movf	___awdiv@quotient,w
  3698  0572  00A7               	movwf	?___awdiv
  3699  0573                     l527:	
  3700  0573  0008               	return
  3701  0574                     __end_of___awdiv:	
  3702                           
  3703                           	psect	text17
  3704  0E7D                     __ptext17:	
  3705 ;; *************** function _LCDCHAR *****************
  3706 ;; Defined at:
  3707 ;;		line 55 in file "./LCDLIBRARY1.h"
  3708 ;; Parameters:    Size  Location     Type
  3709 ;;  character       1    wreg     unsigned char 
  3710 ;; Auto vars:     Size  Location     Type
  3711 ;;  character       1   13[BANK0 ] unsigned char 
  3712 ;;  j               1   12[BANK0 ] unsigned char 
  3713 ;;  k               1   11[BANK0 ] unsigned char 
  3714 ;; Return value:  Size  Location     Type
  3715 ;;                  1    wreg      void 
  3716 ;; Registers used:
  3717 ;;		wreg, status,2, status,0, pclath, cstack
  3718 ;; Tracked objects:
  3719 ;;		On entry : 0/0
  3720 ;;		On exit  : 0/0
  3721 ;;		Unchanged: 0/0
  3722 ;; Data sizes:     COMMON   BANK0   BANK1   BANK3   BANK2
  3723 ;;      Params:         0       0       0       0       0
  3724 ;;      Locals:         0       3       0       0       0
  3725 ;;      Temps:          0       2       0       0       0
  3726 ;;      Totals:         0       5       0       0       0
  3727 ;;Total ram usage:        5 bytes
  3728 ;; Hardware stack levels used:    1
  3729 ;; Hardware stack levels required when called:    6
  3730 ;; This function calls:
  3731 ;;		_CLOCK
  3732 ;; This function is called by:
  3733 ;;		_LCDNUM
  3734 ;; This function uses a non-reentrant model
  3735 ;;
  3736                           
  3737                           
  3738                           ;psect for function _LCDCHAR
  3739  0E7D                     _LCDCHAR:	
  3740                           
  3741                           ;incstack = 0
  3742                           ; Regs used in _LCDCHAR: [wreg+status,2+status,0+pclath+cstack]
  3743                           ;LCDCHAR@character stored from wreg
  3744  0E7D  1283               	bcf	3,5	;RP0=0, select bank0
  3745  0E7E  1303               	bcf	3,6	;RP1=0, select bank0
  3746  0E7F  00AD               	movwf	LCDCHAR@character
  3747  0E80                     l1891:	
  3748                           
  3749                           ;./LCDLIBRARY1.h: 56:     unsigned char k = (0x0f&(character>>4)) ;
  3750  0E80  082D               	movf	LCDCHAR@character,w
  3751  0E81  00A9               	movwf	??_LCDCHAR
  3752  0E82  3004               	movlw	4
  3753  0E83                     u1435:	
  3754  0E83  1003               	clrc
  3755  0E84  0CA9               	rrf	??_LCDCHAR,f
  3756  0E85  3EFF               	addlw	-1
  3757  0E86  1D03               	skipz
  3758  0E87  2E83               	goto	u1435
  3759  0E88  0829               	movf	??_LCDCHAR,w
  3760  0E89  390F               	andlw	15
  3761  0E8A  00AA               	movwf	??_LCDCHAR+1
  3762  0E8B  082A               	movf	??_LCDCHAR+1,w
  3763  0E8C  00AB               	movwf	LCDCHAR@k
  3764  0E8D                     l1893:	
  3765                           
  3766                           ;./LCDLIBRARY1.h: 57:     unsigned char j = ( 0x0f&character );
  3767  0E8D  082D               	movf	LCDCHAR@character,w
  3768  0E8E  390F               	andlw	15
  3769  0E8F  00A9               	movwf	??_LCDCHAR
  3770  0E90  0829               	movf	??_LCDCHAR,w
  3771  0E91  00AC               	movwf	LCDCHAR@j
  3772  0E92                     l1895:	
  3773                           
  3774                           ;./LCDLIBRARY1.h: 58:     PORTBbits.RB4 =1;
  3775  0E92  1606               	bsf	6,4	;volatile
  3776  0E93                     l1897:	
  3777                           
  3778                           ;./LCDLIBRARY1.h: 59:     PORTB=k|PORTB & 0xf0;
  3779  0E93  0806               	movf	6,w	;volatile
  3780  0E94  39F0               	andlw	240
  3781  0E95  042B               	iorwf	LCDCHAR@k,w
  3782  0E96  0086               	movwf	6	;volatile
  3783  0E97                     l1899:	
  3784                           
  3785                           ;./LCDLIBRARY1.h: 60:     CLOCK();
  3786  0E97  120A  158A  25DF  120A  158A  	fcall	_CLOCK
  3787  0E9C                     l1901:	
  3788                           
  3789                           ;./LCDLIBRARY1.h: 61:     PORTB=j|PORTB & 0xf0;
  3790  0E9C  1283               	bcf	3,5	;RP0=0, select bank0
  3791  0E9D  1303               	bcf	3,6	;RP1=0, select bank0
  3792  0E9E  0806               	movf	6,w	;volatile
  3793  0E9F  39F0               	andlw	240
  3794  0EA0  042C               	iorwf	LCDCHAR@j,w
  3795  0EA1  0086               	movwf	6	;volatile
  3796  0EA2                     l1903:	
  3797                           
  3798                           ;./LCDLIBRARY1.h: 62:     CLOCK();
  3799  0EA2  120A  158A  25DF  120A  158A  	fcall	_CLOCK
  3800  0EA7                     l176:	
  3801  0EA7  0008               	return
  3802  0EA8                     __end_of_LCDCHAR:	
  3803                           
  3804                           	psect	text18
  3805  0F3A                     __ptext18:	
  3806 ;; *************** function _I2C_Initialize *****************
  3807 ;; Defined at:
  3808 ;;		line 10 in file "./PIC16F877a_I2C.h"
  3809 ;; Parameters:    Size  Location     Type
  3810 ;;  feq_K           4   21[BANK0 ] const unsigned long 
  3811 ;; Auto vars:     Size  Location     Type
  3812 ;;		None
  3813 ;; Return value:  Size  Location     Type
  3814 ;;                  1    wreg      void 
  3815 ;; Registers used:
  3816 ;;		wreg, status,2, status,0, pclath, cstack
  3817 ;; Tracked objects:
  3818 ;;		On entry : 0/0
  3819 ;;		On exit  : 0/0
  3820 ;;		Unchanged: 0/0
  3821 ;; Data sizes:     COMMON   BANK0   BANK1   BANK3   BANK2
  3822 ;;      Params:         0       4       0       0       0
  3823 ;;      Locals:         0       0       0       0       0
  3824 ;;      Temps:          0       4       0       0       0
  3825 ;;      Totals:         0       8       0       0       0
  3826 ;;Total ram usage:        8 bytes
  3827 ;; Hardware stack levels used:    1
  3828 ;; Hardware stack levels required when called:    5
  3829 ;; This function calls:
  3830 ;;		___lldiv
  3831 ;; This function is called by:
  3832 ;;		_main
  3833 ;; This function uses a non-reentrant model
  3834 ;;
  3835                           
  3836                           
  3837                           ;psect for function _I2C_Initialize
  3838  0F3A                     _I2C_Initialize:	
  3839  0F3A                     l1953:	
  3840                           ;incstack = 0
  3841                           ; Regs used in _I2C_Initialize: [wreg+status,2+status,0+pclath+cstack]
  3842                           
  3843                           
  3844                           ;./PIC16F877a_I2C.h: 10: void I2C_Initialize(const unsigned long feq_K);./PIC16F877a_I2C
      +                          .h: 11: {;./PIC16F877a_I2C.h: 12:   SSPCON = 0b00101000;
  3845  0F3A  3028               	movlw	40
  3846  0F3B  1283               	bcf	3,5	;RP0=0, select bank0
  3847  0F3C  1303               	bcf	3,6	;RP1=0, select bank0
  3848  0F3D  0094               	movwf	20	;volatile
  3849  0F3E                     l1955:	
  3850                           
  3851                           ;./PIC16F877a_I2C.h: 13:   SSPCON2 = 0b00000000;
  3852  0F3E  1683               	bsf	3,5	;RP0=1, select bank1
  3853  0F3F  1303               	bcf	3,6	;RP1=0, select bank1
  3854  0F40  0191               	clrf	17	;volatile
  3855  0F41                     l1957:	
  3856                           
  3857                           ;./PIC16F877a_I2C.h: 14:   SSPSTAT = 0b00000000;
  3858  0F41  0194               	clrf	20	;volatile
  3859  0F42                     l1959:	
  3860                           
  3861                           ;./PIC16F877a_I2C.h: 15:   SSPADD = (20000000/(4*feq_K))-1;
  3862  0F42  1283               	bcf	3,5	;RP0=0, select bank0
  3863  0F43  1303               	bcf	3,6	;RP1=0, select bank0
  3864  0F44  0835               	movf	I2C_Initialize@feq_K,w
  3865  0F45  00B9               	movwf	??_I2C_Initialize
  3866  0F46  0836               	movf	I2C_Initialize@feq_K+1,w
  3867  0F47  00BA               	movwf	??_I2C_Initialize+1
  3868  0F48  0837               	movf	I2C_Initialize@feq_K+2,w
  3869  0F49  00BB               	movwf	??_I2C_Initialize+2
  3870  0F4A  0838               	movf	I2C_Initialize@feq_K+3,w
  3871  0F4B  00BC               	movwf	??_I2C_Initialize+3
  3872  0F4C  3002               	movlw	2
  3873  0F4D                     u1515:	
  3874  0F4D  1003               	clrc
  3875  0F4E  0DB9               	rlf	??_I2C_Initialize,f
  3876  0F4F  0DBA               	rlf	??_I2C_Initialize+1,f
  3877  0F50  0DBB               	rlf	??_I2C_Initialize+2,f
  3878  0F51  0DBC               	rlf	??_I2C_Initialize+3,f
  3879  0F52                     u1510:	
  3880  0F52  3EFF               	addlw	-1
  3881  0F53  1D03               	skipz
  3882  0F54  2F4D               	goto	u1515
  3883  0F55  083C               	movf	??_I2C_Initialize+3,w
  3884  0F56  00AA               	movwf	___lldiv@divisor+3
  3885  0F57  083B               	movf	??_I2C_Initialize+2,w
  3886  0F58  00A9               	movwf	___lldiv@divisor+2
  3887  0F59  083A               	movf	??_I2C_Initialize+1,w
  3888  0F5A  00A8               	movwf	___lldiv@divisor+1
  3889  0F5B  0839               	movf	??_I2C_Initialize,w
  3890  0F5C  00A7               	movwf	___lldiv@divisor
  3891  0F5D  3001               	movlw	1
  3892  0F5E  00AE               	movwf	___lldiv@dividend+3
  3893  0F5F  3031               	movlw	49
  3894  0F60  00AD               	movwf	___lldiv@dividend+2
  3895  0F61  302D               	movlw	45
  3896  0F62  00AC               	movwf	___lldiv@dividend+1
  3897  0F63  3000               	movlw	0
  3898  0F64  00AB               	movwf	___lldiv@dividend
  3899  0F65  120A  118A  2574  120A  158A  	fcall	___lldiv
  3900  0F6A  1283               	bcf	3,5	;RP0=0, select bank0
  3901  0F6B  1303               	bcf	3,6	;RP1=0, select bank0
  3902  0F6C  0827               	movf	?___lldiv,w
  3903  0F6D  3EFF               	addlw	255
  3904  0F6E  1683               	bsf	3,5	;RP0=1, select bank1
  3905  0F6F  1303               	bcf	3,6	;RP1=0, select bank1
  3906  0F70  0093               	movwf	19	;volatile
  3907  0F71                     l1961:	
  3908                           
  3909                           ;./PIC16F877a_I2C.h: 16:   TRISC3 = 1; TRISC4 = 1;
  3910  0F71  1587               	bsf	7,3	;volatile
  3911  0F72                     l1963:	
  3912  0F72  1607               	bsf	7,4	;volatile
  3913  0F73                     l121:	
  3914  0F73  0008               	return
  3915  0F74                     __end_of_I2C_Initialize:	
  3916                           
  3917                           	psect	text19
  3918  0574                     __ptext19:	
  3919 ;; *************** function ___lldiv *****************
  3920 ;; Defined at:
  3921 ;;		line 5 in file "C:\Program Files (x86)\Microchip\xc8\v2.10\pic\sources\c90\common\__lldiv.c"
  3922 ;; Parameters:    Size  Location     Type
  3923 ;;  divisor         4    7[BANK0 ] unsigned long 
  3924 ;;  dividend        4   11[BANK0 ] unsigned long 
  3925 ;; Auto vars:     Size  Location     Type
  3926 ;;  quotient        4   16[BANK0 ] unsigned long 
  3927 ;;  counter         1   20[BANK0 ] unsigned char 
  3928 ;; Return value:  Size  Location     Type
  3929 ;;                  4    7[BANK0 ] unsigned long 
  3930 ;; Registers used:
  3931 ;;		wreg, status,2, status,0
  3932 ;; Tracked objects:
  3933 ;;		On entry : 0/0
  3934 ;;		On exit  : 0/0
  3935 ;;		Unchanged: 0/0
  3936 ;; Data sizes:     COMMON   BANK0   BANK1   BANK3   BANK2
  3937 ;;      Params:         0       8       0       0       0
  3938 ;;      Locals:         0       5       0       0       0
  3939 ;;      Temps:          0       1       0       0       0
  3940 ;;      Totals:         0      14       0       0       0
  3941 ;;Total ram usage:       14 bytes
  3942 ;; Hardware stack levels used:    1
  3943 ;; Hardware stack levels required when called:    4
  3944 ;; This function calls:
  3945 ;;		Nothing
  3946 ;; This function is called by:
  3947 ;;		_I2C_Initialize
  3948 ;; This function uses a non-reentrant model
  3949 ;;
  3950                           
  3951                           
  3952                           ;psect for function ___lldiv
  3953  0574                     ___lldiv:	
  3954  0574                     l1905:	
  3955                           ;incstack = 0
  3956                           ; Regs used in ___lldiv: [wreg+status,2+status,0]
  3957                           
  3958  0574  3000               	movlw	0
  3959  0575  1283               	bcf	3,5	;RP0=0, select bank0
  3960  0576  1303               	bcf	3,6	;RP1=0, select bank0
  3961  0577  00B3               	movwf	___lldiv@quotient+3
  3962  0578  3000               	movlw	0
  3963  0579  00B2               	movwf	___lldiv@quotient+2
  3964  057A  3000               	movlw	0
  3965  057B  00B1               	movwf	___lldiv@quotient+1
  3966  057C  3000               	movlw	0
  3967  057D  00B0               	movwf	___lldiv@quotient
  3968  057E  082A               	movf	___lldiv@divisor+3,w
  3969  057F  0429               	iorwf	___lldiv@divisor+2,w
  3970  0580  0428               	iorwf	___lldiv@divisor+1,w
  3971  0581  0427               	iorwf	___lldiv@divisor,w
  3972  0582  1903               	skipnz
  3973  0583  2D85               	goto	u1441
  3974  0584  2D86               	goto	u1440
  3975  0585                     u1441:	
  3976  0585  2DD3               	goto	l1925
  3977  0586                     u1440:	
  3978  0586                     l1907:	
  3979  0586  01B4               	clrf	___lldiv@counter
  3980  0587  0AB4               	incf	___lldiv@counter,f
  3981  0588  2D96               	goto	l1911
  3982  0589                     l1909:	
  3983  0589  3001               	movlw	1
  3984  058A  00AF               	movwf	??___lldiv
  3985  058B                     u1455:	
  3986  058B  1003               	clrc
  3987  058C  0DA7               	rlf	___lldiv@divisor,f
  3988  058D  0DA8               	rlf	___lldiv@divisor+1,f
  3989  058E  0DA9               	rlf	___lldiv@divisor+2,f
  3990  058F  0DAA               	rlf	___lldiv@divisor+3,f
  3991  0590  0BAF               	decfsz	??___lldiv,f
  3992  0591  2D8B               	goto	u1455
  3993  0592  3001               	movlw	1
  3994  0593  00AF               	movwf	??___lldiv
  3995  0594  082F               	movf	??___lldiv,w
  3996  0595  07B4               	addwf	___lldiv@counter,f
  3997  0596                     l1911:	
  3998  0596  1FAA               	btfss	___lldiv@divisor+3,7
  3999  0597  2D99               	goto	u1461
  4000  0598  2D9A               	goto	u1460
  4001  0599                     u1461:	
  4002  0599  2D89               	goto	l1909
  4003  059A                     u1460:	
  4004  059A                     l1913:	
  4005  059A  3001               	movlw	1
  4006  059B  00AF               	movwf	??___lldiv
  4007  059C                     u1475:	
  4008  059C  1003               	clrc
  4009  059D  0DB0               	rlf	___lldiv@quotient,f
  4010  059E  0DB1               	rlf	___lldiv@quotient+1,f
  4011  059F  0DB2               	rlf	___lldiv@quotient+2,f
  4012  05A0  0DB3               	rlf	___lldiv@quotient+3,f
  4013  05A1  0BAF               	decfsz	??___lldiv,f
  4014  05A2  2D9C               	goto	u1475
  4015  05A3                     l1915:	
  4016  05A3  082A               	movf	___lldiv@divisor+3,w
  4017  05A4  022E               	subwf	___lldiv@dividend+3,w
  4018  05A5  1D03               	skipz
  4019  05A6  2DB1               	goto	u1485
  4020  05A7  0829               	movf	___lldiv@divisor+2,w
  4021  05A8  022D               	subwf	___lldiv@dividend+2,w
  4022  05A9  1D03               	skipz
  4023  05AA  2DB1               	goto	u1485
  4024  05AB  0828               	movf	___lldiv@divisor+1,w
  4025  05AC  022C               	subwf	___lldiv@dividend+1,w
  4026  05AD  1D03               	skipz
  4027  05AE  2DB1               	goto	u1485
  4028  05AF  0827               	movf	___lldiv@divisor,w
  4029  05B0  022B               	subwf	___lldiv@dividend,w
  4030  05B1                     u1485:	
  4031  05B1  1C03               	skipc
  4032  05B2  2DB4               	goto	u1481
  4033  05B3  2DB5               	goto	u1480
  4034  05B4                     u1481:	
  4035  05B4  2DC4               	goto	l1921
  4036  05B5                     u1480:	
  4037  05B5                     l1917:	
  4038  05B5  0827               	movf	___lldiv@divisor,w
  4039  05B6  02AB               	subwf	___lldiv@dividend,f
  4040  05B7  0828               	movf	___lldiv@divisor+1,w
  4041  05B8  1C03               	skipc
  4042  05B9  0F28               	incfsz	___lldiv@divisor+1,w
  4043  05BA  02AC               	subwf	___lldiv@dividend+1,f
  4044  05BB  0829               	movf	___lldiv@divisor+2,w
  4045  05BC  1C03               	skipc
  4046  05BD  0F29               	incfsz	___lldiv@divisor+2,w
  4047  05BE  02AD               	subwf	___lldiv@dividend+2,f
  4048  05BF  082A               	movf	___lldiv@divisor+3,w
  4049  05C0  1C03               	skipc
  4050  05C1  0F2A               	incfsz	___lldiv@divisor+3,w
  4051  05C2  02AE               	subwf	___lldiv@dividend+3,f
  4052  05C3                     l1919:	
  4053  05C3  1430               	bsf	___lldiv@quotient,0
  4054  05C4                     l1921:	
  4055  05C4  3001               	movlw	1
  4056  05C5                     u1495:	
  4057  05C5  1003               	clrc
  4058  05C6  0CAA               	rrf	___lldiv@divisor+3,f
  4059  05C7  0CA9               	rrf	___lldiv@divisor+2,f
  4060  05C8  0CA8               	rrf	___lldiv@divisor+1,f
  4061  05C9  0CA7               	rrf	___lldiv@divisor,f
  4062  05CA  3EFF               	addlw	-1
  4063  05CB  1D03               	skipz
  4064  05CC  2DC5               	goto	u1495
  4065  05CD                     l1923:	
  4066  05CD  3001               	movlw	1
  4067  05CE  02B4               	subwf	___lldiv@counter,f
  4068  05CF  1D03               	btfss	3,2
  4069  05D0  2DD2               	goto	u1501
  4070  05D1  2DD3               	goto	u1500
  4071  05D2                     u1501:	
  4072  05D2  2D9A               	goto	l1913
  4073  05D3                     u1500:	
  4074  05D3                     l1925:	
  4075  05D3  0833               	movf	___lldiv@quotient+3,w
  4076  05D4  00AA               	movwf	?___lldiv+3
  4077  05D5  0832               	movf	___lldiv@quotient+2,w
  4078  05D6  00A9               	movwf	?___lldiv+2
  4079  05D7  0831               	movf	___lldiv@quotient+1,w
  4080  05D8  00A8               	movwf	?___lldiv+1
  4081  05D9  0830               	movf	___lldiv@quotient,w
  4082  05DA  00A7               	movwf	?___lldiv
  4083  05DB                     l410:	
  4084  05DB  0008               	return
  4085  05DC                     __end_of___lldiv:	
  4086                           
  4087                           	psect	text20
  4088  0E32                     __ptext20:	
  4089 ;; *************** function _CURSOR *****************
  4090 ;; Defined at:
  4091 ;;		line 128 in file "./LCDLIBRARY1.h"
  4092 ;; Parameters:    Size  Location     Type
  4093 ;;  a               1    wreg     unsigned char 
  4094 ;;  b               1    9[BANK0 ] unsigned char 
  4095 ;; Auto vars:     Size  Location     Type
  4096 ;;  a               1   12[BANK0 ] unsigned char 
  4097 ;; Return value:  Size  Location     Type
  4098 ;;                  1    wreg      void 
  4099 ;; Registers used:
  4100 ;;		wreg, status,2, status,0, btemp+1, pclath, cstack
  4101 ;; Tracked objects:
  4102 ;;		On entry : 0/0
  4103 ;;		On exit  : 0/0
  4104 ;;		Unchanged: 0/0
  4105 ;; Data sizes:     COMMON   BANK0   BANK1   BANK3   BANK2
  4106 ;;      Params:         0       1       0       0       0
  4107 ;;      Locals:         0       1       0       0       0
  4108 ;;      Temps:          0       2       0       0       0
  4109 ;;      Totals:         0       4       0       0       0
  4110 ;;Total ram usage:        4 bytes
  4111 ;; Hardware stack levels used:    1
  4112 ;; Hardware stack levels required when called:    6
  4113 ;; This function calls:
  4114 ;;		_CLOCK
  4115 ;; This function is called by:
  4116 ;;		_main
  4117 ;; This function uses a non-reentrant model
  4118 ;;
  4119                           
  4120                           
  4121                           ;psect for function _CURSOR
  4122  0E32                     _CURSOR:	
  4123                           
  4124                           ;incstack = 0
  4125                           ; Regs used in _CURSOR: [wreg+status,2+status,0+btemp+1+pclath+cstack]
  4126                           ;CURSOR@a stored from wreg
  4127  0E32  1283               	bcf	3,5	;RP0=0, select bank0
  4128  0E33  1303               	bcf	3,6	;RP1=0, select bank0
  4129  0E34  00AC               	movwf	CURSOR@a
  4130  0E35                     l1993:	
  4131                           
  4132                           ;./LCDLIBRARY1.h: 128: void CURSOR(char a, char b );./LCDLIBRARY1.h: 129: {;./LCDLIBRARY
      +                          1.h: 130:             RB4 = RB6 = 0;
  4133  0E35  1306               	bcf	6,6	;volatile
  4134  0E36  1206               	bcf	6,4	;volatile
  4135  0E37                     l1997:	
  4136                           
  4137                           ;./LCDLIBRARY1.h: 132:                 PORTB=(a+b)>>4;
  4138  0E37  082C               	movf	CURSOR@a,w
  4139  0E38  0729               	addwf	CURSOR@b,w
  4140  0E39  00AA               	movwf	??_CURSOR
  4141  0E3A  01AB               	clrf	??_CURSOR+1
  4142  0E3B  0DAB               	rlf	??_CURSOR+1,f
  4143  0E3C  3004               	movlw	4
  4144  0E3D  00FF               	movwf	btemp+1
  4145  0E3E                     u1555:	
  4146  0E3E  0D2B               	rlf	??_CURSOR+1,w
  4147  0E3F  0CAB               	rrf	??_CURSOR+1,f
  4148  0E40  0CAA               	rrf	??_CURSOR,f
  4149  0E41  0BFF               	decfsz	btemp+1,f
  4150  0E42  2E3E               	goto	u1555
  4151  0E43  082A               	movf	??_CURSOR,w
  4152  0E44  0086               	movwf	6	;volatile
  4153  0E45                     l1999:	
  4154                           
  4155                           ;./LCDLIBRARY1.h: 133:                 CLOCK();
  4156  0E45  120A  158A  25DF  120A  158A  	fcall	_CLOCK
  4157  0E4A                     l2001:	
  4158                           
  4159                           ;./LCDLIBRARY1.h: 134:                 PORTB=(a+b)&0x0F;
  4160  0E4A  1283               	bcf	3,5	;RP0=0, select bank0
  4161  0E4B  1303               	bcf	3,6	;RP1=0, select bank0
  4162  0E4C  0829               	movf	CURSOR@b,w
  4163  0E4D  072C               	addwf	CURSOR@a,w
  4164  0E4E  390F               	andlw	15
  4165  0E4F  0086               	movwf	6	;volatile
  4166  0E50                     l2003:	
  4167                           
  4168                           ;./LCDLIBRARY1.h: 135:                 CLOCK();
  4169  0E50  120A  158A  25DF  120A  158A  	fcall	_CLOCK
  4170  0E55                     l205:	
  4171                           ;./LCDLIBRARY1.h: 136:             }else{
  4172                           
  4173  0E55  0008               	return
  4174  0E56                     __end_of_CURSOR:	
  4175                           
  4176                           	psect	text21
  4177  0E15                     __ptext21:	
  4178 ;; *************** function _CLRDISP *****************
  4179 ;; Defined at:
  4180 ;;		line 146 in file "./LCDLIBRARY1.h"
  4181 ;; Parameters:    Size  Location     Type
  4182 ;;		None
  4183 ;; Auto vars:     Size  Location     Type
  4184 ;;		None
  4185 ;; Return value:  Size  Location     Type
  4186 ;;                  1    wreg      void 
  4187 ;; Registers used:
  4188 ;;		wreg, status,2, status,0, pclath, cstack
  4189 ;; Tracked objects:
  4190 ;;		On entry : 0/0
  4191 ;;		On exit  : 0/0
  4192 ;;		Unchanged: 0/0
  4193 ;; Data sizes:     COMMON   BANK0   BANK1   BANK3   BANK2
  4194 ;;      Params:         0       0       0       0       0
  4195 ;;      Locals:         0       0       0       0       0
  4196 ;;      Temps:          0       0       0       0       0
  4197 ;;      Totals:         0       0       0       0       0
  4198 ;;Total ram usage:        0 bytes
  4199 ;; Hardware stack levels used:    1
  4200 ;; Hardware stack levels required when called:    6
  4201 ;; This function calls:
  4202 ;;		_CLOCK
  4203 ;;		_delay1
  4204 ;; This function is called by:
  4205 ;;		_main
  4206 ;; This function uses a non-reentrant model
  4207 ;;
  4208                           
  4209                           
  4210                           ;psect for function _CLRDISP
  4211  0E15                     _CLRDISP:	
  4212  0E15                     l2015:	
  4213                           ;incstack = 0
  4214                           ; Regs used in _CLRDISP: [wreg+status,2+status,0+pclath+cstack]
  4215                           
  4216                           
  4217                           ;./LCDLIBRARY1.h: 148:     RB4 = RB6 = 0 ;
  4218  0E15  1283               	bcf	3,5	;RP0=0, select bank0
  4219  0E16  1303               	bcf	3,6	;RP1=0, select bank0
  4220  0E17  1306               	bcf	6,6	;volatile
  4221  0E18  1206               	bcf	6,4	;volatile
  4222  0E19                     l2017:	
  4223                           
  4224                           ;./LCDLIBRARY1.h: 149:     PORTB= 0 | PORTB & 0xf0;
  4225  0E19  0806               	movf	6,w	;volatile
  4226  0E1A  39F0               	andlw	240
  4227  0E1B  0086               	movwf	6	;volatile
  4228  0E1C                     l2019:	
  4229                           
  4230                           ;./LCDLIBRARY1.h: 150:     CLOCK();
  4231  0E1C  120A  158A  25DF  120A  158A  	fcall	_CLOCK
  4232  0E21                     l2021:	
  4233                           
  4234                           ;./LCDLIBRARY1.h: 151:     PORTB= 0x1 | PORTB & 0xf0 ;
  4235  0E21  1283               	bcf	3,5	;RP0=0, select bank0
  4236  0E22  1303               	bcf	3,6	;RP1=0, select bank0
  4237  0E23  0806               	movf	6,w	;volatile
  4238  0E24  39F0               	andlw	240
  4239  0E25  3801               	iorlw	1
  4240  0E26  0086               	movwf	6	;volatile
  4241                           
  4242                           ;./LCDLIBRARY1.h: 152:     CLOCK();
  4243  0E27  120A  158A  25DF  120A  158A  	fcall	_CLOCK
  4244                           
  4245                           ;./LCDLIBRARY1.h: 153:     delay1();
  4246  0E2C  120A  158A  259B  120A  158A  	fcall	_delay1
  4247  0E31                     l208:	
  4248  0E31  0008               	return
  4249  0E32                     __end_of_CLRDISP:	
  4250                           
  4251                           	psect	text22
  4252  0D9B                     __ptext22:	
  4253 ;; *************** function _delay1 *****************
  4254 ;; Defined at:
  4255 ;;		line 31 in file "./LCDLIBRARY1.h"
  4256 ;; Parameters:    Size  Location     Type
  4257 ;;		None
  4258 ;; Auto vars:     Size  Location     Type
  4259 ;;		None
  4260 ;; Return value:  Size  Location     Type
  4261 ;;                  1    wreg      void 
  4262 ;; Registers used:
  4263 ;;		wreg
  4264 ;; Tracked objects:
  4265 ;;		On entry : 0/0
  4266 ;;		On exit  : 0/0
  4267 ;;		Unchanged: 0/0
  4268 ;; Data sizes:     COMMON   BANK0   BANK1   BANK3   BANK2
  4269 ;;      Params:         0       0       0       0       0
  4270 ;;      Locals:         0       0       0       0       0
  4271 ;;      Temps:          0       2       0       0       0
  4272 ;;      Totals:         0       2       0       0       0
  4273 ;;Total ram usage:        2 bytes
  4274 ;; Hardware stack levels used:    1
  4275 ;; Hardware stack levels required when called:    4
  4276 ;; This function calls:
  4277 ;;		Nothing
  4278 ;; This function is called by:
  4279 ;;		_CLRDISP
  4280 ;;		_config
  4281 ;;		_SETCURSORTYPE
  4282 ;; This function uses a non-reentrant model
  4283 ;;
  4284                           
  4285                           
  4286                           ;psect for function _delay1
  4287  0D9B                     _delay1:	
  4288  0D9B                     l1887:	
  4289                           ;incstack = 0
  4290                           ; Regs used in _delay1: [wreg]
  4291                           
  4292                           
  4293                           ;./LCDLIBRARY1.h: 33:     _delay((unsigned long)((5)*(20000000/4000.0)));
  4294  0D9B  3021               	movlw	33
  4295  0D9C  1283               	bcf	3,5	;RP0=0, select bank0
  4296  0D9D  1303               	bcf	3,6	;RP1=0, select bank0
  4297  0D9E  00A8               	movwf	??_delay1+1
  4298  0D9F  3075               	movlw	117
  4299  0DA0  00A7               	movwf	??_delay1
  4300  0DA1                     u1957:	
  4301  0DA1  0BA7               	decfsz	??_delay1,f
  4302  0DA2  2DA1               	goto	u1957
  4303  0DA3  0BA8               	decfsz	??_delay1+1,f
  4304  0DA4  2DA1               	goto	u1957
  4305  0DA5  2DA6               	nop2
  4306  0DA6                     l167:	
  4307  0DA6  0008               	return
  4308  0DA7                     __end_of_delay1:	
  4309                           
  4310                           	psect	text23
  4311  0DDF                     __ptext23:	
  4312 ;; *************** function _CLOCK *****************
  4313 ;; Defined at:
  4314 ;;		line 45 in file "./LCDLIBRARY1.h"
  4315 ;; Parameters:    Size  Location     Type
  4316 ;;		None
  4317 ;; Auto vars:     Size  Location     Type
  4318 ;;		None
  4319 ;; Return value:  Size  Location     Type
  4320 ;;                  1    wreg      void 
  4321 ;; Registers used:
  4322 ;;		wreg, status,2, status,0, pclath, cstack
  4323 ;; Tracked objects:
  4324 ;;		On entry : 0/0
  4325 ;;		On exit  : 0/0
  4326 ;;		Unchanged: 0/0
  4327 ;; Data sizes:     COMMON   BANK0   BANK1   BANK3   BANK2
  4328 ;;      Params:         0       0       0       0       0
  4329 ;;      Locals:         0       0       0       0       0
  4330 ;;      Temps:          0       0       0       0       0
  4331 ;;      Totals:         0       0       0       0       0
  4332 ;;Total ram usage:        0 bytes
  4333 ;; Hardware stack levels used:    1
  4334 ;; Hardware stack levels required when called:    5
  4335 ;; This function calls:
  4336 ;;		_delay2
  4337 ;; This function is called by:
  4338 ;;		_LCDCHAR
  4339 ;;		_LCDWRITE
  4340 ;;		_CURSOR
  4341 ;;		_CLRDISP
  4342 ;;		_config
  4343 ;;		_addition
  4344 ;;		_SETCURSORTYPE
  4345 ;; This function uses a non-reentrant model
  4346 ;;
  4347                           
  4348                           
  4349                           ;psect for function _CLOCK
  4350  0DDF                     _CLOCK:	
  4351  0DDF                     l1647:	
  4352                           ;incstack = 0
  4353                           ; Regs used in _CLOCK: [wreg+status,2+status,0+pclath+cstack]
  4354                           
  4355                           
  4356                           ;./LCDLIBRARY1.h: 47:     PORTBbits.RB6 =1;
  4357  0DDF  1283               	bcf	3,5	;RP0=0, select bank0
  4358  0DE0  1303               	bcf	3,6	;RP1=0, select bank0
  4359  0DE1  1706               	bsf	6,6	;volatile
  4360  0DE2                     l1649:	
  4361                           
  4362                           ;./LCDLIBRARY1.h: 48:     delay2();
  4363  0DE2  120A  158A  258F  120A  158A  	fcall	_delay2
  4364  0DE7                     l1651:	
  4365                           
  4366                           ;./LCDLIBRARY1.h: 49:     PORTBbits.RB6 =0;
  4367  0DE7  1283               	bcf	3,5	;RP0=0, select bank0
  4368  0DE8  1303               	bcf	3,6	;RP1=0, select bank0
  4369  0DE9  1306               	bcf	6,6	;volatile
  4370                           
  4371                           ;./LCDLIBRARY1.h: 50:     delay2();
  4372  0DEA  120A  158A  258F  120A  158A  	fcall	_delay2
  4373  0DEF                     l173:	
  4374  0DEF  0008               	return
  4375  0DF0                     __end_of_CLOCK:	
  4376                           
  4377                           	psect	text24
  4378  0D8F                     __ptext24:	
  4379 ;; *************** function _delay2 *****************
  4380 ;; Defined at:
  4381 ;;		line 38 in file "./LCDLIBRARY1.h"
  4382 ;; Parameters:    Size  Location     Type
  4383 ;;		None
  4384 ;; Auto vars:     Size  Location     Type
  4385 ;;		None
  4386 ;; Return value:  Size  Location     Type
  4387 ;;                  1    wreg      void 
  4388 ;; Registers used:
  4389 ;;		wreg
  4390 ;; Tracked objects:
  4391 ;;		On entry : 0/0
  4392 ;;		On exit  : 0/0
  4393 ;;		Unchanged: 0/0
  4394 ;; Data sizes:     COMMON   BANK0   BANK1   BANK3   BANK2
  4395 ;;      Params:         0       0       0       0       0
  4396 ;;      Locals:         0       0       0       0       0
  4397 ;;      Temps:          0       2       0       0       0
  4398 ;;      Totals:         0       2       0       0       0
  4399 ;;Total ram usage:        2 bytes
  4400 ;; Hardware stack levels used:    1
  4401 ;; Hardware stack levels required when called:    4
  4402 ;; This function calls:
  4403 ;;		Nothing
  4404 ;; This function is called by:
  4405 ;;		_CLOCK
  4406 ;; This function uses a non-reentrant model
  4407 ;;
  4408                           
  4409                           
  4410                           ;psect for function _delay2
  4411  0D8F                     _delay2:	
  4412  0D8F                     l1637:	
  4413                           ;incstack = 0
  4414                           ; Regs used in _delay2: [wreg]
  4415                           
  4416                           
  4417                           ;./LCDLIBRARY1.h: 40:     _delay((unsigned long)((5)*(20000000/4000.0)));
  4418  0D8F  3021               	movlw	33
  4419  0D90  1283               	bcf	3,5	;RP0=0, select bank0
  4420  0D91  1303               	bcf	3,6	;RP1=0, select bank0
  4421  0D92  00A8               	movwf	??_delay2+1
  4422  0D93  3075               	movlw	117
  4423  0D94  00A7               	movwf	??_delay2
  4424  0D95                     u1967:	
  4425  0D95  0BA7               	decfsz	??_delay2,f
  4426  0D96  2D95               	goto	u1967
  4427  0D97  0BA8               	decfsz	??_delay2+1,f
  4428  0D98  2D95               	goto	u1967
  4429  0D99  2D9A               	nop2
  4430  0D9A                     l170:	
  4431  0D9A  0008               	return
  4432  0D9B                     __end_of_delay2:	
  4433                           
  4434                           	psect	text25
  4435  075A                     __ptext25:	
  4436 ;; *************** function _ISR *****************
  4437 ;; Defined at:
  4438 ;;		line 53 in file "main.c"
  4439 ;; Parameters:    Size  Location     Type
  4440 ;;		None
  4441 ;; Auto vars:     Size  Location     Type
  4442 ;;		None
  4443 ;; Return value:  Size  Location     Type
  4444 ;;                  1    wreg      void 
  4445 ;; Registers used:
  4446 ;;		wreg, status,2, status,0, btemp+1, pclath, cstack
  4447 ;; Tracked objects:
  4448 ;;		On entry : 0/0
  4449 ;;		On exit  : 0/0
  4450 ;;		Unchanged: 0/0
  4451 ;; Data sizes:     COMMON   BANK0   BANK1   BANK3   BANK2
  4452 ;;      Params:         0       0       0       0       0
  4453 ;;      Locals:         0       0       0       0       0
  4454 ;;      Temps:          0       3       0       0       0
  4455 ;;      Totals:         0       3       0       0       0
  4456 ;;Total ram usage:        3 bytes
  4457 ;; Hardware stack levels used:    1
  4458 ;; Hardware stack levels required when called:    3
  4459 ;; This function calls:
  4460 ;;		i1_Set_Time_Date
  4461 ;; This function is called by:
  4462 ;;		Interrupt level 1
  4463 ;; This function uses a non-reentrant model
  4464 ;;
  4465                           
  4466                           
  4467                           ;psect for function _ISR
  4468  075A                     _ISR:	
  4469  075A                     i1l2107:	
  4470                           
  4471                           ;main.c: 54:     if(TMR0IF==1){
  4472  075A  1D0B               	btfss	11,2	;volatile
  4473  075B  2F5D               	goto	u158_21
  4474  075C  2F5E               	goto	u158_20
  4475  075D                     u158_21:	
  4476  075D  2F78               	goto	i1l2115
  4477  075E                     u158_20:	
  4478  075E                     i1l2109:	
  4479                           
  4480                           ;main.c: 55:         if(hour<=22)hour++;
  4481  075E  084F               	movf	_hour+1,w
  4482  075F  3A80               	xorlw	128
  4483  0760  00FF               	movwf	btemp+1
  4484  0761  3080               	movlw	128
  4485  0762  027F               	subwf	btemp+1,w
  4486  0763  1D03               	skipz
  4487  0764  2F67               	goto	u159_25
  4488  0765  3017               	movlw	23
  4489  0766  024E               	subwf	_hour,w
  4490  0767                     u159_25:	
  4491  0767  1803               	skipnc
  4492  0768  2F6A               	goto	u159_21
  4493  0769  2F6B               	goto	u159_20
  4494  076A                     u159_21:	
  4495  076A  2F74               	goto	i1l2113
  4496  076B                     u159_20:	
  4497  076B                     i1l2111:	
  4498  076B  3001               	movlw	1
  4499  076C  1283               	bcf	3,5	;RP0=0, select bank0
  4500  076D  1303               	bcf	3,6	;RP1=0, select bank0
  4501  076E  07CE               	addwf	_hour,f
  4502  076F  1803               	skipnc
  4503  0770  0ACF               	incf	_hour+1,f
  4504  0771  3000               	movlw	0
  4505  0772  07CF               	addwf	_hour+1,f
  4506  0773  2F78               	goto	i1l2115
  4507  0774                     i1l2113:	
  4508  0774  1283               	bcf	3,5	;RP0=0, select bank0
  4509  0775  1303               	bcf	3,6	;RP1=0, select bank0
  4510  0776  01CE               	clrf	_hour
  4511  0777  01CF               	clrf	_hour+1
  4512  0778                     i1l2115:	
  4513                           
  4514                           ;main.c: 58:     if(TMR1IF==1){
  4515  0778  1C0C               	btfss	12,0	;volatile
  4516  0779  2F7B               	goto	u160_21
  4517  077A  2F7C               	goto	u160_20
  4518  077B                     u160_21:	
  4519  077B  2F96               	goto	i1l2123
  4520  077C                     u160_20:	
  4521  077C                     i1l2117:	
  4522                           
  4523                           ;main.c: 59:         if(min<=22)min++;
  4524  077C  0851               	movf	_min+1,w
  4525  077D  3A80               	xorlw	128
  4526  077E  00FF               	movwf	btemp+1
  4527  077F  3080               	movlw	128
  4528  0780  027F               	subwf	btemp+1,w
  4529  0781  1D03               	skipz
  4530  0782  2F85               	goto	u161_25
  4531  0783  3017               	movlw	23
  4532  0784  0250               	subwf	_min,w
  4533  0785                     u161_25:	
  4534  0785  1803               	skipnc
  4535  0786  2F88               	goto	u161_21
  4536  0787  2F89               	goto	u161_20
  4537  0788                     u161_21:	
  4538  0788  2F92               	goto	i1l2121
  4539  0789                     u161_20:	
  4540  0789                     i1l2119:	
  4541  0789  3001               	movlw	1
  4542  078A  1283               	bcf	3,5	;RP0=0, select bank0
  4543  078B  1303               	bcf	3,6	;RP1=0, select bank0
  4544  078C  07D0               	addwf	_min,f
  4545  078D  1803               	skipnc
  4546  078E  0AD1               	incf	_min+1,f
  4547  078F  3000               	movlw	0
  4548  0790  07D1               	addwf	_min+1,f
  4549  0791  2F96               	goto	i1l2123
  4550  0792                     i1l2121:	
  4551  0792  1283               	bcf	3,5	;RP0=0, select bank0
  4552  0793  1303               	bcf	3,6	;RP1=0, select bank0
  4553  0794  01D0               	clrf	_min
  4554  0795  01D1               	clrf	_min+1
  4555  0796                     i1l2123:	
  4556                           
  4557                           ;main.c: 62:     TMR0IF=0;
  4558  0796  110B               	bcf	11,2	;volatile
  4559  0797                     i1l2125:	
  4560                           
  4561                           ;main.c: 63:     TMR1IF=0;
  4562  0797  100C               	bcf	12,0	;volatile
  4563  0798                     i1l2127:	
  4564                           
  4565                           ;main.c: 64:     TMR0=255;
  4566  0798  30FF               	movlw	255
  4567  0799  0081               	movwf	1	;volatile
  4568  079A                     i1l2129:	
  4569                           
  4570                           ;main.c: 65:     TMR1=65535;
  4571  079A  30FF               	movlw	255
  4572  079B  008F               	movwf	15	;volatile
  4573  079C  30FF               	movlw	255
  4574  079D  008E               	movwf	14	;volatile
  4575  079E  0064               	clrwdt	;# 
  4576  079F                     i1l2131:	
  4577                           
  4578                           ;main.c: 67:     Set_Time_Date();
  4579  079F  120A  118A  2414  120A  118A  	fcall	i1_Set_Time_Date
  4580  07A4  0064               	clrwdt	;# 
  4581  07A5                     i1l2133:	
  4582                           
  4583                           ;main.c: 69:     RD5=0;
  4584  07A5  1283               	bcf	3,5	;RP0=0, select bank0
  4585  07A6  1303               	bcf	3,6	;RP1=0, select bank0
  4586  07A7  1288               	bcf	8,5	;volatile
  4587  07A8                     i1l239:	
  4588  07A8  0826               	movf	??_ISR+2,w
  4589  07A9  00FF               	movwf	btemp+1
  4590  07AA  0825               	movf	??_ISR+1,w
  4591  07AB  008A               	movwf	10
  4592  07AC  0E24               	swapf	??_ISR^0,w
  4593  07AD  0083               	movwf	3
  4594  07AE  0EFE               	swapf	btemp,f
  4595  07AF  0E7E               	swapf	btemp,w
  4596  07B0  0009               	retfie
  4597  07B1                     __end_of_ISR:	
  4598                           
  4599                           	psect	intentry
  4600  0004                     __pintentry:	
  4601                           ;incstack = 0
  4602                           ; Regs used in _ISR: [wreg+status,2+status,0+btemp+1+pclath+cstack]
  4603                           
  4604  0004                     interrupt_function:	
  4605  007E                     saved_w	set	btemp
  4606  0004  00FE               	movwf	btemp
  4607  0005  0E03               	swapf	3,w
  4608  0006  1283               	bcf	3,5	;RP0=0, select bank0
  4609  0007  1303               	bcf	3,6	;RP1=0, select bank0
  4610  0008  00A4               	movwf	??_ISR
  4611  0009  080A               	movf	10,w
  4612  000A  00A5               	movwf	??_ISR+1
  4613  000B  087F               	movf	btemp+1,w
  4614  000C  00A6               	movwf	??_ISR+2
  4615  000D  120A  118A  2F5A   	ljmp	_ISR
  4616                           
  4617                           	psect	text26
  4618  0414                     __ptext26:	
  4619 ;; *************** function i1_Set_Time_Date *****************
  4620 ;; Defined at:
  4621 ;;		line 28 in file "./PIC16F877a_DS3231.h"
  4622 ;; Parameters:    Size  Location     Type
  4623 ;;		None
  4624 ;; Auto vars:     Size  Location     Type
  4625 ;;		None
  4626 ;; Return value:  Size  Location     Type
  4627 ;;                  1    wreg      void 
  4628 ;; Registers used:
  4629 ;;		wreg, status,2, status,0, pclath, cstack
  4630 ;; Tracked objects:
  4631 ;;		On entry : 0/0
  4632 ;;		On exit  : 0/0
  4633 ;;		Unchanged: 0/0
  4634 ;; Data sizes:     COMMON   BANK0   BANK1   BANK3   BANK2
  4635 ;;      Params:         0       0       0       0       0
  4636 ;;      Locals:         0       0       0       0       0
  4637 ;;      Temps:          0       0       0       0       0
  4638 ;;      Totals:         0       0       0       0       0
  4639 ;;Total ram usage:        0 bytes
  4640 ;; Hardware stack levels used:    1
  4641 ;; Hardware stack levels required when called:    2
  4642 ;; This function calls:
  4643 ;;		i1_DEC_2_BCD
  4644 ;;		i1_I2C_Begin
  4645 ;;		i1_I2C_End
  4646 ;;		i1_I2C_Write
  4647 ;; This function is called by:
  4648 ;;		_ISR
  4649 ;; This function uses a non-reentrant model
  4650 ;;
  4651                           
  4652                           
  4653                           ;psect for function i1_Set_Time_Date
  4654  0414                     i1_Set_Time_Date:	
  4655  0414                     i1l2065:	
  4656                           ;incstack = 0
  4657                           ; Regs used in i1_Set_Time_Date: [wreg+status,2+status,0+pclath+cstack]
  4658                           
  4659                           
  4660                           ;./PIC16F877a_DS3231.h: 30:    I2C_Begin();
  4661  0414  120A  158A  2562  120A  118A  	fcall	i1_I2C_Begin
  4662                           
  4663                           ;./PIC16F877a_DS3231.h: 31:    I2C_Write(0xD0);
  4664  0419  30D0               	movlw	208
  4665  041A  1283               	bcf	3,5	;RP0=0, select bank0
  4666  041B  1303               	bcf	3,6	;RP1=0, select bank0
  4667  041C  00A2               	movwf	i1I2C_Write@data
  4668  041D  3000               	movlw	0
  4669  041E  00A3               	movwf	i1I2C_Write@data+1
  4670  041F  120A  158A  25C1  120A  118A  	fcall	i1_I2C_Write
  4671                           
  4672                           ;./PIC16F877a_DS3231.h: 32:    I2C_Write(0);
  4673  0424  3000               	movlw	0
  4674  0425  1283               	bcf	3,5	;RP0=0, select bank0
  4675  0426  1303               	bcf	3,6	;RP1=0, select bank0
  4676  0427  00A2               	movwf	i1I2C_Write@data
  4677  0428  00A3               	movwf	i1I2C_Write@data+1
  4678  0429  120A  158A  25C1  120A  118A  	fcall	i1_I2C_Write
  4679                           
  4680                           ;./PIC16F877a_DS3231.h: 33:    I2C_Write(DEC_2_BCD(sec));
  4681  042E  1283               	bcf	3,5	;RP0=0, select bank0
  4682  042F  1303               	bcf	3,6	;RP1=0, select bank0
  4683  0430  0861               	movf	_sec+1,w
  4684  0431  00FA               	movwf	i1DEC_2_BCD@num+1
  4685  0432  0860               	movf	_sec,w
  4686  0433  00F9               	movwf	i1DEC_2_BCD@num
  4687  0434  120A  158A  2704  120A  118A  	fcall	i1_DEC_2_BCD
  4688  0439  087A               	movf	?i1_DEC_2_BCD+1,w
  4689  043A  1283               	bcf	3,5	;RP0=0, select bank0
  4690  043B  1303               	bcf	3,6	;RP1=0, select bank0
  4691  043C  00A3               	movwf	i1I2C_Write@data+1
  4692  043D  0879               	movf	?i1_DEC_2_BCD,w
  4693  043E  00A2               	movwf	i1I2C_Write@data
  4694  043F  120A  158A  25C1  120A  118A  	fcall	i1_I2C_Write
  4695                           
  4696                           ;./PIC16F877a_DS3231.h: 34:    I2C_Write(DEC_2_BCD(min));
  4697  0444  1283               	bcf	3,5	;RP0=0, select bank0
  4698  0445  1303               	bcf	3,6	;RP1=0, select bank0
  4699  0446  0851               	movf	_min+1,w
  4700  0447  00FA               	movwf	i1DEC_2_BCD@num+1
  4701  0448  0850               	movf	_min,w
  4702  0449  00F9               	movwf	i1DEC_2_BCD@num
  4703  044A  120A  158A  2704  120A  118A  	fcall	i1_DEC_2_BCD
  4704  044F  087A               	movf	?i1_DEC_2_BCD+1,w
  4705  0450  1283               	bcf	3,5	;RP0=0, select bank0
  4706  0451  1303               	bcf	3,6	;RP1=0, select bank0
  4707  0452  00A3               	movwf	i1I2C_Write@data+1
  4708  0453  0879               	movf	?i1_DEC_2_BCD,w
  4709  0454  00A2               	movwf	i1I2C_Write@data
  4710  0455  120A  158A  25C1  120A  118A  	fcall	i1_I2C_Write
  4711                           
  4712                           ;./PIC16F877a_DS3231.h: 35:    I2C_Write(DEC_2_BCD(hour));
  4713  045A  1283               	bcf	3,5	;RP0=0, select bank0
  4714  045B  1303               	bcf	3,6	;RP1=0, select bank0
  4715  045C  084F               	movf	_hour+1,w
  4716  045D  00FA               	movwf	i1DEC_2_BCD@num+1
  4717  045E  084E               	movf	_hour,w
  4718  045F  00F9               	movwf	i1DEC_2_BCD@num
  4719  0460  120A  158A  2704  120A  118A  	fcall	i1_DEC_2_BCD
  4720  0465  087A               	movf	?i1_DEC_2_BCD+1,w
  4721  0466  1283               	bcf	3,5	;RP0=0, select bank0
  4722  0467  1303               	bcf	3,6	;RP1=0, select bank0
  4723  0468  00A3               	movwf	i1I2C_Write@data+1
  4724  0469  0879               	movf	?i1_DEC_2_BCD,w
  4725  046A  00A2               	movwf	i1I2C_Write@data
  4726  046B  120A  158A  25C1  120A  118A  	fcall	i1_I2C_Write
  4727                           
  4728                           ;./PIC16F877a_DS3231.h: 36:    I2C_Write(1);
  4729  0470  3001               	movlw	1
  4730  0471  1283               	bcf	3,5	;RP0=0, select bank0
  4731  0472  1303               	bcf	3,6	;RP1=0, select bank0
  4732  0473  00A2               	movwf	i1I2C_Write@data
  4733  0474  3000               	movlw	0
  4734  0475  00A3               	movwf	i1I2C_Write@data+1
  4735  0476  120A  158A  25C1  120A  118A  	fcall	i1_I2C_Write
  4736                           
  4737                           ;./PIC16F877a_DS3231.h: 37:    I2C_Write(1);
  4738  047B  3001               	movlw	1
  4739  047C  1283               	bcf	3,5	;RP0=0, select bank0
  4740  047D  1303               	bcf	3,6	;RP1=0, select bank0
  4741  047E  00A2               	movwf	i1I2C_Write@data
  4742  047F  3000               	movlw	0
  4743  0480  00A3               	movwf	i1I2C_Write@data+1
  4744  0481  120A  158A  25C1  120A  118A  	fcall	i1_I2C_Write
  4745                           
  4746                           ;./PIC16F877a_DS3231.h: 38:    I2C_Write(1);
  4747  0486  3001               	movlw	1
  4748  0487  1283               	bcf	3,5	;RP0=0, select bank0
  4749  0488  1303               	bcf	3,6	;RP1=0, select bank0
  4750  0489  00A2               	movwf	i1I2C_Write@data
  4751  048A  3000               	movlw	0
  4752  048B  00A3               	movwf	i1I2C_Write@data+1
  4753  048C  120A  158A  25C1  120A  118A  	fcall	i1_I2C_Write
  4754                           
  4755                           ;./PIC16F877a_DS3231.h: 39:    I2C_Write(1);
  4756  0491  3001               	movlw	1
  4757  0492  1283               	bcf	3,5	;RP0=0, select bank0
  4758  0493  1303               	bcf	3,6	;RP1=0, select bank0
  4759  0494  00A2               	movwf	i1I2C_Write@data
  4760  0495  3000               	movlw	0
  4761  0496  00A3               	movwf	i1I2C_Write@data+1
  4762  0497  120A  158A  25C1  120A  118A  	fcall	i1_I2C_Write
  4763                           
  4764                           ;./PIC16F877a_DS3231.h: 40:    I2C_End();
  4765  049C  120A  158A  256B  120A  118A  	fcall	i1_I2C_End
  4766  04A1                     i1l157:	
  4767  04A1  0008               	return
  4768  04A2                     __end_ofi1_Set_Time_Date:	
  4769                           
  4770                           	psect	text27
  4771  0DC1                     __ptext27:	
  4772 ;; *************** function i1_I2C_Write *****************
  4773 ;; Defined at:
  4774 ;;		line 42 in file "./PIC16F877a_I2C.h"
  4775 ;; Parameters:    Size  Location     Type
  4776 ;;  data            2    2[BANK0 ] unsigned short 
  4777 ;; Auto vars:     Size  Location     Type
  4778 ;;		None
  4779 ;; Return value:  Size  Location     Type
  4780 ;;                  2    2[BANK0 ] unsigned short 
  4781 ;; Registers used:
  4782 ;;		wreg, status,2, status,0, pclath, cstack
  4783 ;; Tracked objects:
  4784 ;;		On entry : 0/0
  4785 ;;		On exit  : 0/0
  4786 ;;		Unchanged: 0/0
  4787 ;; Data sizes:     COMMON   BANK0   BANK1   BANK3   BANK2
  4788 ;;      Params:         0       2       0       0       0
  4789 ;;      Locals:         0       0       0       0       0
  4790 ;;      Temps:          0       0       0       0       0
  4791 ;;      Totals:         0       2       0       0       0
  4792 ;;Total ram usage:        2 bytes
  4793 ;; Hardware stack levels used:    1
  4794 ;; Hardware stack levels required when called:    1
  4795 ;; This function calls:
  4796 ;;		i1_I2C_Hold
  4797 ;; This function is called by:
  4798 ;;		i1_Set_Time_Date
  4799 ;; This function uses a non-reentrant model
  4800 ;;
  4801                           
  4802                           
  4803                           ;psect for function i1_I2C_Write
  4804  0DC1                     i1_I2C_Write:	
  4805  0DC1                     i1l1937:	
  4806                           ;incstack = 0
  4807                           ; Regs used in i1_I2C_Write: [wreg+status,2+status,0+pclath+cstack]
  4808                           
  4809                           
  4810                           ;./PIC16F877a_I2C.h: 42: unsigned short I2C_Write(unsigned short data);./PIC16F877a_I2C.
      +                          h: 43: {;./PIC16F877a_I2C.h: 44:     I2C_Hold();
  4811  0DC1  120A  158A  25A7  120A  158A  	fcall	i1_I2C_Hold
  4812  0DC6                     i1l1939:	
  4813                           
  4814                           ;./PIC16F877a_I2C.h: 45:     SSPBUF = data;
  4815  0DC6  1283               	bcf	3,5	;RP0=0, select bank0
  4816  0DC7  1303               	bcf	3,6	;RP1=0, select bank0
  4817  0DC8  0822               	movf	i1I2C_Write@data,w
  4818  0DC9  0093               	movwf	19	;volatile
  4819  0DCA                     i1l1941:	
  4820                           
  4821                           ;./PIC16F877a_I2C.h: 46:     I2C_Hold();
  4822  0DCA  120A  158A  25A7  120A  158A  	fcall	i1_I2C_Hold
  4823  0DCF                     i1l1943:	
  4824  0DCF                     i1l139:	
  4825                           ;./PIC16F877a_I2C.h: 47:     return ACKSTAT;;	Return value of i1_I2C_Write is never used
  4826                           
  4827  0DCF  0008               	return
  4828  0DD0                     __end_ofi1_I2C_Write:	
  4829                           
  4830                           	psect	text28
  4831  0D6B                     __ptext28:	
  4832 ;; *************** function i1_I2C_End *****************
  4833 ;; Defined at:
  4834 ;;		line 35 in file "./PIC16F877a_I2C.h"
  4835 ;; Parameters:    Size  Location     Type
  4836 ;;		None
  4837 ;; Auto vars:     Size  Location     Type
  4838 ;;		None
  4839 ;; Return value:  Size  Location     Type
  4840 ;;                  1    wreg      void 
  4841 ;; Registers used:
  4842 ;;		wreg, status,2, status,0, pclath, cstack
  4843 ;; Tracked objects:
  4844 ;;		On entry : 0/0
  4845 ;;		On exit  : 0/0
  4846 ;;		Unchanged: 0/0
  4847 ;; Data sizes:     COMMON   BANK0   BANK1   BANK3   BANK2
  4848 ;;      Params:         0       0       0       0       0
  4849 ;;      Locals:         0       0       0       0       0
  4850 ;;      Temps:          0       0       0       0       0
  4851 ;;      Totals:         0       0       0       0       0
  4852 ;;Total ram usage:        0 bytes
  4853 ;; Hardware stack levels used:    1
  4854 ;; Hardware stack levels required when called:    1
  4855 ;; This function calls:
  4856 ;;		i1_I2C_Hold
  4857 ;; This function is called by:
  4858 ;;		i1_Set_Time_Date
  4859 ;; This function uses a non-reentrant model
  4860 ;;
  4861                           
  4862                           
  4863                           ;psect for function i1_I2C_End
  4864  0D6B                     i1_I2C_End:	
  4865  0D6B                     i1l1933:	
  4866                           ;incstack = 0
  4867                           ; Regs used in i1_I2C_End: [wreg+status,2+status,0+pclath+cstack]
  4868                           
  4869                           
  4870                           ;./PIC16F877a_I2C.h: 37:   I2C_Hold();
  4871  0D6B  120A  158A  25A7  120A  158A  	fcall	i1_I2C_Hold
  4872  0D70                     i1l1935:	
  4873                           
  4874                           ;./PIC16F877a_I2C.h: 38:   PEN = 1;
  4875  0D70  1683               	bsf	3,5	;RP0=1, select bank1
  4876  0D71  1303               	bcf	3,6	;RP1=0, select bank1
  4877  0D72  1511               	bsf	17,2	;volatile
  4878  0D73                     i1l136:	
  4879  0D73  0008               	return
  4880  0D74                     __end_ofi1_I2C_End:	
  4881                           
  4882                           	psect	text29
  4883  0D62                     __ptext29:	
  4884 ;; *************** function i1_I2C_Begin *****************
  4885 ;; Defined at:
  4886 ;;		line 24 in file "./PIC16F877a_I2C.h"
  4887 ;; Parameters:    Size  Location     Type
  4888 ;;		None
  4889 ;; Auto vars:     Size  Location     Type
  4890 ;;		None
  4891 ;; Return value:  Size  Location     Type
  4892 ;;                  1    wreg      void 
  4893 ;; Registers used:
  4894 ;;		wreg, status,2, status,0, pclath, cstack
  4895 ;; Tracked objects:
  4896 ;;		On entry : 0/0
  4897 ;;		On exit  : 0/0
  4898 ;;		Unchanged: 0/0
  4899 ;; Data sizes:     COMMON   BANK0   BANK1   BANK3   BANK2
  4900 ;;      Params:         0       0       0       0       0
  4901 ;;      Locals:         0       0       0       0       0
  4902 ;;      Temps:          0       0       0       0       0
  4903 ;;      Totals:         0       0       0       0       0
  4904 ;;Total ram usage:        0 bytes
  4905 ;; Hardware stack levels used:    1
  4906 ;; Hardware stack levels required when called:    1
  4907 ;; This function calls:
  4908 ;;		i1_I2C_Hold
  4909 ;; This function is called by:
  4910 ;;		i1_Set_Time_Date
  4911 ;; This function uses a non-reentrant model
  4912 ;;
  4913                           
  4914                           
  4915                           ;psect for function i1_I2C_Begin
  4916  0D62                     i1_I2C_Begin:	
  4917  0D62                     i1l1929:	
  4918                           ;incstack = 0
  4919                           ; Regs used in i1_I2C_Begin: [wreg+status,2+status,0+pclath+cstack]
  4920                           
  4921                           
  4922                           ;./PIC16F877a_I2C.h: 26:   I2C_Hold();
  4923  0D62  120A  158A  25A7  120A  158A  	fcall	i1_I2C_Hold
  4924  0D67                     i1l1931:	
  4925                           
  4926                           ;./PIC16F877a_I2C.h: 27:   SEN = 1;
  4927  0D67  1683               	bsf	3,5	;RP0=1, select bank1
  4928  0D68  1303               	bcf	3,6	;RP1=0, select bank1
  4929  0D69  1411               	bsf	17,0	;volatile
  4930  0D6A                     i1l130:	
  4931  0D6A  0008               	return
  4932  0D6B                     __end_ofi1_I2C_Begin:	
  4933                           
  4934                           	psect	text30
  4935  0DA7                     __ptext30:	
  4936 ;; *************** function i1_I2C_Hold *****************
  4937 ;; Defined at:
  4938 ;;		line 19 in file "./PIC16F877a_I2C.h"
  4939 ;; Parameters:    Size  Location     Type
  4940 ;;		None
  4941 ;; Auto vars:     Size  Location     Type
  4942 ;;		None
  4943 ;; Return value:  Size  Location     Type
  4944 ;;                  1    wreg      void 
  4945 ;; Registers used:
  4946 ;;		wreg, status,2
  4947 ;; Tracked objects:
  4948 ;;		On entry : 0/0
  4949 ;;		On exit  : 0/0
  4950 ;;		Unchanged: 0/0
  4951 ;; Data sizes:     COMMON   BANK0   BANK1   BANK3   BANK2
  4952 ;;      Params:         0       0       0       0       0
  4953 ;;      Locals:         0       0       0       0       0
  4954 ;;      Temps:          0       0       0       0       0
  4955 ;;      Totals:         0       0       0       0       0
  4956 ;;Total ram usage:        0 bytes
  4957 ;; Hardware stack levels used:    1
  4958 ;; This function calls:
  4959 ;;		Nothing
  4960 ;; This function is called by:
  4961 ;;		i1_I2C_Begin
  4962 ;;		i1_I2C_End
  4963 ;;		i1_I2C_Write
  4964 ;; This function uses a non-reentrant model
  4965 ;;
  4966                           
  4967                           
  4968                           ;psect for function i1_I2C_Hold
  4969  0DA7                     i1_I2C_Hold:	
  4970  0DA7                     i1l1751:	
  4971                           ;incstack = 0
  4972                           ; Regs used in i1_I2C_Hold: [wreg+status,2]
  4973                           
  4974  0DA7                     i1l1753:	
  4975                           ;./PIC16F877a_I2C.h: 21:     while ( (SSPCON2 & 0b00011111) || (SSPSTAT & 0b00000100) ) 
      +                          ;
  4976                           
  4977  0DA7  1683               	bsf	3,5	;RP0=1, select bank1
  4978  0DA8  1303               	bcf	3,6	;RP1=0, select bank1
  4979  0DA9  0811               	movf	17,w	;volatile
  4980  0DAA  391F               	andlw	31
  4981  0DAB  1D03               	btfss	3,2
  4982  0DAC  2DAE               	goto	u120_21
  4983  0DAD  2DAF               	goto	u120_20
  4984  0DAE                     u120_21:	
  4985  0DAE  2DA7               	goto	i1l1753
  4986  0DAF                     u120_20:	
  4987  0DAF                     i1l1755:	
  4988  0DAF  1914               	btfsc	20,2	;volatile
  4989  0DB0  2DB2               	goto	u121_21
  4990  0DB1  2DB3               	goto	u121_20
  4991  0DB2                     u121_21:	
  4992  0DB2  2DA7               	goto	i1l1753
  4993  0DB3                     u121_20:	
  4994  0DB3                     i1l127:	
  4995  0DB3  0008               	return
  4996  0DB4                     __end_ofi1_I2C_Hold:	
  4997                           
  4998                           	psect	text31
  4999  0F04                     __ptext31:	
  5000 ;; *************** function i1_DEC_2_BCD *****************
  5001 ;; Defined at:
  5002 ;;		line 22 in file "./PIC16F877a_DS3231.h"
  5003 ;; Parameters:    Size  Location     Type
  5004 ;;  num             2    9[COMMON] int 
  5005 ;; Auto vars:     Size  Location     Type
  5006 ;;  DEC_2_BCD       2    0[BANK0 ] int 
  5007 ;; Return value:  Size  Location     Type
  5008 ;;                  2    9[COMMON] int 
  5009 ;; Registers used:
  5010 ;;		wreg, status,2, status,0, pclath, cstack
  5011 ;; Tracked objects:
  5012 ;;		On entry : 0/0
  5013 ;;		On exit  : 0/0
  5014 ;;		Unchanged: 0/0
  5015 ;; Data sizes:     COMMON   BANK0   BANK1   BANK3   BANK2
  5016 ;;      Params:         2       0       0       0       0
  5017 ;;      Locals:         0       2       0       0       0
  5018 ;;      Temps:          2       0       0       0       0
  5019 ;;      Totals:         4       2       0       0       0
  5020 ;;Total ram usage:        6 bytes
  5021 ;; Hardware stack levels used:    1
  5022 ;; Hardware stack levels required when called:    1
  5023 ;; This function calls:
  5024 ;;		i1___awdiv
  5025 ;;		i1___awmod
  5026 ;; This function is called by:
  5027 ;;		i1_Set_Time_Date
  5028 ;; This function uses a non-reentrant model
  5029 ;;
  5030                           
  5031                           
  5032                           ;psect for function i1_DEC_2_BCD
  5033  0F04                     i1_DEC_2_BCD:	
  5034  0F04                     i1l1947:	
  5035                           ;incstack = 0
  5036                           ; Regs used in i1_DEC_2_BCD: [wreg+status,2+status,0+pclath+cstack]
  5037                           
  5038                           
  5039                           ;./PIC16F877a_DS3231.h: 22: int DEC_2_BCD (int num);./PIC16F877a_DS3231.h: 23: {;./PIC16
      +                          F877a_DS3231.h: 24:     int data=((num/10)<<4)+(num%10);
  5040  0F04  300A               	movlw	10
  5041  0F05  00F0               	movwf	i1___awdiv@divisor
  5042  0F06  3000               	movlw	0
  5043  0F07  00F1               	movwf	i1___awdiv@divisor+1
  5044  0F08  087A               	movf	i1DEC_2_BCD@num+1,w
  5045  0F09  00F3               	movwf	i1___awdiv@dividend+1
  5046  0F0A  0879               	movf	i1DEC_2_BCD@num,w
  5047  0F0B  00F2               	movwf	i1___awdiv@dividend
  5048  0F0C  120A  118A  25DC  120A  158A  	fcall	i1___awdiv
  5049  0F11  0870               	movf	?i1___awdiv,w
  5050  0F12  00FB               	movwf	??i1_DEC_2_BCD
  5051  0F13  0871               	movf	?i1___awdiv+1,w
  5052  0F14  00FC               	movwf	??i1_DEC_2_BCD+1
  5053  0F15  0EFB               	swapf	??i1_DEC_2_BCD,f
  5054  0F16  0EFC               	swapf	??i1_DEC_2_BCD+1,f
  5055  0F17  30F0               	movlw	240
  5056  0F18  05FC               	andwf	??i1_DEC_2_BCD+1,f
  5057  0F19  087B               	movf	??i1_DEC_2_BCD,w
  5058  0F1A  390F               	andlw	15
  5059  0F1B  04FC               	iorwf	??i1_DEC_2_BCD+1,f
  5060  0F1C  30F0               	movlw	240
  5061  0F1D  05FB               	andwf	??i1_DEC_2_BCD,f
  5062  0F1E  300A               	movlw	10
  5063  0F1F  00F0               	movwf	i1___awmod@divisor
  5064  0F20  3000               	movlw	0
  5065  0F21  00F1               	movwf	i1___awmod@divisor+1
  5066  0F22  087A               	movf	i1DEC_2_BCD@num+1,w
  5067  0F23  00F3               	movwf	i1___awmod@dividend+1
  5068  0F24  0879               	movf	i1DEC_2_BCD@num,w
  5069  0F25  00F2               	movwf	i1___awmod@dividend
  5070  0F26  120A  118A  2701  120A  158A  	fcall	i1___awmod
  5071  0F2B  0870               	movf	?i1___awmod,w
  5072  0F2C  077B               	addwf	??i1_DEC_2_BCD,w
  5073  0F2D  1283               	bcf	3,5	;RP0=0, select bank0
  5074  0F2E  1303               	bcf	3,6	;RP1=0, select bank0
  5075  0F2F  00A0               	movwf	i1DEC_2_BCD@data
  5076  0F30  0871               	movf	?i1___awmod+1,w
  5077  0F31  1803               	skipnc
  5078  0F32  0A71               	incf	?i1___awmod+1,w
  5079  0F33  077C               	addwf	??i1_DEC_2_BCD+1,w
  5080  0F34  00A1               	movwf	i1DEC_2_BCD@data+1
  5081  0F35                     i1l1949:	
  5082                           
  5083                           ;./PIC16F877a_DS3231.h: 25:     return data;
  5084  0F35  0821               	movf	i1DEC_2_BCD@data+1,w
  5085  0F36  00FA               	movwf	?i1_DEC_2_BCD+1
  5086  0F37  0820               	movf	i1DEC_2_BCD@data,w
  5087  0F38  00F9               	movwf	?i1_DEC_2_BCD
  5088  0F39                     i1l154:	
  5089  0F39  0008               	return
  5090  0F3A                     __end_ofi1_DEC_2_BCD:	
  5091                           
  5092                           	psect	text32
  5093  0701                     __ptext32:	
  5094 ;; *************** function i1___awmod *****************
  5095 ;; Defined at:
  5096 ;;		line 5 in file "C:\Program Files (x86)\Microchip\xc8\v2.10\pic\sources\c90\common\awmod.c"
  5097 ;; Parameters:    Size  Location     Type
  5098 ;;  divisor         2    0[COMMON] int 
  5099 ;;  dividend        2    2[COMMON] int 
  5100 ;; Auto vars:     Size  Location     Type
  5101 ;;  __awmod         1    6[COMMON] unsigned char 
  5102 ;;  __awmod         1    5[COMMON] unsigned char 
  5103 ;; Return value:  Size  Location     Type
  5104 ;;                  2    0[COMMON] int 
  5105 ;; Registers used:
  5106 ;;		wreg, status,2, status,0
  5107 ;; Tracked objects:
  5108 ;;		On entry : 0/0
  5109 ;;		On exit  : 0/0
  5110 ;;		Unchanged: 0/0
  5111 ;; Data sizes:     COMMON   BANK0   BANK1   BANK3   BANK2
  5112 ;;      Params:         4       0       0       0       0
  5113 ;;      Locals:         2       0       0       0       0
  5114 ;;      Temps:          1       0       0       0       0
  5115 ;;      Totals:         7       0       0       0       0
  5116 ;;Total ram usage:        7 bytes
  5117 ;; Hardware stack levels used:    1
  5118 ;; This function calls:
  5119 ;;		Nothing
  5120 ;; This function is called by:
  5121 ;;		i1_DEC_2_BCD
  5122 ;; This function uses a non-reentrant model
  5123 ;;
  5124                           
  5125                           
  5126                           ;psect for function i1___awmod
  5127  0701                     i1___awmod:	
  5128  0701                     i1l1801:	
  5129                           ;incstack = 0
  5130                           ; Regs used in i1___awmod: [wreg+status,2+status,0]
  5131                           
  5132  0701  01F6               	clrf	i1___awmod@sign
  5133  0702                     i1l1803:	
  5134  0702  1FF3               	btfss	i1___awmod@dividend+1,7
  5135  0703  2F05               	goto	u132_21
  5136  0704  2F06               	goto	u132_20
  5137  0705                     u132_21:	
  5138  0705  2F0D               	goto	i1l1809
  5139  0706                     u132_20:	
  5140  0706                     i1l1805:	
  5141  0706  09F2               	comf	i1___awmod@dividend,f
  5142  0707  09F3               	comf	i1___awmod@dividend+1,f
  5143  0708  0AF2               	incf	i1___awmod@dividend,f
  5144  0709  1903               	skipnz
  5145  070A  0AF3               	incf	i1___awmod@dividend+1,f
  5146  070B                     i1l1807:	
  5147  070B  01F6               	clrf	i1___awmod@sign
  5148  070C  0AF6               	incf	i1___awmod@sign,f
  5149  070D                     i1l1809:	
  5150  070D  1FF1               	btfss	i1___awmod@divisor+1,7
  5151  070E  2F10               	goto	u133_21
  5152  070F  2F11               	goto	u133_20
  5153  0710                     u133_21:	
  5154  0710  2F16               	goto	i1l1813
  5155  0711                     u133_20:	
  5156  0711                     i1l1811:	
  5157  0711  09F0               	comf	i1___awmod@divisor,f
  5158  0712  09F1               	comf	i1___awmod@divisor+1,f
  5159  0713  0AF0               	incf	i1___awmod@divisor,f
  5160  0714  1903               	skipnz
  5161  0715  0AF1               	incf	i1___awmod@divisor+1,f
  5162  0716                     i1l1813:	
  5163  0716  0870               	movf	i1___awmod@divisor,w
  5164  0717  0471               	iorwf	i1___awmod@divisor+1,w
  5165  0718  1903               	btfsc	3,2
  5166  0719  2F1B               	goto	u134_21
  5167  071A  2F1C               	goto	u134_20
  5168  071B                     u134_21:	
  5169  071B  2F4B               	goto	i1l1831
  5170  071C                     u134_20:	
  5171  071C                     i1l1815:	
  5172  071C  01F5               	clrf	i1___awmod@counter
  5173  071D  0AF5               	incf	i1___awmod@counter,f
  5174  071E  2F2A               	goto	i1l1821
  5175  071F                     i1l1817:	
  5176  071F  3001               	movlw	1
  5177  0720                     u135_25:	
  5178  0720  1003               	clrc
  5179  0721  0DF0               	rlf	i1___awmod@divisor,f
  5180  0722  0DF1               	rlf	i1___awmod@divisor+1,f
  5181  0723  3EFF               	addlw	-1
  5182  0724  1D03               	skipz
  5183  0725  2F20               	goto	u135_25
  5184  0726                     i1l1819:	
  5185  0726  3001               	movlw	1
  5186  0727  00F4               	movwf	??i1___awmod
  5187  0728  0874               	movf	??i1___awmod,w
  5188  0729  07F5               	addwf	i1___awmod@counter,f
  5189  072A                     i1l1821:	
  5190  072A  1FF1               	btfss	i1___awmod@divisor+1,7
  5191  072B  2F2D               	goto	u136_21
  5192  072C  2F2E               	goto	u136_20
  5193  072D                     u136_21:	
  5194  072D  2F1F               	goto	i1l1817
  5195  072E                     u136_20:	
  5196  072E                     i1l1823:	
  5197  072E  0871               	movf	i1___awmod@divisor+1,w
  5198  072F  0273               	subwf	i1___awmod@dividend+1,w
  5199  0730  1D03               	skipz
  5200  0731  2F34               	goto	u137_25
  5201  0732  0870               	movf	i1___awmod@divisor,w
  5202  0733  0272               	subwf	i1___awmod@dividend,w
  5203  0734                     u137_25:	
  5204  0734  1C03               	skipc
  5205  0735  2F37               	goto	u137_21
  5206  0736  2F38               	goto	u137_20
  5207  0737                     u137_21:	
  5208  0737  2F3E               	goto	i1l1827
  5209  0738                     u137_20:	
  5210  0738                     i1l1825:	
  5211  0738  0870               	movf	i1___awmod@divisor,w
  5212  0739  02F2               	subwf	i1___awmod@dividend,f
  5213  073A  0871               	movf	i1___awmod@divisor+1,w
  5214  073B  1C03               	skipc
  5215  073C  03F3               	decf	i1___awmod@dividend+1,f
  5216  073D  02F3               	subwf	i1___awmod@dividend+1,f
  5217  073E                     i1l1827:	
  5218  073E  3001               	movlw	1
  5219  073F                     u138_25:	
  5220  073F  1003               	clrc
  5221  0740  0CF1               	rrf	i1___awmod@divisor+1,f
  5222  0741  0CF0               	rrf	i1___awmod@divisor,f
  5223  0742  3EFF               	addlw	-1
  5224  0743  1D03               	skipz
  5225  0744  2F3F               	goto	u138_25
  5226  0745                     i1l1829:	
  5227  0745  3001               	movlw	1
  5228  0746  02F5               	subwf	i1___awmod@counter,f
  5229  0747  1D03               	btfss	3,2
  5230  0748  2F4A               	goto	u139_21
  5231  0749  2F4B               	goto	u139_20
  5232  074A                     u139_21:	
  5233  074A  2F2E               	goto	i1l1823
  5234  074B                     u139_20:	
  5235  074B                     i1l1831:	
  5236  074B  0876               	movf	i1___awmod@sign,w
  5237  074C  1903               	btfsc	3,2
  5238  074D  2F4F               	goto	u140_21
  5239  074E  2F50               	goto	u140_20
  5240  074F                     u140_21:	
  5241  074F  2F55               	goto	i1l1835
  5242  0750                     u140_20:	
  5243  0750                     i1l1833:	
  5244  0750  09F2               	comf	i1___awmod@dividend,f
  5245  0751  09F3               	comf	i1___awmod@dividend+1,f
  5246  0752  0AF2               	incf	i1___awmod@dividend,f
  5247  0753  1903               	skipnz
  5248  0754  0AF3               	incf	i1___awmod@dividend+1,f
  5249  0755                     i1l1835:	
  5250  0755  0873               	movf	i1___awmod@dividend+1,w
  5251  0756  00F1               	movwf	?i1___awmod+1
  5252  0757  0872               	movf	i1___awmod@dividend,w
  5253  0758  00F0               	movwf	?i1___awmod
  5254  0759                     i1l540:	
  5255  0759  0008               	return
  5256  075A                     __end_ofi1___awmod:	
  5257                           
  5258                           	psect	text33
  5259  05DC                     __ptext33:	
  5260 ;; *************** function i1___awdiv *****************
  5261 ;; Defined at:
  5262 ;;		line 5 in file "C:\Program Files (x86)\Microchip\xc8\v2.10\pic\sources\c90\common\awdiv.c"
  5263 ;; Parameters:    Size  Location     Type
  5264 ;;  divisor         2    0[COMMON] int 
  5265 ;;  dividend        2    2[COMMON] int 
  5266 ;; Auto vars:     Size  Location     Type
  5267 ;;  __awdiv         2    7[COMMON] int 
  5268 ;;  __awdiv         1    6[COMMON] unsigned char 
  5269 ;;  __awdiv         1    5[COMMON] unsigned char 
  5270 ;; Return value:  Size  Location     Type
  5271 ;;                  2    0[COMMON] int 
  5272 ;; Registers used:
  5273 ;;		wreg, status,2, status,0
  5274 ;; Tracked objects:
  5275 ;;		On entry : 0/0
  5276 ;;		On exit  : 0/0
  5277 ;;		Unchanged: 0/0
  5278 ;; Data sizes:     COMMON   BANK0   BANK1   BANK3   BANK2
  5279 ;;      Params:         4       0       0       0       0
  5280 ;;      Locals:         4       0       0       0       0
  5281 ;;      Temps:          1       0       0       0       0
  5282 ;;      Totals:         9       0       0       0       0
  5283 ;;Total ram usage:        9 bytes
  5284 ;; Hardware stack levels used:    1
  5285 ;; This function calls:
  5286 ;;		Nothing
  5287 ;; This function is called by:
  5288 ;;		i1_DEC_2_BCD
  5289 ;; This function uses a non-reentrant model
  5290 ;;
  5291                           
  5292                           
  5293                           ;psect for function i1___awdiv
  5294  05DC                     i1___awdiv:	
  5295  05DC                     i1l1757:	
  5296                           ;incstack = 0
  5297                           ; Regs used in i1___awdiv: [wreg+status,2+status,0]
  5298                           
  5299  05DC  01F6               	clrf	i1___awdiv@sign
  5300  05DD                     i1l1759:	
  5301  05DD  1FF1               	btfss	i1___awdiv@divisor+1,7
  5302  05DE  2DE0               	goto	u122_21
  5303  05DF  2DE1               	goto	u122_20
  5304  05E0                     u122_21:	
  5305  05E0  2DE8               	goto	i1l1765
  5306  05E1                     u122_20:	
  5307  05E1                     i1l1761:	
  5308  05E1  09F0               	comf	i1___awdiv@divisor,f
  5309  05E2  09F1               	comf	i1___awdiv@divisor+1,f
  5310  05E3  0AF0               	incf	i1___awdiv@divisor,f
  5311  05E4  1903               	skipnz
  5312  05E5  0AF1               	incf	i1___awdiv@divisor+1,f
  5313  05E6                     i1l1763:	
  5314  05E6  01F6               	clrf	i1___awdiv@sign
  5315  05E7  0AF6               	incf	i1___awdiv@sign,f
  5316  05E8                     i1l1765:	
  5317  05E8  1FF3               	btfss	i1___awdiv@dividend+1,7
  5318  05E9  2DEB               	goto	u123_21
  5319  05EA  2DEC               	goto	u123_20
  5320  05EB                     u123_21:	
  5321  05EB  2DF5               	goto	i1l1771
  5322  05EC                     u123_20:	
  5323  05EC                     i1l1767:	
  5324  05EC  09F2               	comf	i1___awdiv@dividend,f
  5325  05ED  09F3               	comf	i1___awdiv@dividend+1,f
  5326  05EE  0AF2               	incf	i1___awdiv@dividend,f
  5327  05EF  1903               	skipnz
  5328  05F0  0AF3               	incf	i1___awdiv@dividend+1,f
  5329  05F1                     i1l1769:	
  5330  05F1  3001               	movlw	1
  5331  05F2  00F4               	movwf	??i1___awdiv
  5332  05F3  0874               	movf	??i1___awdiv,w
  5333  05F4  06F6               	xorwf	i1___awdiv@sign,f
  5334  05F5                     i1l1771:	
  5335  05F5  01F7               	clrf	i1___awdiv@quotient
  5336  05F6  01F8               	clrf	i1___awdiv@quotient+1
  5337  05F7                     i1l1773:	
  5338  05F7  0870               	movf	i1___awdiv@divisor,w
  5339  05F8  0471               	iorwf	i1___awdiv@divisor+1,w
  5340  05F9  1903               	btfsc	3,2
  5341  05FA  2DFC               	goto	u124_21
  5342  05FB  2DFD               	goto	u124_20
  5343  05FC                     u124_21:	
  5344  05FC  2E34               	goto	i1l1793
  5345  05FD                     u124_20:	
  5346  05FD                     i1l1775:	
  5347  05FD  01F5               	clrf	i1___awdiv@counter
  5348  05FE  0AF5               	incf	i1___awdiv@counter,f
  5349  05FF  2E0B               	goto	i1l1781
  5350  0600                     i1l1777:	
  5351  0600  3001               	movlw	1
  5352  0601                     u125_25:	
  5353  0601  1003               	clrc
  5354  0602  0DF0               	rlf	i1___awdiv@divisor,f
  5355  0603  0DF1               	rlf	i1___awdiv@divisor+1,f
  5356  0604  3EFF               	addlw	-1
  5357  0605  1D03               	skipz
  5358  0606  2E01               	goto	u125_25
  5359  0607                     i1l1779:	
  5360  0607  3001               	movlw	1
  5361  0608  00F4               	movwf	??i1___awdiv
  5362  0609  0874               	movf	??i1___awdiv,w
  5363  060A  07F5               	addwf	i1___awdiv@counter,f
  5364  060B                     i1l1781:	
  5365  060B  1FF1               	btfss	i1___awdiv@divisor+1,7
  5366  060C  2E0E               	goto	u126_21
  5367  060D  2E0F               	goto	u126_20
  5368  060E                     u126_21:	
  5369  060E  2E00               	goto	i1l1777
  5370  060F                     u126_20:	
  5371  060F                     i1l1783:	
  5372  060F  3001               	movlw	1
  5373  0610                     u127_25:	
  5374  0610  1003               	clrc
  5375  0611  0DF7               	rlf	i1___awdiv@quotient,f
  5376  0612  0DF8               	rlf	i1___awdiv@quotient+1,f
  5377  0613  3EFF               	addlw	-1
  5378  0614  1D03               	skipz
  5379  0615  2E10               	goto	u127_25
  5380  0616  0871               	movf	i1___awdiv@divisor+1,w
  5381  0617  0273               	subwf	i1___awdiv@dividend+1,w
  5382  0618  1D03               	skipz
  5383  0619  2E1C               	goto	u128_25
  5384  061A  0870               	movf	i1___awdiv@divisor,w
  5385  061B  0272               	subwf	i1___awdiv@dividend,w
  5386  061C                     u128_25:	
  5387  061C  1C03               	skipc
  5388  061D  2E1F               	goto	u128_21
  5389  061E  2E20               	goto	u128_20
  5390  061F                     u128_21:	
  5391  061F  2E27               	goto	i1l1789
  5392  0620                     u128_20:	
  5393  0620                     i1l1785:	
  5394  0620  0870               	movf	i1___awdiv@divisor,w
  5395  0621  02F2               	subwf	i1___awdiv@dividend,f
  5396  0622  0871               	movf	i1___awdiv@divisor+1,w
  5397  0623  1C03               	skipc
  5398  0624  03F3               	decf	i1___awdiv@dividend+1,f
  5399  0625  02F3               	subwf	i1___awdiv@dividend+1,f
  5400  0626                     i1l1787:	
  5401  0626  1477               	bsf	i1___awdiv@quotient,0
  5402  0627                     i1l1789:	
  5403  0627  3001               	movlw	1
  5404  0628                     u129_25:	
  5405  0628  1003               	clrc
  5406  0629  0CF1               	rrf	i1___awdiv@divisor+1,f
  5407  062A  0CF0               	rrf	i1___awdiv@divisor,f
  5408  062B  3EFF               	addlw	-1
  5409  062C  1D03               	skipz
  5410  062D  2E28               	goto	u129_25
  5411  062E                     i1l1791:	
  5412  062E  3001               	movlw	1
  5413  062F  02F5               	subwf	i1___awdiv@counter,f
  5414  0630  1D03               	btfss	3,2
  5415  0631  2E33               	goto	u130_21
  5416  0632  2E34               	goto	u130_20
  5417  0633                     u130_21:	
  5418  0633  2E0F               	goto	i1l1783
  5419  0634                     u130_20:	
  5420  0634                     i1l1793:	
  5421  0634  0876               	movf	i1___awdiv@sign,w
  5422  0635  1903               	btfsc	3,2
  5423  0636  2E38               	goto	u131_21
  5424  0637  2E39               	goto	u131_20
  5425  0638                     u131_21:	
  5426  0638  2E3E               	goto	i1l1797
  5427  0639                     u131_20:	
  5428  0639                     i1l1795:	
  5429  0639  09F7               	comf	i1___awdiv@quotient,f
  5430  063A  09F8               	comf	i1___awdiv@quotient+1,f
  5431  063B  0AF7               	incf	i1___awdiv@quotient,f
  5432  063C  1903               	skipnz
  5433  063D  0AF8               	incf	i1___awdiv@quotient+1,f
  5434  063E                     i1l1797:	
  5435  063E  0878               	movf	i1___awdiv@quotient+1,w
  5436  063F  00F1               	movwf	?i1___awdiv+1
  5437  0640  0877               	movf	i1___awdiv@quotient,w
  5438  0641  00F0               	movwf	?i1___awdiv
  5439  0642                     i1l527:	
  5440  0642  0008               	return
  5441  0643                     __end_ofi1___awdiv:	
  5442  007E                     btemp	set	126	;btemp
  5443  007E                     wtemp0	set	126


Data Sizes:
    Strings     17
    Constant    76
    Data        18
    BSS         17
    Persistent  0
    Stack       0

Auto Spaces:
    Space          Size  Autos    Used
    COMMON           14     13      13
    BANK0            80     32      67
    BANK1            80      0       0
    BANK3            96      0       0
    BANK2            96      0       0

Pointer List with Targets:

    LCDWRITE@P	PTR const unsigned char  size(1) Largest target is 15
		 -> STR_3(CODE[2]), STR_2(CODE[2]), STR_1(CODE[15]), 


Critical Paths under _main in COMMON

    None.

Critical Paths under _ISR in COMMON

    i1_Set_Time_Date->i1_DEC_2_BCD
    i1_I2C_Write->i1_DEC_2_BCD
    i1_DEC_2_BCD->i1___awdiv

Critical Paths under _main in BANK0

    _main->_I2C_Initialize
    _config->_delay1
    _Update_Current_Date_Time->_I2C_Write
    _BCD_2_DEC->_I2C_Read
    _BCD_2_DEC->___wmul
    _Set_Time_Date->_I2C_Write
    _I2C_Write->_DEC_2_BCD
    _DEC_2_BCD->___awdiv
    _LCDNUM->___awdiv
    _I2C_Initialize->___lldiv
    _CLRDISP->_delay1
    _CLOCK->_delay2

Critical Paths under _ISR in BANK0

    i1_Set_Time_Date->i1_I2C_Write
    i1_I2C_Write->i1_DEC_2_BCD

Critical Paths under _main in BANK1

    None.

Critical Paths under _ISR in BANK1

    None.

Critical Paths under _main in BANK3

    None.

Critical Paths under _ISR in BANK3

    None.

Critical Paths under _main in BANK2

    None.

Critical Paths under _ISR in BANK2

    None.

Call Graph Tables:

 ---------------------------------------------------------------------------------
 (Depth) Function   	        Calls       Base Space   Used Autos Params    Refs
 ---------------------------------------------------------------------------------
 (0) _main                                                 3     3      0    7180
                                             29 BANK0      3     3      0
                            _CLRDISP
                             _CURSOR
                     _I2C_Initialize
                             _LCDNUM
                           _LCDWRITE
                      _Set_Time_Date
           _Update_Current_Date_Time
                             _config
 ---------------------------------------------------------------------------------
 (1) _config                                               0     0      0       0
                              _CLOCK
                             _delay1
 ---------------------------------------------------------------------------------
 (1) _Update_Current_Date_Time                             0     0      0    2050
                          _BCD_2_DEC
                          _I2C_Begin
                            _I2C_End
                           _I2C_Read
                        _I2C_Restart
                          _I2C_Write
 ---------------------------------------------------------------------------------
 (2) _I2C_Restart                                          0     0      0       0
                           _I2C_Hold
 ---------------------------------------------------------------------------------
 (2) _I2C_Read                                             6     4      2     577
                                              7 BANK0      6     4      2
                           _I2C_Hold
 ---------------------------------------------------------------------------------
 (2) _BCD_2_DEC                                            6     4      2     539
                                             13 BANK0      6     4      2
                           _I2C_Read (ARG)
                             ___wmul
 ---------------------------------------------------------------------------------
 (3) ___wmul                                               6     2      4     244
                                              7 BANK0      6     2      4
 ---------------------------------------------------------------------------------
 (1) _Set_Time_Date                                        0     0      0    2433
                          _DEC_2_BCD
                          _I2C_Begin
                            _I2C_End
                          _I2C_Write
 ---------------------------------------------------------------------------------
 (2) _I2C_Write                                            2     0      2     934
                                             22 BANK0      2     0      2
                          _DEC_2_BCD (ARG)
                           _I2C_Hold
 ---------------------------------------------------------------------------------
 (2) _I2C_End                                              0     0      0       0
                           _I2C_Hold
 ---------------------------------------------------------------------------------
 (2) _I2C_Begin                                            0     0      0       0
                           _I2C_Hold
 ---------------------------------------------------------------------------------
 (3) _I2C_Hold                                             0     0      0       0
 ---------------------------------------------------------------------------------
 (2) _DEC_2_BCD                                            6     4      2    1499
                                             16 BANK0      6     4      2
                            ___awdiv
                            ___awmod
 ---------------------------------------------------------------------------------
 (1) _LCDWRITE                                             6     6      0     279
                                              9 BANK0      6     6      0
                              _CLOCK
 ---------------------------------------------------------------------------------
 (1) _LCDNUM                                               5     3      2    1656
                                             16 BANK0      5     3      2
                            _LCDCHAR
                            ___awdiv
                            ___awmod
 ---------------------------------------------------------------------------------
 (3) ___awmod                                              7     3      4     600
                                              7 BANK0      7     3      4
 ---------------------------------------------------------------------------------
 (3) ___awdiv                                              9     5      4     604
                                              7 BANK0      9     5      4
 ---------------------------------------------------------------------------------
 (2) _LCDCHAR                                              5     5      0      90
                                              9 BANK0      5     5      0
                              _CLOCK
 ---------------------------------------------------------------------------------
 (1) _I2C_Initialize                                       8     4      4     412
                                             21 BANK0      8     4      4
                            ___lldiv
 ---------------------------------------------------------------------------------
 (2) ___lldiv                                             14     6      8     314
                                              7 BANK0     14     6      8
 ---------------------------------------------------------------------------------
 (1) _CURSOR                                               4     3      1     350
                                              9 BANK0      4     3      1
                              _CLOCK
 ---------------------------------------------------------------------------------
 (1) _CLRDISP                                              0     0      0       0
                              _CLOCK
                             _delay1
 ---------------------------------------------------------------------------------
 (2) _delay1                                               2     2      0       0
                                              7 BANK0      2     2      0
 ---------------------------------------------------------------------------------
 (2) _CLOCK                                                0     0      0       0
                             _delay2
 ---------------------------------------------------------------------------------
 (3) _delay2                                               2     2      0       0
                                              7 BANK0      2     2      0
 ---------------------------------------------------------------------------------
 Estimated maximum stack depth 3
 ---------------------------------------------------------------------------------
 (Depth) Function   	        Calls       Base Space   Used Autos Params    Refs
 ---------------------------------------------------------------------------------
 (5) _ISR                                                  3     3      0    1101
                                              4 BANK0      3     3      0
                    i1_Set_Time_Date
 ---------------------------------------------------------------------------------
 (6) i1_Set_Time_Date                                      0     0      0    1101
                        i1_DEC_2_BCD
                        i1_I2C_Begin
                          i1_I2C_End
                        i1_I2C_Write
 ---------------------------------------------------------------------------------
 (7) i1_I2C_Write                                          2     0      2     256
                                              2 BANK0      2     0      2
                        i1_DEC_2_BCD (ARG)
                         i1_I2C_Hold
 ---------------------------------------------------------------------------------
 (7) i1_I2C_End                                            0     0      0       0
                         i1_I2C_Hold
 ---------------------------------------------------------------------------------
 (7) i1_I2C_Begin                                          0     0      0       0
                         i1_I2C_Hold
 ---------------------------------------------------------------------------------
 (8) i1_I2C_Hold                                           0     0      0       0
 ---------------------------------------------------------------------------------
 (7) i1_DEC_2_BCD                                          6     4      2     845
                                              9 COMMON     4     2      2
                                              0 BANK0      2     2      0
                          i1___awdiv
                          i1___awmod
 ---------------------------------------------------------------------------------
 (8) i1___awmod                                            7     3      4     348
                                              0 COMMON     7     3      4
 ---------------------------------------------------------------------------------
 (8) i1___awdiv                                            9     5      4     352
                                              0 COMMON     9     5      4
 ---------------------------------------------------------------------------------
 Estimated maximum stack depth 8
 ---------------------------------------------------------------------------------

 Call Graph Graphs:

 _main (ROOT)
   _CLRDISP
     _CLOCK
       _delay2
     _delay1
   _CURSOR
     _CLOCK
       _delay2
   _I2C_Initialize
     ___lldiv
   _LCDNUM
     _LCDCHAR
       _CLOCK
         _delay2
     ___awdiv
     ___awmod
   _LCDWRITE
     _CLOCK
       _delay2
   _Set_Time_Date
     _DEC_2_BCD
       ___awdiv
       ___awmod
     _I2C_Begin
       _I2C_Hold
     _I2C_End
       _I2C_Hold
     _I2C_Write
       _DEC_2_BCD (ARG)
         ___awdiv
         ___awmod
       _I2C_Hold (ARG)
   _Update_Current_Date_Time
     _BCD_2_DEC
       _I2C_Read (ARG)
         _I2C_Hold
       ___wmul (ARG)
     _I2C_Begin
       _I2C_Hold
     _I2C_End
       _I2C_Hold
     _I2C_Read
       _I2C_Hold
     _I2C_Restart
       _I2C_Hold
     _I2C_Write
       _DEC_2_BCD (ARG)
         ___awdiv
         ___awmod
       _I2C_Hold (ARG)
   _config
     _CLOCK
       _delay2
     _delay1

 _ISR (ROOT)
   i1_Set_Time_Date
     i1_DEC_2_BCD
       i1___awdiv
       i1___awmod
     i1_I2C_Begin
       i1_I2C_Hold
     i1_I2C_End
       i1_I2C_Hold
     i1_I2C_Write
       i1_DEC_2_BCD (ARG)
         i1___awdiv
         i1___awmod
       i1_I2C_Hold (ARG)

 Address spaces:
Name               Size   Autos  Total    Cost      Usage
BANK3               60      0       0       9        0.0%
BITBANK3            60      0       0       8        0.0%
SFR3                 0      0       0       4        0.0%
BITSFR3              0      0       0       4        0.0%
BANK2               60      0       0      11        0.0%
BITBANK2            60      0       0      10        0.0%
SFR2                 0      0       0       5        0.0%
BITSFR2              0      0       0       5        0.0%
BANK1               50      0       0       7        0.0%
BITBANK1            50      0       0       6        0.0%
SFR1                 0      0       0       2        0.0%
BITSFR1              0      0       0       2        0.0%
BANK0               50     20      43       5       83.8%
BITBANK0            50      0       0       4        0.0%
SFR0                 0      0       0       1        0.0%
BITSFR0              0      0       0       1        0.0%
COMMON               E      D       D       1       92.9%
BITCOMMON            E      0       0       0        0.0%
CODE                 0      0       0       0        0.0%
DATA                 0      0      50      12        0.0%
ABS                  0      0      50       3        0.0%
NULL                 0      0       0       0        0.0%
STACK                0      0       0       2        0.0%
EEDATA             100      0       0       0        0.0%


Microchip Technology PIC Macro Assembler V2.10 build 88905656 
Symbol Table                                                                                   Sat Feb 13 00:53:27 2021

               __size_of_I2C_Begin 0009                                  pc 0002  
                      __CFG_CP$OFF 0000                 __size_of_I2C_Write 000F  
                     ___awdiv@sign 002D                 __size_of_DEC_2_BCD 003A  
                               fsr 0004                ___wmul@multiplicand 0029  
                      ?i1_I2C_Hold 0070                    i1DEC_2_BCD@data 0020  
                              l121 0F73                                l130 0D7C  
                              l205 0E55                                l133 0D8E  
                              l142 0F03                                l214 050A  
                              l127 0DC0                                l151 0ED4  
                              l208 0E31                                l136 0D85  
                              l160 0385                                l170 0D9A  
                              l410 05DB                                l154 0FAD  
                              l139 0DDE                                l252 0143  
                              l173 0DEF                                l181 0FFF  
                              l157 0413                                l261 01E5  
                              l245 01E5                                l270 0238  
                              l246 010F                                l167 0DA6  
                              l255 015D                                l176 0EA7  
                              l249 0129                                l187 07FE  
                              l540 0700                                l284 02D2  
                              l277 0285                                l374 0E64  
                              l527 0573                                l376 0E7C  
                              _GIE 005F                                _RB4 0034  
                              _RD0 0040                                _RD1 0041  
                              _RB6 0036                                _RC4 003C  
                              _RD2 0042                                _RC5 003D  
                              _RD3 0043                                _RD4 0044  
                              _RC6 003E                                _RD5 0045  
                              _RC7 003F                                _PEN 048A  
                     __CFG_CPD$OFF 0000                                _ISR 075A  
                              _SEN 0488                                u950 0DBC  
                              u951 0DBB                                _NUM 0052  
                              u960 0DC0                                u961 0DBF  
                              u970 0E5E                                u971 0E5D  
                              u985 0E65                                u995 0E6C  
                  __end_of_I2C_End 0D86                                _min 0050  
                              _sec 0060                                fsr0 0004  
                              indf 0000                       ___awmod@sign 002D  
                     __CFG_FOSC$HS 0000                    __end_of_CLRDISP 0E32  
                  __end_of_LCDCHAR 0EA8                       ?i1_I2C_Begin 0070  
             __size_of_I2C_Restart 0009                       __CFG_LVP$OFF 0000  
                             ?_ISR 0070                       ?i1_I2C_Write 0022  
                             l2001 0E4A                               l2003 0E50  
                             l2021 0E21                               l2015 0E15  
                             l2031 04AF                               l2017 0E19  
                             l2041 04D4                               l2033 04B8  
                             l2025 04A2                               l2201 00B4  
                             l2019 0E1C                               l2051 04EA  
                             l2043 04D9                               l2035 04BD  
                             l2027 04A8                               l2211 00DD  
                             l2203 00BA                               l2061 0505  
                             l2053 04EF                               l2045 04DE  
                             l2037 04C6                               l2029 04AA  
                             l2301 02B5                               l2221 0124  
                             l2213 00FC                               l2205 00C5  
                             l2141 0039                               l2055 04F4  
                             l2047 04E1                               l2039 04CB  
                             l2303 02BC                               l2231 0147  
                             l2223 0128                               l2215 010A  
                             l2207 00CB                               l2151 004B  
                             l2143 003D                               l2135 002D  
                             l2057 04FC                               l2049 04E6  
                             l2305 02CB                               l2241 0177  
                             l2233 0158                               l2225 012D  
                             l2217 010E                               l2209 00D6  
                             l2161 0058                               l2153 004C  
                             l2145 0044                               l2137 0033  
                             l2059 0500                               l2307 02D8  
                             l2251 01BA                               l2243 0186  
                             l2235 015C                               l2227 013E  
                             l2219 0113                               l2171 0061  
                             l2163 0059                               l2155 0050  
                             l2147 0046                               l2139 0037  
                             l1701 0558                               l2309 02D9  
                             l2261 01F1                               l2253 01BF  
                             l2245 0195                               l2237 0161  
                             l2229 0142                               l2181 007C  
                             l2173 0062                               l2165 005A  
                             l2157 0054                               l2149 0047  
                             l1703 055F                               l2271 0222  
                             l2263 01F8                               l2255 01CE  
                             l2247 019C                               l2239 0172  
                             l2191 0089                               l2183 0081  
                             l2175 0063                               l2167 005D  
                             l2159 0057                               l1705 0565  
                             l1721 06B4                               l1713 06A6  
                             l1641 0DB4                               l2281 0252  
                             l2273 0231                               l2265 0205  
                             l2257 01D5                               l2249 01AB  
                             l2193 008E                               l2185 0084  
                             l2177 0072                               l2169 0060  
                             l1651 0DE7                               l1707 056A  
                             l1731 06CD                               l1723 06B8  
                             l1715 06A9                               l1643 0DB4  
                             l2291 028B                               l2283 0259  
                             l2275 023E                               l2267 020C  
                             l2195 009A                               l2187 0085  
                             l2179 0077                               l1637 0D8F  
                             l1901 0E9C                               l1709 056F  
                             l1741 06EC                               l1733 06D1  
                             l1725 06BD                               l1717 06AD  
                             l1645 0DBC                               l1661 0E6B  
                             l2285 0268                               l2293 028C  
                             l2269 021B                               l2277 023F  
                             l2197 00A0                               l2189 0088  
                             l1647 0DDF                               l1911 0596  
                             l1903 0EA2                               l1671 050E  
                             l1735 06D5                               l1727 06C3  
                             l1743 06F2                               l1719 06B2  
                             l1663 0E72                               l1655 0E56  
                             l2295 0292                               l2287 026F  
                             l2279 0245                               l2199 00A9  
                             l1649 0DE2                               l1921 05C4  
                             l1913 059A                               l1905 0574  
                             l1681 0522                               l1673 0512  
                             l1745 06F7                               l1737 06DF  
                             l1729 06C6                               l1841 0D79  
                             l1665 0E78                               l1657 0E5A  
                             l2297 029F                               l2289 027E  
                             l1923 05CD                               l1915 05A3  
                             l1907 0586                               l1691 0538  
                             l1683 0526                               l1675 0517  
                             l1747 06FC                               l1739 06E5  
                             l1851 0DD0                               l1659 0E5E  
                             l1843 0D86                               l2299 02A6  
                             l1917 05B5                               l1909 0589  
                             l1925 05D3                               l1693 053C  
                             l1685 0528                               l1677 0519  
                             l1669 050B                               l1853 0DD5  
                             l1861 0ED5                               l1845 0D8B  
                             l1919 05C3                               l1695 0540  
                             l1687 052E                               l1679 051D  
                             l1839 0D74                               l1847 0D7D  
                             l1855 0DD9                               l1871 0EFC  
                             l1863 0EDA                               l1961 0F71  
                             l1953 0F3A                               l1697 0551  
                             l1689 0531                               l1881 0F74  
                             l1849 0D82                               l1857 0DDE  
                             l1865 0EE2                               l1963 0F72  
                             l1955 0F3E                               l1891 0E80  
                             l1699 0557                               l1971 0FBD  
                             l1883 0FA9                               l1875 0EA8  
                             l1867 0EEB                               l1957 0F41  
                             l1893 0E8D                               l1973 0FF6  
                             l1981 07D7                               l1965 0386  
                             l1877 0ED0                               l1869 0EF0  
                             l1887 0D9B                               l1959 0F42  
                             l1895 0E92                               l1983 07DB  
                             l1991 07F1                               l1975 07B4  
                             l1967 02E2                               l1993 0E35  
                             l1897 0E93                               l1969 0FAE  
                             l1985 07E0                               l1977 07B6  
                             l1899 0E97                               l1987 07E6  
                             l1979 07D6                               l1997 0E37  
                             l1989 07EB                               l1999 0E45  
                             STR_1 0695                       ?i1_DEC_2_BCD 0079  
                             STR_2 06A4                               STR_3 06A4  
                             u1000 0E78                               u1001 0E77  
                             u1010 0512                               u1011 0511  
                             u1100 056A                               u1020 051D  
                             u1101 0569                               u1021 051C  
                             u1030 052E                               u1110 06AD  
                             u1031 052D                               u1111 06AC  
                             u1120 06B8                               u1121 06B7  
                             u1050 0540                               u1130 06C3  
                             u1051 053F                               u1131 06C2  
                             u1045 0532                               u1070 0551  
                             u1150 06D5                               u1071 0550  
                             u1151 06D4                               u1160 06DF  
                             u1065 0541                               u1161 06DE  
                             u1145 06C7                               u1090 0565  
                             u1410 0EF9                               u1091 0564  
                             u1075 054D                               u1411 0EF5  
                             u1500 05D3                               u1180 06F2  
                             u1501 05D2                               u1085 0559  
                             u1181 06F1                               u1165 06DB  
                             u1510 0F52                               u1190 06F7  
                             u1191 06F6                               u1175 06E6  
                             u1440 0586                               u1520 0FBD  
                             u1424 0EFC                               u1441 0585  
                             u1521 0FBC                               u1515 0F4D  
                             u1435 0E83                               u1460 059A  
                             u1540 07FE                               u1700 0161  
                             u1620 00DD                               u1461 0599  
                             u1525 0FB9                               u1541 07FD  
                             u1701 0160                               u1621 00DC  
                             u1710 0186                               u1630 00E5  
                             u1455 058B                               u1535 07C0  
                             u1711 0185                               u1631 00E1  
                             u1480 05B5                               u1800 0231  
                             u1720 0195                               u1640 00EF  
                             u1481 05B4                               u1801 0230  
                             u1721 0194                               u1641 00EB  
                             u1810 0245                               u1730 01AB  
                             u1650 00F9                               u1555 0E3E  
                             u1475 059C                               u1811 0244  
                             u1731 01AA                               u1715 0182  
                             u1651 00F5                               u1820 0252  
                             u1740 01BA                               u1644 00E8  
                             u1485 05B1                               u1821 0251  
                             u1805 022D                               u1741 01B9  
                             u1725 0191                               u1830 0268  
                             u1750 01CE                               u1670 0113  
                             u1654 00F2                               u1495 05C5  
                             u1831 0267                               u1751 01CD  
                             u1735 01A7                               u1671 0112  
                             u1840 027E                               u1760 01E4  
                             u1680 012D                               u1664 00FC  
                             u1841 027D                               u1825 024E  
                             u1761 01E3                               u1745 01B6  
                             u1681 012C                               u1850 0292  
                             u1770 01F8                               u1690 0147  
                             u1851 0291                               u1835 0264  
                             u1771 01F7                               u1755 01CA  
                             u1691 0146                               u1907 0117  
                             u1860 029F                               u1780 0205  
                             u1861 029E                               u1845 027A  
                             u1781 0204                               u1765 01E0  
                             u1917 0131                               u1870 02B5  
                             u1790 021B                               u1871 02B4  
                             u1791 021A                               u1927 014B  
                             u1880 02CB                               u1881 02CA  
                             u1865 029B                               u1785 0201  
                             u1937 0165                               u1875 02B1  
                             u1795 0217                               u1947 01EC  
                             _PEIE 005E                               u1957 0DA1  
                             u1885 02C7                               u1967 0D95  
                             u1897 0104                               _RCEN 048B  
                             _TMR0 0001                               _TMR1 000E  
                             _RSEN 0489                       __CFG_WRT$OFF 0000  
                             _main 002D                               _hour 004E  
                             _logo 0040                   __end_of_I2C_Hold 0DC1  
                 __end_of_I2C_Read 0F04                               btemp 007E  
                             start 0010                 __size_ofi1_I2C_End 0009  
                            ??_ISR 0024                   __end_of_LCDWRITE 07FF  
                            ?_main 0070                     i1___awdiv@sign 0076  
                            _ACKEN 048C                              _ACKDT 048D  
                  __end_of___awdiv 0574                      __CFG_WDTE$OFF 0000  
                  __end_of___awmod 0701                              _CLOCK 0DDF  
                  __end_of___lldiv 05DC                    ___awdiv@divisor 0027  
                            _T1CON 0010                              i1l130 0D6A  
                            i1l127 0DB3                              i1l136 0D73  
                            i1l154 0F39                              i1l139 0DCF  
                            i1l157 04A1                              i1l239 07A8  
                            i1l540 0759                              i1l527 0642  
                  ___awdiv@counter 002C                              _PORTB 0006  
                            _PORTD 0008                              _TRISA 0085  
                            _TRISB 0086                              _TRISD 0088  
                            _SSPIE 0463                     i1___awmod@sign 0076  
                __end_of_BCD_2_DEC 0ED5                  __end_of_I2C_Begin 0D7D  
                            _errno 0056                  __end_of_I2C_Write 0DDF  
                   __CFG_BOREN$OFF 0000                              pclath 000A  
                __end_of_DEC_2_BCD 0FAE                              status 0003  
                            wtemp0 007E                 __size_ofi1___awdiv 0067  
               __size_ofi1___awmod 0059                __size_ofi1_I2C_Hold 000D  
                  __initialization 0013                       __end_of_main 02E2  
                        ??_I2C_End 0027                             ??_main 003D  
                        ??_CLRDISP 0029                          ??_LCDCHAR 0029  
                           ?_CLOCK 0070                  __end_ofi1_I2C_End 0D74  
                           _ADCON0 001F                             _ADCON1 009F  
                           _ADRESH 001E                             _ADRESL 009E  
                 ___awdiv@dividend 0029                             _LCDNUM 0FAE  
                           i1l2111 076B                             i1l2121 0792  
                           i1l2113 0774                             i1l2131 079F  
                           i1l2123 0796                             i1l2115 0778  
                           i1l2107 075A                             i1l2133 07A5  
                           i1l2125 0797                             i1l2117 077C  
                           i1l2109 075E                             i1l2127 0798  
                           i1l2119 0789                             u120_20 0DAF  
                           u120_21 0DAE                             i1l2065 0414  
                           i1l2129 079A                             u121_20 0DB3  
                           i1l1801 0701                             u121_21 0DB2  
                           i1l1811 0711                             i1l1803 0702  
                           i1l1821 072A                             i1l1813 0716  
                           i1l1805 0706                             i1l1823 072E  
                           i1l1815 071C                             i1l1831 074B  
                           i1l1807 070B                             i1l1751 0DA7  
                           u130_20 0634                             u122_20 05E1  
                           u130_21 0633                             i1l1761 05E1  
                           u122_21 05E0                             i1l1833 0750  
                           i1l1825 0738                             i1l1817 071F  
                           i1l1809 070D                             i1l1753 0DA7  
                           i1l1771 05F5                             i1l1763 05E6  
                           i1l1835 0755                             i1l1827 073E  
                           i1l1819 0726                             i1l1755 0DAF  
                           i1l1931 0D67                             i1l1781 060B  
                           i1l1773 05F7                             i1l1765 05E8  
                           i1l1757 05DC                             i1l1829 0745  
                           i1l1933 0D6B                             i1l1941 0DCA  
                           i1l1791 062E                             i1l1783 060F  
                           i1l1775 05FD                             i1l1767 05EC  
                           i1l1759 05DD                             i1l1935 0D70  
                           i1l1943 0DCF                             u131_20 0639  
                           u123_20 05EC                             u131_21 0638  
                           i1l1785 0620                             i1l1777 0600  
                           i1l1793 0634                             i1l1769 05F1  
                           u123_21 05EB                             i1l1929 0D62  
                           i1l1937 0DC1                             i1l1795 0639  
                           i1l1787 0626                             i1l1779 0607  
                           i1l1947 0F04                             i1l1939 0DC6  
                           i1l1797 063E                             i1l1789 0627  
                           i1l1949 0F35                             u124_20 05FD  
                           u140_20 0750                             u132_20 0706  
                           u124_21 05FC                             u140_21 074F  
                           u132_21 0705                             u133_20 0711  
                           u133_21 0710                             _CURSOR 0E32  
                           u125_25 0601                             u126_20 060F  
                           u134_20 071C                             u126_21 060E  
                           u134_21 071B                             u127_25 0610  
                           u135_25 0720                             u128_20 0620  
                           u136_20 072E                             u160_20 077C  
                           u128_21 061F                             u136_21 072D  
                           u160_21 077B                             u128_25 061C  
                           u137_20 0738                             u161_20 0789  
                           u137_21 0737                             u161_21 0788  
                           u129_25 0628                             u137_25 0734  
                           u161_25 0785                             u138_25 073F  
                           u139_20 074B                             u139_21 074A  
                           u158_20 075E                             u158_21 075D  
                           u159_20 076B                             u159_21 076A  
                           u159_25 0767                             _TMR0IE 005D  
                           _TMR0IF 005A                             _TMR1IE 0460  
                           _TMR1IF 0060                             _TMR1ON 0080  
                           _SSPADD 0093                             _TRISA0 0428  
                           _TRISA1 0429                             _TRISA2 042A  
                           _TRISA3 042B                             _TRISC0 0438  
                           _TRISC3 043B                             _TRISC4 043C  
                           _TRISD4 0444                             _TRISD5 0445  
                           _SSPCON 0014                             _SSPBUF 0013  
                   __CFG_PWRTE$OFF 0000                             ___wmul 0E56  
                        ??___awdiv 002B                          ??___awmod 002B  
                           _delay1 0D9B                             _delay2 0D8F  
                        ??___lldiv 002F                             _config 04A2  
                 ___awdiv@quotient 002E                    ___awmod@divisor 0027  
                  ___awmod@counter 002C            __size_of_I2C_Initialize 003A  
                           _thresh 004C           __size_ofi1_Set_Time_Date 008E  
 __end_of_Update_Current_Date_Time 0386                  __end_ofi1___awdiv 0643  
                __end_ofi1___awmod 075A                          ?_I2C_Hold 0070  
                        ?_I2C_Read 0027                             saved_w 007E  
             __size_ofi1_I2C_Begin 0009                          LCDWRITE@P 002E  
                        LCDWRITE@i 002D                          LCDWRITE@j 002B  
                        LCDWRITE@k 002C                          ?_LCDWRITE 0070  
                 __end_ofexp@coeff 0671                   __end_oflog@coeff 0695  
          __end_of__initialization 0029               __size_ofi1_I2C_Write 000F  
             __size_ofi1_DEC_2_BCD 0036                       BCD_2_DEC@num 002D  
                    __end_of_CLOCK 0DF0                     __pcstackCOMMON 0070  
                     __pidataBANK0 0DF0                       ??i1_I2C_Hold 0070  
                          ??_CLOCK 0029                         ??_I2C_Hold 0027  
                       ??_I2C_Read 0029                            LCDNUM@t 0033  
                          LCDNUM@u 0034                            ?_LCDNUM 0030  
                       __pbssBANK0 0052                         ??_LCDWRITE 0029  
                          ?_CURSOR 0029                            CURSOR@a 002C  
                          CURSOR@b 0029                 __end_ofi1_I2C_Hold 0DB4  
                       __pmaintext 002D                       I2C_Read@data 002B  
                       _biogas_val 005A                            ?___wmul 0027  
                          ?_delay1 0070                            ?_delay2 0070  
                       __pintentry 0004                            ?_config 0070  
                          _I2C_End 0D7D                            _ACKSTAT 048E  
                          _CLRDISP 0E15                            _LCDCHAR 0E7D  
                    ??_I2C_Restart 0027                 i1___awdiv@dividend 0072  
         _Update_Current_Date_Time 02E2             __size_of_Set_Time_Date 008E  
                ??i1_Set_Time_Date 007D                            _SSPCON2 0091  
                          _SSPSTAT 0094                         __stringtab 0643  
                  __size_of_LCDNUM 0052                          _BCD_2_DEC 0EA8  
                  __size_of_CURSOR 0024                          _I2C_Begin 0D74  
                        _I2C_Write 0DD0                          _DEC_2_BCD 0F74  
               i1___awdiv@quotient 0077                            ___awdiv 050B  
                          ___awmod 06A6                            ___lldiv 0574  
                  __size_of___wmul 0027                    __size_of_delay1 000C  
                  __size_of_delay2 000C                    __size_of_config 0069  
                   _I2C_Initialize 0F3A                            __ptext1 04A2  
                          __ptext2 02E2                            __ptext3 0D86  
                          __ptext4 0ED5                            __ptext5 0EA8  
                          __ptext6 0E56                            __ptext7 0386  
                          __ptext8 0DD0                            __ptext9 0D7D  
                     __size_of_ISR 0057                   ___awmod@dividend 0029  
                     DEC_2_BCD@num 0030                            clrloop0 0D5B  
              __end_of_I2C_Restart 0D8F                          i1_I2C_End 0D6B  
             end_of_initialization 0029                         ?_BCD_2_DEC 002D  
                       ?_I2C_Begin 0070                         ?_I2C_Write 0036  
                       ?_DEC_2_BCD 0030                    ___lldiv@divisor 0027  
                  ___lldiv@counter 0034                      _Set_Time_Date 0386  
           __end_of_I2C_Initialize 0F74                          _PORTBbits 0006  
                        _TRISBbits 0086                          i1___awdiv 05DC  
                __size_of_I2C_Hold 000D                  __size_of_I2C_Read 002F  
                        i1___awmod 0701                      BCD_2_DEC@data 0031  
                       ?i1_I2C_End 0070                     i1DEC_2_BCD@num 0079  
                   __end_of_LCDNUM 1000                     __end_of_CURSOR 0E56  
                __size_of_LCDWRITE 004E                     ?_Set_Time_Date 0070  
                  ?_I2C_Initialize 0035                     __end_of___wmul 0E7D  
                   __end_of_delay1 0DA7                     __end_of_delay2 0D9B  
                   __end_of_config 050B                        _I2C_Restart 0D86  
              start_initialization 0013                        __end_of_ISR 07B1  
                    ??i1_I2C_Begin 0070                         ?i1___awdiv 0070  
                       ?i1___awmod 0070                      ??i1_I2C_Write 007D  
                    ??i1_DEC_2_BCD 007B                           ??_LCDNUM 0032  
                         ??_CURSOR 002A                        ??_BCD_2_DEC 002F  
                      ??_I2C_Begin 0027                        ??_I2C_Write 0038  
                      ??_DEC_2_BCD 0032                           ??___wmul 002B  
                       init_fetch0 0E02                           ??_delay1 0027  
                         ??_delay2 0027                           LCDCHAR@j 002C  
                         LCDCHAR@k 002B                           ??_config 0029  
                      __pdataBANK0 0040                 i1___awmod@dividend 0072  
                         ?_I2C_End 0070         ??_Update_Current_Date_Time 0038  
                  i1_Set_Time_Date 0414                           ?_CLRDISP 0070  
                         ?_LCDCHAR 0070                          ___latbits 0002  
                    __pcstackBANK0 0020                        ??i1_I2C_End 0070  
              __end_ofi1_I2C_Begin 0D6B                    ??_Set_Time_Date 0038  
              __end_ofi1_I2C_Write 0DD0                __end_ofi1_DEC_2_BCD 0F3A  
                      I2C_Read@ack 0027                           ?___awdiv 0027  
                         ?___awmod 0027                           ?___lldiv 0027  
                i1___awdiv@divisor 0070                  i1___awdiv@counter 0075  
                        __pstrings 0643                     __size_of_CLOCK 0011  
                         _I2C_Hold 0DB4                           _I2C_Read 0ED5  
                      ??i1___awdiv 0074                        ??i1___awmod 0074  
                         _LCDWRITE 07B1                  interrupt_function 0004  
                   ___wmul@product 002B                          _nextState 0062  
                        clear_ram0 0D5A            __end_ofi1_Set_Time_Date 04A2  
                        _solar_val 005C                   __size_of_I2C_End 0009  
                       _ADCON0bits 001F                        __stringbase 0648  
                ___wmul@multiplier 0027                   __size_of_CLRDISP 001D  
                 __size_of_LCDCHAR 002B                        i1_I2C_Begin 0D62  
                      i1_I2C_Write 0DC1                        i1_DEC_2_BCD 0F04  
                 ??_I2C_Initialize 0039                  i1___awmod@divisor 0070  
                    I2C_Write@data 0036                  i1___awmod@counter 0075  
                 __size_of___awdiv 0069                   __size_of___awmod 005B  
                 __size_of___lldiv 0068                 __end_of__stringtab 0649  
                     ?_I2C_Restart 0070                           __ptext10 0D74  
                         __ptext11 0DB4                           __ptext20 0E32  
                         __ptext12 0F74                           __ptext21 0E15  
                         __ptext13 07B1                           __ptext30 0DA7  
                         __ptext22 0D9B                           __ptext14 0FAE  
                         __ptext31 0F04                           __ptext23 0DDF  
                         __ptext15 06A6                           __ptext32 0701  
                         __ptext24 0D8F                           __ptext16 050B  
                         __ptext33 05DC                           __ptext25 075A  
                         __ptext17 0E7D                           __ptext26 0414  
                         __ptext18 0F3A                           __ptext27 0DC1  
                         __ptext19 0574                           __ptext28 0D6B  
                         __ptext29 0D62                      __size_of_main 02B5  
                         _phcn_val 0058                I2C_Initialize@feq_K 0035  
                 ?i1_Set_Time_Date 0070                      DEC_2_BCD@data 0034  
                         _wind_val 005E                         i1_I2C_Hold 0DA7  
                         exp@coeff 0649                           log@coeff 0671  
                         init_ram0 0E06                           intlevel1 0000  
                 ___lldiv@dividend 002B                          stringcode 0643  
                     LCDNUM@number 0030                         _OPTION_REG 0081  
                  i1I2C_Write@data 0022                   ___lldiv@quotient 0030  
                         stringdir 0643                           stringtab 0643  
__size_of_Update_Current_Date_Time 00A4          ?_Update_Current_Date_Time 0070  
                 LCDCHAR@character 002D              __end_of_Set_Time_Date 0414  
               __size_of_BCD_2_DEC 002D  
