

Microchip MPLAB XC8 Assembler V2.32 build 20210201212658 
                                                                                               Sat Jul 24 10:58:19 2021

Microchip MPLAB XC8 C Compiler v2.32 (Free license) build 20210201212658 Og1 
     1                           	processor	16F877A
     2                           	pagewidth 120
     3                           	opt	flic
     4                           	psect	idataBANK0,global,class=CODE,delta=2,noexec
     5                           	psect	idataBANK1,global,class=CODE,delta=2,noexec
     6                           	psect	strings,global,class=STRING,delta=2,noexec
     7                           	psect	cinit,global,class=CODE,merge=1,delta=2
     8                           	psect	bssBANK0,global,class=BANK0,space=1,delta=1,noexec
     9                           	psect	dataBANK0,global,class=BANK0,space=1,delta=1,noexec
    10                           	psect	bssBANK1,global,class=BANK1,space=1,delta=1,noexec
    11                           	psect	dataBANK1,global,class=BANK1,space=1,delta=1,noexec
    12                           	psect	inittext,global,class=CODE,delta=2
    13                           	psect	clrtext,global,class=CODE,delta=2
    14                           	psect	cstackBANK1,global,class=BANK1,space=1,delta=1,noexec
    15                           	psect	cstackCOMMON,global,class=COMMON,space=1,delta=1,noexec
    16                           	psect	cstackBANK0,global,class=BANK0,space=1,delta=1,noexec
    17                           	psect	maintext,global,class=CODE,split=1,delta=2
    18                           	psect	text1,local,class=CODE,merge=1,delta=2
    19                           	psect	text2,local,class=CODE,merge=1,delta=2
    20                           	psect	text3,local,class=CODE,merge=1,delta=2
    21                           	psect	text4,local,class=CODE,merge=1,delta=2
    22                           	psect	text5,local,class=CODE,merge=1,delta=2
    23                           	psect	text6,local,class=CODE,merge=1,delta=2
    24                           	psect	text7,local,class=CODE,merge=1,delta=2
    25                           	psect	text8,local,class=CODE,merge=1,delta=2
    26                           	psect	text9,local,class=CODE,merge=1,delta=2
    27                           	psect	text10,local,class=CODE,merge=1,delta=2
    28                           	psect	text11,local,class=CODE,merge=1,delta=2
    29                           	psect	text12,local,class=CODE,merge=1,delta=2
    30                           	psect	text13,local,class=CODE,merge=1,delta=2
    31                           	psect	text14,local,class=CODE,merge=1,delta=2
    32                           	psect	text15,local,class=CODE,merge=1,delta=2
    33                           	psect	text16,local,class=CODE,merge=1,delta=2,group=1
    34                           	psect	text17,local,class=CODE,merge=1,delta=2,group=1
    35                           	psect	text18,local,class=CODE,merge=1,delta=2,group=1
    36                           	psect	text19,local,class=CODE,merge=1,delta=2
    37                           	psect	text20,local,class=CODE,merge=1,delta=2
    38                           	psect	text21,local,class=CODE,merge=1,delta=2,group=1
    39                           	psect	text22,local,class=CODE,merge=1,delta=2
    40                           	psect	text23,local,class=CODE,merge=1,delta=2
    41                           	psect	text24,local,class=CODE,merge=1,delta=2
    42                           	psect	text25,local,class=CODE,merge=1,delta=2
    43                           	psect	text26,local,class=CODE,merge=1,delta=2
    44                           	psect	text27,local,class=CODE,merge=1,delta=2
    45                           	psect	text28,local,class=CODE,merge=1,delta=2
    46                           	psect	text29,local,class=CODE,merge=1,delta=2
    47                           	psect	intentry,global,class=CODE,delta=2
    48                           	psect	text30,local,class=CODE,merge=1,delta=2
    49                           	psect	text31,local,class=CODE,merge=1,delta=2
    50                           	psect	text32,local,class=CODE,merge=1,delta=2
    51                           	psect	text33,local,class=CODE,merge=1,delta=2
    52                           	psect	text34,local,class=CODE,merge=1,delta=2
    53                           	psect	text35,local,class=CODE,merge=1,delta=2
    54                           	psect	text36,local,class=CODE,merge=1,delta=2
    55                           	psect	text37,local,class=CODE,merge=1,delta=2
    56                           	psect	config,global,abs,ovrld,class=CONFIG,space=4,delta=2,noexec
    57                           	dabs	1,0x7E,2
    58  0000                     
    59                           ; Version 2.20
    60                           ; Generated 12/02/2020 GMT
    61                           ; 
    62                           ; Copyright © 2020, Microchip Technology Inc. and its subsidiaries ("Microchip")
    63                           ; All rights reserved.
    64                           ; 
    65                           ; This software is developed by Microchip Technology Inc. and its subsidiaries ("Microch
      +                          ip").
    66                           ; 
    67                           ; Redistribution and use in source and binary forms, with or without modification, are
    68                           ; permitted provided that the following conditions are met:
    69                           ; 
    70                           ;     1. Redistributions of source code must retain the above copyright notice, this lis
      +                          t of
    71                           ;        conditions and the following disclaimer.
    72                           ; 
    73                           ;     2. Redistributions in binary form must reproduce the above copyright notice, this 
      +                          list
    74                           ;        of conditions and the following disclaimer in the documentation and/or other
    75                           ;        materials provided with the distribution.
    76                           ; 
    77                           ;     3. Microchip's name may not be used to endorse or promote products derived from th
      +                          is
    78                           ;        software without specific prior written permission.
    79                           ; 
    80                           ; THIS SOFTWARE IS PROVIDED BY MICROCHIP "AS IS" AND ANY EXPRESS OR IMPLIED WARRANTIES,
    81                           ; INCLUDING, BUT NOT LIMITED TO, THE IMPLIED WARRANTIES OF MERCHANTABILITY AND FITNESS F
      +                          OR
    82                           ; PURPOSE ARE DISCLAIMED.  IN NO EVENT SHALL MICROCHIP BE LIABLE FOR ANY DIRECT, INDIREC
      +                          T,
    83                           ; INCIDENTAL, SPECIAL, EXEMPLARY, OR CONSEQUENTIAL DAMAGES (INCLUDING BUT NOT LIMITED TO
    84                           ; PROCUREMENT OF SUBSTITUTE GOODS OR SERVICES; LOSS OF USE, DATA OR PROFITS; OR BUSINESS
    85                           ; INTERRUPTION) HOWSOEVER CAUSED AND ON ANY THEORY OF LIABILITY, WHETHER IN CONTRACT, ST
      +                          RICT
    86                           ; LIABILITY, OR TORT (INCLUDING NEGLIGENCE OR OTHERWISE) ARISING IN ANY WAY OUT OF THE U
      +                          SE OF
    87                           ; THIS SOFTWARE, EVEN IF ADVISED OF THE POSSIBILITY OF SUCH DAMAGE.
    88                           ; 
    89                           ; 
    90                           ; Code-generator required, PIC16F877A Definitions
    91                           ; 
    92                           ; SFR Addresses
    93  0000                     	;# 
    94  0001                     	;# 
    95  0002                     	;# 
    96  0003                     	;# 
    97  0004                     	;# 
    98  0005                     	;# 
    99  0006                     	;# 
   100  0007                     	;# 
   101  0008                     	;# 
   102  0009                     	;# 
   103  000A                     	;# 
   104  000B                     	;# 
   105  000C                     	;# 
   106  000D                     	;# 
   107  000E                     	;# 
   108  000E                     	;# 
   109  000F                     	;# 
   110  0010                     	;# 
   111  0011                     	;# 
   112  0012                     	;# 
   113  0013                     	;# 
   114  0014                     	;# 
   115  0015                     	;# 
   116  0015                     	;# 
   117  0016                     	;# 
   118  0017                     	;# 
   119  0018                     	;# 
   120  0019                     	;# 
   121  001A                     	;# 
   122  001B                     	;# 
   123  001B                     	;# 
   124  001C                     	;# 
   125  001D                     	;# 
   126  001E                     	;# 
   127  001F                     	;# 
   128  0081                     	;# 
   129  0085                     	;# 
   130  0086                     	;# 
   131  0087                     	;# 
   132  0088                     	;# 
   133  0089                     	;# 
   134  008C                     	;# 
   135  008D                     	;# 
   136  008E                     	;# 
   137  0091                     	;# 
   138  0092                     	;# 
   139  0093                     	;# 
   140  0094                     	;# 
   141  0098                     	;# 
   142  0099                     	;# 
   143  009C                     	;# 
   144  009D                     	;# 
   145  009E                     	;# 
   146  009F                     	;# 
   147  010C                     	;# 
   148  010D                     	;# 
   149  010E                     	;# 
   150  010F                     	;# 
   151  018C                     	;# 
   152  018D                     	;# 
   153  0000                     	;# 
   154  0001                     	;# 
   155  0002                     	;# 
   156  0003                     	;# 
   157  0004                     	;# 
   158  0005                     	;# 
   159  0006                     	;# 
   160  0007                     	;# 
   161  0008                     	;# 
   162  0009                     	;# 
   163  000A                     	;# 
   164  000B                     	;# 
   165  000C                     	;# 
   166  000D                     	;# 
   167  000E                     	;# 
   168  000E                     	;# 
   169  000F                     	;# 
   170  0010                     	;# 
   171  0011                     	;# 
   172  0012                     	;# 
   173  0013                     	;# 
   174  0014                     	;# 
   175  0015                     	;# 
   176  0015                     	;# 
   177  0016                     	;# 
   178  0017                     	;# 
   179  0018                     	;# 
   180  0019                     	;# 
   181  001A                     	;# 
   182  001B                     	;# 
   183  001B                     	;# 
   184  001C                     	;# 
   185  001D                     	;# 
   186  001E                     	;# 
   187  001F                     	;# 
   188  0081                     	;# 
   189  0085                     	;# 
   190  0086                     	;# 
   191  0087                     	;# 
   192  0088                     	;# 
   193  0089                     	;# 
   194  008C                     	;# 
   195  008D                     	;# 
   196  008E                     	;# 
   197  0091                     	;# 
   198  0092                     	;# 
   199  0093                     	;# 
   200  0094                     	;# 
   201  0098                     	;# 
   202  0099                     	;# 
   203  009C                     	;# 
   204  009D                     	;# 
   205  009E                     	;# 
   206  009F                     	;# 
   207  010C                     	;# 
   208  010D                     	;# 
   209  010E                     	;# 
   210  010F                     	;# 
   211  018C                     	;# 
   212  018D                     	;# 
   213                           
   214                           	psect	idataBANK0
   215  0A09                     __pidataBANK0:
   216                           
   217                           ;initializer for _thresh
   218  0A09  3498               	retlw	152
   219  0A0A  3403               	retlw	3
   220                           
   221                           	psect	idataBANK1
   222  0A58                     __pidataBANK1:
   223                           
   224                           ;initializer for _logo
   225  0A58  3445               	retlw	69
   226  0A59  344C               	retlw	76
   227  0A5A  3445               	retlw	69
   228  0A5B  3443               	retlw	67
   229  0A5C  3454               	retlw	84
   230  0A5D  3452               	retlw	82
   231  0A5E  344F               	retlw	79
   232  0A5F  344E               	retlw	78
   233  0A60  3449               	retlw	73
   234  0A61  3443               	retlw	67
   235  0A62  3453               	retlw	83
   236  0A63  3400               	retlw	0
   237                           
   238                           	psect	strings
   239  0517                     __pstrings:
   240  0517                     stringtab:
   241  0517                     __stringtab:
   242  0517                     stringcode:	
   243                           ;	String table - string pointers are 1 byte each
   244                           
   245  0517                     stringdir:
   246  0517  3005               	movlw	high stringdir
   247  0518  008A               	movwf	10
   248  0519  0804               	movf	4,w
   249  051A  0A84               	incf	4,f
   250  051B  0782               	addwf	2,f
   251  051C                     __stringbase:
   252  051C  3400               	retlw	0
   253  051D                     __end_of__stringtab:
   254  051D                     exp@coeff:
   255  051D  3400               	retlw	0
   256  051E  3400               	retlw	0
   257  051F  3480               	retlw	128
   258  0520  343F               	retlw	63
   259  0521  3418               	retlw	24
   260  0522  3472               	retlw	114
   261  0523  3431               	retlw	49
   262  0524  343F               	retlw	63
   263  0525  34F0               	retlw	240
   264  0526  34FD               	retlw	253
   265  0527  3475               	retlw	117
   266  0528  343E               	retlw	62
   267  0529  3447               	retlw	71
   268  052A  3458               	retlw	88
   269  052B  3463               	retlw	99
   270  052C  343D               	retlw	61
   271  052D  3458               	retlw	88
   272  052E  3495               	retlw	149
   273  052F  341D               	retlw	29
   274  0530  343C               	retlw	60
   275  0531  3482               	retlw	130
   276  0532  34C4               	retlw	196
   277  0533  34AE               	retlw	174
   278  0534  343A               	retlw	58
   279  0535  34A8               	retlw	168
   280  0536  3478               	retlw	120
   281  0537  3421               	retlw	33
   282  0538  3439               	retlw	57
   283  0539  34EF               	retlw	239
   284  053A  3493               	retlw	147
   285  053B  3480               	retlw	128
   286  053C  3437               	retlw	55
   287  053D  34A0               	retlw	160
   288  053E  3492               	retlw	146
   289  053F  34A7               	retlw	167
   290  0540  3435               	retlw	53
   291  0541  3446               	retlw	70
   292  0542  3456               	retlw	86
   293  0543  3415               	retlw	21
   294  0544  3434               	retlw	52
   295  0545                     __end_ofexp@coeff:
   296  0545                     log@coeff:
   297  0545  3400               	retlw	0
   298  0546  3400               	retlw	0
   299  0547  3400               	retlw	0
   300  0548  3400               	retlw	0
   301  0549  34C4               	retlw	196
   302  054A  34FF               	retlw	255
   303  054B  347F               	retlw	127
   304  054C  343F               	retlw	63
   305  054D  3480               	retlw	128
   306  054E  34EF               	retlw	239
   307  054F  34FF               	retlw	255
   308  0550  34BE               	retlw	190
   309  0551  3490               	retlw	144
   310  0552  34E1               	retlw	225
   311  0553  34A9               	retlw	169
   312  0554  343E               	retlw	62
   313  0555  34EC               	retlw	236
   314  0556  3482               	retlw	130
   315  0557  3476               	retlw	118
   316  0558  34BE               	retlw	190
   317  0559  3482               	retlw	130
   318  055A  34AD               	retlw	173
   319  055B  342B               	retlw	43
   320  055C  343E               	retlw	62
   321  055D  340E               	retlw	14
   322  055E  343C               	retlw	60
   323  055F  34C3               	retlw	195
   324  0560  34BD               	retlw	189
   325  0561  3487               	retlw	135
   326  0562  34D1               	retlw	209
   327  0563  3413               	retlw	19
   328  0564  343D               	retlw	61
   329  0565  3441               	retlw	65
   330  0566  3478               	retlw	120
   331  0567  34D3               	retlw	211
   332  0568  34BB               	retlw	187
   333  0569                     __end_oflog@coeff:
   334  000E                     _TMR1	set	14
   335  001E                     _ADRESH	set	30
   336  001F                     _ADCON0bits	set	31
   337  0010                     _T1CON	set	16
   338  0008                     _PORTD	set	8
   339  001F                     _ADCON0	set	31
   340  0001                     _TMR0	set	1
   341  0006                     _PORTBbits	set	6
   342  0013                     _SSPBUF	set	19
   343  0014                     _SSPCON	set	20
   344  0006                     _PORTB	set	6
   345  003C                     _RC4	set	60
   346  003D                     _RC5	set	61
   347  003E                     _RC6	set	62
   348  003F                     _RC7	set	63
   349  0080                     _TMR1ON	set	128
   350  005F                     _GIE	set	95
   351  005E                     _PEIE	set	94
   352  005D                     _TMR0IE	set	93
   353  0060                     _TMR1IF	set	96
   354  005A                     _TMR0IF	set	90
   355  0045                     _RD5	set	69
   356  0043                     _RD3	set	67
   357  0042                     _RD2	set	66
   358  0041                     _RD1	set	65
   359  0044                     _RD4	set	68
   360  0040                     _RD0	set	64
   361  0036                     _RB6	set	54
   362  0034                     _RB4	set	52
   363  009E                     _ADRESL	set	158
   364  0081                     _OPTION_REG	set	129
   365  0088                     _TRISD	set	136
   366  0085                     _TRISA	set	133
   367  009F                     _ADCON1	set	159
   368  0086                     _TRISB	set	134
   369  0086                     _TRISBbits	set	134
   370  0093                     _SSPADD	set	147
   371  0094                     _SSPSTAT	set	148
   372  0091                     _SSPCON2	set	145
   373  0463                     _SSPIE	set	1123
   374  0460                     _TMR1IE	set	1120
   375  0438                     _TRISC0	set	1080
   376  048C                     _ACKEN	set	1164
   377  048D                     _ACKDT	set	1165
   378  048B                     _RCEN	set	1163
   379  048E                     _ACKSTAT	set	1166
   380  048A                     _PEN	set	1162
   381  0489                     _RSEN	set	1161
   382  0488                     _SEN	set	1160
   383  043C                     _TRISC4	set	1084
   384  043B                     _TRISC3	set	1083
   385  0569                     STR_5:
   386  0569  3450               	retlw	80	;'P'
   387  056A  3448               	retlw	72	;'H'
   388  056B  3441               	retlw	65	;'A'
   389  056C  3453               	retlw	83	;'S'
   390  056D  3445               	retlw	69	;'E'
   391  056E  3420               	retlw	32	;' '
   392  056F  3453               	retlw	83	;'S'
   393  0570  3445               	retlw	69	;'E'
   394  0571  344C               	retlw	76	;'L'
   395  0572  3445               	retlw	69	;'E'
   396  0573  3443               	retlw	67	;'C'
   397  0574  3454               	retlw	84	;'T'
   398  0575  344F               	retlw	79	;'O'
   399  0576  3452               	retlw	82	;'R'
   400  0577  3400               	retlw	0
   401  0578                     STR_8:
   402  0578  344E               	retlw	78	;'N'
   403  0579  3455               	retlw	85	;'U'
   404  057A  344C               	retlw	76	;'L'
   405  057B  344C               	retlw	76	;'L'
   406  057C  3420               	retlw	32	;' '
   407  057D  3420               	retlw	32	;' '
   408  057E  3420               	retlw	32	;' '
   409  057F  3420               	retlw	32	;' '
   410  0580  3420               	retlw	32	;' '
   411  0581  3420               	retlw	32	;' '
   412  0582  3420               	retlw	32	;' '
   413  0583  3420               	retlw	32	;' '
   414  0584  3420               	retlw	32	;' '
   415  0585  3400               	retlw	0
   416  0586                     STR_9:
   417  0586  3477               	retlw	119	;'w'
   418  0587  3469               	retlw	105	;'i'
   419  0588  346E               	retlw	110	;'n'
   420  0589  3464               	retlw	100	;'d'
   421  058A  3420               	retlw	32	;' '
   422  058B  3420               	retlw	32	;' '
   423  058C  3420               	retlw	32	;' '
   424  058D  3420               	retlw	32	;' '
   425  058E  3420               	retlw	32	;' '
   426  058F  3420               	retlw	32	;' '
   427  0590  3420               	retlw	32	;' '
   428  0591  3420               	retlw	32	;' '
   429  0592  3420               	retlw	32	;' '
   430  0593  3400               	retlw	0
   431  0594                     STR_10:
   432  0594  3473               	retlw	115	;'s'
   433  0595  346F               	retlw	111	;'o'
   434  0596  346C               	retlw	108	;'l'
   435  0597  3461               	retlw	97	;'a'
   436  0598  3472               	retlw	114	;'r'
   437  0599  3420               	retlw	32	;' '
   438  059A  3420               	retlw	32	;' '
   439  059B  3420               	retlw	32	;' '
   440  059C  3420               	retlw	32	;' '
   441  059D  3420               	retlw	32	;' '
   442  059E  3420               	retlw	32	;' '
   443  059F  3420               	retlw	32	;' '
   444  05A0  3420               	retlw	32	;' '
   445  05A1  3400               	retlw	0
   446  05A2                     STR_11:
   447  05A2  3462               	retlw	98	;'b'
   448  05A3  3469               	retlw	105	;'i'
   449  05A4  346F               	retlw	111	;'o'
   450  05A5  3467               	retlw	103	;'g'
   451  05A6  3461               	retlw	97	;'a'
   452  05A7  3473               	retlw	115	;'s'
   453  05A8  3420               	retlw	32	;' '
   454  05A9  3420               	retlw	32	;' '
   455  05AA  3420               	retlw	32	;' '
   456  05AB  3420               	retlw	32	;' '
   457  05AC  3420               	retlw	32	;' '
   458  05AD  3420               	retlw	32	;' '
   459  05AE  3420               	retlw	32	;' '
   460  05AF  3400               	retlw	0
   461  05B0                     STR_1:
   462  05B0  3473               	retlw	115	;'s'
   463  05B1  3477               	retlw	119	;'w'
   464  05B2  3469               	retlw	105	;'i'
   465  05B3  3474               	retlw	116	;'t'
   466  05B4  3463               	retlw	99	;'c'
   467  05B5  3468               	retlw	104	;'h'
   468  05B6  3469               	retlw	105	;'i'
   469  05B7  346E               	retlw	110	;'n'
   470  05B8  3467               	retlw	103	;'g'
   471  05B9  342E               	retlw	46	;'.'
   472  05BA  342E               	retlw	46	;'.'
   473  05BB  342E               	retlw	46	;'.'
   474  05BC  3400               	retlw	0
   475  05BD                     STR_12:
   476  05BD  3470               	retlw	112	;'p'
   477  05BE  3468               	retlw	104	;'h'
   478  05BF  3463               	retlw	99	;'c'
   479  05C0  346E               	retlw	110	;'n'
   480  05C1  3420               	retlw	32	;' '
   481  05C2  3420               	retlw	32	;' '
   482  05C3  3400               	retlw	0
   483  05C4                     STR_13:
   484  05C4  3452               	retlw	82	;'R'
   485  05C5  3445               	retlw	69	;'E'
   486  05C6  3453               	retlw	83	;'S'
   487  05C7  3445               	retlw	69	;'E'
   488  05C8  3454               	retlw	84	;'T'
   489  05C9  3400               	retlw	0
   490  05CA                     STR_6:
   491  05CA  343A               	retlw	58	;':'
   492  05CB  3400               	retlw	0
   493  05B0                     
   494                           	psect	cinit
   495  0013                     start_initialization:	
   496                           ; #config settings
   497                           
   498  0013                     __initialization:
   499                           
   500                           ; Initialize objects allocated to BANK1
   501  0013  1383               	bcf	3,7	;select IRP bank0
   502  0014  30C2               	movlw	low (__pdataBANK1+12)
   503  0015  00FD               	movwf	btemp+-1
   504  0016  300A               	movlw	high __pidataBANK1
   505  0017  00FE               	movwf	btemp
   506  0018  3058               	movlw	low __pidataBANK1
   507  0019  00FF               	movwf	btemp+1
   508  001A  30B6               	movlw	low __pdataBANK1
   509  001B  0084               	movwf	4
   510  001C  120A  158A  22B1  120A  118A  	fcall	init_ram0
   511                           
   512                           ; Initialize objects allocated to BANK0
   513  0021  120A  158A  2209  120A  118A  	fcall	__pidataBANK0	;fetch initializer
   514  0026  00D7               	movwf	__pdataBANK0& (0+127)
   515  0027  120A  158A  220A  120A  118A  	fcall	__pidataBANK0+1	;fetch initializer
   516  002C  00D8               	movwf	(__pdataBANK0+1)& (0+127)
   517                           
   518                           ; Clear objects allocated to BANK1
   519  002D  1683               	bsf	3,5	;RP0=1, select bank1
   520  002E  1303               	bcf	3,6	;RP1=0, select bank1
   521  002F  01C2               	clrf	__pbssBANK1& (0+127)
   522  0030  01C3               	clrf	(__pbssBANK1+1)& (0+127)
   523  0031  01C4               	clrf	(__pbssBANK1+2)& (0+127)
   524  0032  01C5               	clrf	(__pbssBANK1+3)& (0+127)
   525                           
   526                           ; Clear objects allocated to BANK0
   527  0033  3044               	movlw	low __pbssBANK0
   528  0034  0084               	movwf	4
   529  0035  3057               	movlw	low (__pbssBANK0+19)
   530  0036  120A  158A  220B  120A  118A  	fcall	clear_ram0
   531  003B                     end_of_initialization:	
   532                           ;End of C runtime variable initialization code
   533                           
   534  003B                     __end_of__initialization:
   535  003B  0183               	clrf	3
   536  003C  120A  118A  283F   	ljmp	_main	;jump to C main() function
   537                           
   538                           	psect	bssBANK0
   539  0044                     __pbssBANK0:
   540  0044                     _errno:
   541  0044                     	ds	2
   542  0046                     _combo:
   543  0046                     	ds	2
   544  0048                     _phcn_val:
   545  0048                     	ds	2
   546  004A                     _biogas_val:
   547  004A                     	ds	2
   548  004C                     _solar_val:
   549  004C                     	ds	2
   550  004E                     _wind_val:
   551  004E                     	ds	2
   552  0050                     _hour:
   553  0050                     	ds	2
   554  0052                     _min:
   555  0052                     	ds	2
   556  0054                     _sec:
   557  0054                     	ds	2
   558  0056                     _nextState:
   559  0056                     	ds	1
   560                           
   561                           	psect	dataBANK0
   562  0057                     __pdataBANK0:
   563  0057                     _thresh:
   564  0057                     	ds	2
   565                           
   566                           	psect	bssBANK1
   567  00C2                     __pbssBANK1:
   568  00C2                     _NUM:
   569  00C2                     	ds	4
   570                           
   571                           	psect	dataBANK1
   572  00B6                     __pdataBANK1:
   573  00B6                     _logo:
   574  00B6                     	ds	12
   575                           
   576                           	psect	inittext
   577  0AAD                     init_fetch0:	
   578                           ;	Called with low address in FSR and high address in W
   579                           
   580  0AAD  087E               	movf	btemp,w
   581  0AAE  008A               	movwf	10
   582  0AAF  087F               	movf	btemp+1,w
   583  0AB0  0082               	movwf	2
   584  0AB1                     init_ram0:	
   585                           ;Called with:
   586                           ;	high address of idata address in btemp 
   587                           ;	low address of idata address in btemp+1 
   588                           ;	low address of data in FSR
   589                           ;	high address + 1 of data in btemp-1
   590                           
   591  0AB1  120A  158A  22AD  120A  158A  	fcall	init_fetch0
   592  0AB6  0080               	movwf	0
   593  0AB7  0A84               	incf	4,f
   594  0AB8  0804               	movf	4,w
   595  0AB9  067D               	xorwf	btemp+-1,w
   596  0ABA  1903               	btfsc	3,2
   597  0ABB  3400               	retlw	0
   598  0ABC  0AFF               	incf	btemp+1,f
   599  0ABD  1903               	btfsc	3,2
   600  0ABE  0AFE               	incf	btemp,f
   601  0ABF  2AB1               	goto	init_ram0
   602                           
   603                           	psect	clrtext
   604  0A0B                     clear_ram0:	
   605                           ;	Called with FSR containing the base address, and
   606                           ;	W with the last address+1
   607                           
   608  0A0B  0064               	clrwdt	;clear the watchdog before getting into this loop
   609  0A0C                     clrloop0:
   610  0A0C  0180               	clrf	0	;clear RAM location pointed to by FSR
   611  0A0D  0A84               	incf	4,f	;increment pointer
   612  0A0E  0604               	xorwf	4,w	;XOR with final address
   613  0A0F  1903               	btfsc	3,2	;have we reached the end yet?
   614  0A10  3400               	retlw	0	;all done for this memory range, return
   615  0A11  0604               	xorwf	4,w	;XOR again to restore value
   616  0A12  2A0C               	goto	clrloop0	;do the next byte
   617                           
   618                           	psect	cstackBANK1
   619  00A0                     __pcstackBANK1:
   620  00A0                     ??_main:
   621                           
   622                           ; 1 bytes @ 0x0
   623  00A0                     	ds	22
   624                           
   625                           	psect	cstackCOMMON
   626  0070                     __pcstackCOMMON:
   627  0070                     ?_I2C_Hold:
   628  0070                     ?_I2C_Begin:	
   629                           ; 1 bytes @ 0x0
   630                           
   631  0070                     ?_I2C_Restart:	
   632                           ; 1 bytes @ 0x0
   633                           
   634  0070                     ?_I2C_End:	
   635                           ; 1 bytes @ 0x0
   636                           
   637  0070                     ?_Set_Time_Date:	
   638                           ; 1 bytes @ 0x0
   639                           
   640  0070                     ?_Update_Current_Date_Time:	
   641                           ; 1 bytes @ 0x0
   642                           
   643  0070                     ?_delay1:	
   644                           ; 1 bytes @ 0x0
   645                           
   646  0070                     ?_delay2:	
   647                           ; 1 bytes @ 0x0
   648                           
   649  0070                     ?_CLOCK:	
   650                           ; 1 bytes @ 0x0
   651                           
   652  0070                     ?_LCDCHAR:	
   653                           ; 1 bytes @ 0x0
   654                           
   655  0070                     ?_LCDWRITE:	
   656                           ; 1 bytes @ 0x0
   657                           
   658  0070                     ?_CLRDISP:	
   659                           ; 1 bytes @ 0x0
   660                           
   661  0070                     ?_config:	
   662                           ; 1 bytes @ 0x0
   663                           
   664  0070                     ?_WIND:	
   665                           ; 1 bytes @ 0x0
   666                           
   667  0070                     ?_SOLAR:	
   668                           ; 1 bytes @ 0x0
   669                           
   670  0070                     ?_BIOGAS:	
   671                           ; 1 bytes @ 0x0
   672                           
   673  0070                     ?_PHCN:	
   674                           ; 1 bytes @ 0x0
   675                           
   676  0070                     ?_ISR:	
   677                           ; 1 bytes @ 0x0
   678                           
   679  0070                     ?_main:	
   680                           ; 1 bytes @ 0x0
   681                           
   682  0070                     ?i1_I2C_Hold:	
   683                           ; 1 bytes @ 0x0
   684                           
   685  0070                     ??i1_I2C_Hold:	
   686                           ; 1 bytes @ 0x0
   687                           
   688  0070                     ?i1_I2C_Begin:	
   689                           ; 1 bytes @ 0x0
   690                           
   691  0070                     ??i1_I2C_Begin:	
   692                           ; 1 bytes @ 0x0
   693                           
   694  0070                     ?i1_I2C_End:	
   695                           ; 1 bytes @ 0x0
   696                           
   697  0070                     ??i1_I2C_End:	
   698                           ; 1 bytes @ 0x0
   699                           
   700  0070                     ?i1_Set_Time_Date:	
   701                           ; 1 bytes @ 0x0
   702                           
   703  0070                     ?i1___awdiv:	
   704                           ; 1 bytes @ 0x0
   705                           
   706  0070                     ?i1___awmod:	
   707                           ; 2 bytes @ 0x0
   708                           
   709  0070                     i1___awdiv@divisor:	
   710                           ; 2 bytes @ 0x0
   711                           
   712  0070                     i1___awmod@divisor:	
   713                           ; 2 bytes @ 0x0
   714                           
   715                           
   716                           ; 2 bytes @ 0x0
   717  0070                     	ds	2
   718  0072                     i1___awdiv@dividend:
   719  0072                     i1___awmod@dividend:	
   720                           ; 2 bytes @ 0x2
   721                           
   722                           
   723                           ; 2 bytes @ 0x2
   724  0072                     	ds	2
   725  0074                     ??i1___awdiv:
   726  0074                     ??i1___awmod:	
   727                           ; 1 bytes @ 0x4
   728                           
   729                           
   730                           ; 1 bytes @ 0x4
   731  0074                     	ds	1
   732  0075                     i1___awdiv@counter:
   733  0075                     i1___awmod@counter:	
   734                           ; 1 bytes @ 0x5
   735                           
   736                           
   737                           ; 1 bytes @ 0x5
   738  0075                     	ds	1
   739  0076                     i1___awdiv@sign:
   740  0076                     i1___awmod@sign:	
   741                           ; 1 bytes @ 0x6
   742                           
   743                           
   744                           ; 1 bytes @ 0x6
   745  0076                     	ds	1
   746  0077                     i1___awdiv@quotient:
   747                           
   748                           ; 2 bytes @ 0x7
   749  0077                     	ds	2
   750  0079                     ?i1_DEC_2_BCD:
   751  0079                     i1DEC_2_BCD@num:	
   752                           ; 2 bytes @ 0x9
   753                           
   754                           
   755                           ; 2 bytes @ 0x9
   756  0079                     	ds	2
   757  007B                     ??i1_DEC_2_BCD:
   758                           
   759                           ; 1 bytes @ 0xB
   760  007B                     	ds	2
   761  007D                     ??i1_I2C_Write:
   762  007D                     ??i1_Set_Time_Date:	
   763                           ; 1 bytes @ 0xD
   764                           
   765                           
   766                           	psect	cstackBANK0
   767  0020                     __pcstackBANK0:	
   768                           ; 1 bytes @ 0xD
   769                           
   770  0020                     i1DEC_2_BCD@data:
   771                           
   772                           ; 2 bytes @ 0x0
   773  0020                     	ds	2
   774  0022                     ?i1_I2C_Write:
   775  0022                     i1I2C_Write@data:	
   776                           ; 2 bytes @ 0x2
   777                           
   778                           
   779                           ; 2 bytes @ 0x2
   780  0022                     	ds	2
   781  0024                     ??_ISR:
   782                           
   783                           ; 1 bytes @ 0x4
   784  0024                     	ds	6
   785  002A                     ISR@dummy:
   786                           
   787                           ; 2 bytes @ 0xA
   788  002A                     	ds	2
   789  002C                     ??_I2C_Hold:
   790  002C                     ??_I2C_Begin:	
   791                           ; 1 bytes @ 0xC
   792                           
   793  002C                     ??_I2C_Restart:	
   794                           ; 1 bytes @ 0xC
   795                           
   796  002C                     ??_I2C_End:	
   797                           ; 1 bytes @ 0xC
   798                           
   799  002C                     ??_delay1:	
   800                           ; 1 bytes @ 0xC
   801                           
   802  002C                     ??_delay2:	
   803                           ; 1 bytes @ 0xC
   804                           
   805  002C                     ?_I2C_Read:	
   806                           ; 1 bytes @ 0xC
   807                           
   808  002C                     ?___wmul:	
   809                           ; 2 bytes @ 0xC
   810                           
   811  002C                     ?___awdiv:	
   812                           ; 2 bytes @ 0xC
   813                           
   814  002C                     ?___awmod:	
   815                           ; 2 bytes @ 0xC
   816                           
   817  002C                     ?___lldiv:	
   818                           ; 2 bytes @ 0xC
   819                           
   820  002C                     I2C_Read@ack:	
   821                           ; 4 bytes @ 0xC
   822                           
   823  002C                     ___wmul@multiplier:	
   824                           ; 2 bytes @ 0xC
   825                           
   826  002C                     ___awdiv@divisor:	
   827                           ; 2 bytes @ 0xC
   828                           
   829  002C                     ___awmod@divisor:	
   830                           ; 2 bytes @ 0xC
   831                           
   832  002C                     ___lldiv@divisor:	
   833                           ; 2 bytes @ 0xC
   834                           
   835                           
   836                           ; 4 bytes @ 0xC
   837  002C                     	ds	2
   838  002E                     ??_I2C_Read:
   839  002E                     ??_CLOCK:	
   840                           ; 1 bytes @ 0xE
   841                           
   842  002E                     ??_LCDCHAR:	
   843                           ; 1 bytes @ 0xE
   844                           
   845  002E                     ??_LCDWRITE:	
   846                           ; 1 bytes @ 0xE
   847                           
   848  002E                     ?_CURSOR:	
   849                           ; 1 bytes @ 0xE
   850                           
   851  002E                     ??_CLRDISP:	
   852                           ; 1 bytes @ 0xE
   853                           
   854  002E                     ??_config:	
   855                           ; 1 bytes @ 0xE
   856                           
   857  002E                     CURSOR@b:	
   858                           ; 1 bytes @ 0xE
   859                           
   860  002E                     ___wmul@multiplicand:	
   861                           ; 1 bytes @ 0xE
   862                           
   863  002E                     ___awdiv@dividend:	
   864                           ; 2 bytes @ 0xE
   865                           
   866  002E                     ___awmod@dividend:	
   867                           ; 2 bytes @ 0xE
   868                           
   869                           
   870                           ; 2 bytes @ 0xE
   871  002E                     	ds	1
   872  002F                     ??_CURSOR:
   873                           
   874                           ; 1 bytes @ 0xF
   875  002F                     	ds	1
   876  0030                     ??___wmul:
   877  0030                     ??___awdiv:	
   878                           ; 1 bytes @ 0x10
   879                           
   880  0030                     ??___awmod:	
   881                           ; 1 bytes @ 0x10
   882                           
   883  0030                     LCDCHAR@k:	
   884                           ; 1 bytes @ 0x10
   885                           
   886  0030                     LCDWRITE@j:	
   887                           ; 1 bytes @ 0x10
   888                           
   889  0030                     I2C_Read@data:	
   890                           ; 1 bytes @ 0x10
   891                           
   892  0030                     ___wmul@product:	
   893                           ; 2 bytes @ 0x10
   894                           
   895  0030                     ___lldiv@dividend:	
   896                           ; 2 bytes @ 0x10
   897                           
   898                           
   899                           ; 4 bytes @ 0x10
   900  0030                     	ds	1
   901  0031                     LCDCHAR@j:
   902  0031                     LCDWRITE@k:	
   903                           ; 1 bytes @ 0x11
   904                           
   905  0031                     CURSOR@a:	
   906                           ; 1 bytes @ 0x11
   907                           
   908  0031                     ___awdiv@counter:	
   909                           ; 1 bytes @ 0x11
   910                           
   911  0031                     ___awmod@counter:	
   912                           ; 1 bytes @ 0x11
   913                           
   914                           
   915                           ; 1 bytes @ 0x11
   916  0031                     	ds	1
   917  0032                     ?_BCD_2_DEC:
   918  0032                     LCDCHAR@character:	
   919                           ; 2 bytes @ 0x12
   920                           
   921  0032                     LCDWRITE@i:	
   922                           ; 1 bytes @ 0x12
   923                           
   924  0032                     ___awdiv@sign:	
   925                           ; 1 bytes @ 0x12
   926                           
   927  0032                     ___awmod@sign:	
   928                           ; 1 bytes @ 0x12
   929                           
   930  0032                     BCD_2_DEC@num:	
   931                           ; 1 bytes @ 0x12
   932                           
   933                           
   934                           ; 2 bytes @ 0x12
   935  0032                     	ds	1
   936  0033                     LCDWRITE@P:
   937  0033                     ___awdiv@quotient:	
   938                           ; 1 bytes @ 0x13
   939                           
   940                           
   941                           ; 2 bytes @ 0x13
   942  0033                     	ds	1
   943  0034                     ??_BCD_2_DEC:
   944  0034                     ??_WIND:	
   945                           ; 1 bytes @ 0x14
   946                           
   947  0034                     ??_SOLAR:	
   948                           ; 1 bytes @ 0x14
   949                           
   950  0034                     ??_BIOGAS:	
   951                           ; 1 bytes @ 0x14
   952                           
   953  0034                     ??_PHCN:	
   954                           ; 1 bytes @ 0x14
   955                           
   956  0034                     ??___lldiv:	
   957                           ; 1 bytes @ 0x14
   958                           
   959                           
   960                           ; 1 bytes @ 0x14
   961  0034                     	ds	1
   962  0035                     ?_LCDNUM:
   963  0035                     ?_DEC_2_BCD:	
   964                           ; 1 bytes @ 0x15
   965                           
   966  0035                     DEC_2_BCD@num:	
   967                           ; 2 bytes @ 0x15
   968                           
   969  0035                     LCDNUM@number:	
   970                           ; 2 bytes @ 0x15
   971                           
   972  0035                     ___lldiv@quotient:	
   973                           ; 2 bytes @ 0x15
   974                           
   975                           
   976                           ; 4 bytes @ 0x15
   977  0035                     	ds	1
   978  0036                     BCD_2_DEC@data:
   979                           
   980                           ; 2 bytes @ 0x16
   981  0036                     	ds	1
   982  0037                     ??_DEC_2_BCD:
   983  0037                     ??_LCDNUM:	
   984                           ; 1 bytes @ 0x17
   985                           
   986                           
   987                           ; 1 bytes @ 0x17
   988  0037                     	ds	1
   989  0038                     LCDNUM@h:
   990                           
   991                           ; 1 bytes @ 0x18
   992  0038                     	ds	1
   993  0039                     LCDNUM@t:
   994  0039                     ___lldiv@counter:	
   995                           ; 1 bytes @ 0x19
   996                           
   997  0039                     DEC_2_BCD@data:	
   998                           ; 1 bytes @ 0x19
   999                           
  1000                           
  1001                           ; 2 bytes @ 0x19
  1002  0039                     	ds	1
  1003  003A                     ?_I2C_Initialize:
  1004  003A                     LCDNUM@u:	
  1005                           ; 1 bytes @ 0x1A
  1006                           
  1007  003A                     I2C_Initialize@feq_K:	
  1008                           ; 1 bytes @ 0x1A
  1009                           
  1010                           
  1011                           ; 4 bytes @ 0x1A
  1012  003A                     	ds	1
  1013  003B                     ?_I2C_Write:
  1014  003B                     LCDNUM@t_233:	
  1015                           ; 2 bytes @ 0x1B
  1016                           
  1017  003B                     I2C_Write@data:	
  1018                           ; 1 bytes @ 0x1B
  1019                           
  1020                           
  1021                           ; 2 bytes @ 0x1B
  1022  003B                     	ds	1
  1023  003C                     LCDNUM@u_234:
  1024                           
  1025                           ; 1 bytes @ 0x1C
  1026  003C                     	ds	1
  1027  003D                     ??_I2C_Write:
  1028  003D                     ??_Set_Time_Date:	
  1029                           ; 1 bytes @ 0x1D
  1030                           
  1031  003D                     ??_Update_Current_Date_Time:	
  1032                           ; 1 bytes @ 0x1D
  1033                           
  1034  003D                     LCDNUM@r:	
  1035                           ; 1 bytes @ 0x1D
  1036                           
  1037                           
  1038                           ; 2 bytes @ 0x1D
  1039  003D                     	ds	1
  1040  003E                     ??_I2C_Initialize:
  1041                           
  1042                           ; 1 bytes @ 0x1E
  1043  003E                     	ds	4
  1044  0042                     main@out:
  1045                           
  1046                           ; 2 bytes @ 0x22
  1047  0042                     	ds	2
  1048                           
  1049                           	psect	maintext
  1050  003F                     __pmaintext:	
  1051 ;;
  1052 ;;Main: autosize = 0, tempsize = 22, incstack = 0, save=0
  1053 ;;
  1054 ;; *************** function _main *****************
  1055 ;; Defined at:
  1056 ;;		line 138 in file "main.c"
  1057 ;; Parameters:    Size  Location     Type
  1058 ;;		None
  1059 ;; Auto vars:     Size  Location     Type
  1060 ;;  out             2   34[BANK0 ] int 
  1061 ;; Return value:  Size  Location     Type
  1062 ;;                  1    wreg      void 
  1063 ;; Registers used:
  1064 ;;		wreg, fsr0l, fsr0h, status,2, status,0, btemp+1, pclath, cstack
  1065 ;; Tracked objects:
  1066 ;;		On entry : B00/0
  1067 ;;		On exit  : 0/0
  1068 ;;		Unchanged: 0/0
  1069 ;; Data sizes:     COMMON   BANK0   BANK1   BANK3   BANK2
  1070 ;;      Params:         0       0       0       0       0
  1071 ;;      Locals:         0       2       0       0       0
  1072 ;;      Temps:          0       0      22       0       0
  1073 ;;      Totals:         0       2      22       0       0
  1074 ;;Total ram usage:       24 bytes
  1075 ;; Hardware stack levels required when called: 8
  1076 ;; This function calls:
  1077 ;;		_BIOGAS
  1078 ;;		_CLRDISP
  1079 ;;		_CURSOR
  1080 ;;		_I2C_Initialize
  1081 ;;		_LCDNUM
  1082 ;;		_LCDWRITE
  1083 ;;		_PHCN
  1084 ;;		_SOLAR
  1085 ;;		_Set_Time_Date
  1086 ;;		_Update_Current_Date_Time
  1087 ;;		_WIND
  1088 ;;		_config
  1089 ;; This function is called by:
  1090 ;;		Startup code after reset
  1091 ;; This function uses a non-reentrant model
  1092 ;;
  1093                           
  1094                           
  1095                           ;psect for function _main
  1096  003F                     _main:
  1097  003F                     l2711:	
  1098                           ;incstack = 0
  1099                           ; Regs used in _main: [wreg-fsr0h+status,2+status,0+btemp+1+pclath+cstack]
  1100                           
  1101                           
  1102                           ;main.c: 139:     TRISB=0x00;
  1103  003F  1683               	bsf	3,5	;RP0=1, select bank1
  1104  0040  1303               	bcf	3,6	;RP1=0, select bank1
  1105  0041  0186               	clrf	6	;volatile
  1106                           
  1107                           ;main.c: 140:     PORTB=0x00;
  1108  0042  1283               	bcf	3,5	;RP0=0, select bank0
  1109  0043  1303               	bcf	3,6	;RP1=0, select bank0
  1110  0044  0186               	clrf	6	;volatile
  1111  0045                     l2713:
  1112                           
  1113                           ;main.c: 141:     ADCON1=0xC2;
  1114  0045  30C2               	movlw	194
  1115  0046  1683               	bsf	3,5	;RP0=1, select bank1
  1116  0047  1303               	bcf	3,6	;RP1=0, select bank1
  1117  0048  009F               	movwf	31	;volatile
  1118  0049                     l2715:
  1119                           
  1120                           ;main.c: 142:     ADCON0=0xC1;
  1121  0049  30C1               	movlw	193
  1122  004A  1283               	bcf	3,5	;RP0=0, select bank0
  1123  004B  1303               	bcf	3,6	;RP1=0, select bank0
  1124  004C  009F               	movwf	31	;volatile
  1125  004D                     l2717:
  1126                           
  1127                           ;main.c: 143:     TRISA=0xFF;
  1128  004D  30FF               	movlw	255
  1129  004E  1683               	bsf	3,5	;RP0=1, select bank1
  1130  004F  1303               	bcf	3,6	;RP1=0, select bank1
  1131  0050  0085               	movwf	5	;volatile
  1132  0051                     l2719:
  1133                           
  1134                           ;main.c: 144:     TRISD=0xC0;
  1135  0051  30C0               	movlw	192
  1136  0052  0088               	movwf	8	;volatile
  1137                           
  1138                           ;main.c: 145:     PORTD=0x00;
  1139  0053  1283               	bcf	3,5	;RP0=0, select bank0
  1140  0054  1303               	bcf	3,6	;RP1=0, select bank0
  1141  0055  0188               	clrf	8	;volatile
  1142  0056                     l2721:
  1143                           
  1144                           ;main.c: 146:     TMR0=255;
  1145  0056  30FF               	movlw	255
  1146  0057  0081               	movwf	1	;volatile
  1147  0058                     l2723:
  1148                           
  1149                           ;main.c: 147:     TMR0IE=0;
  1150  0058  128B               	bcf	11,5	;volatile
  1151  0059                     l2725:
  1152                           
  1153                           ;main.c: 148:     OPTION_REG=0xA8;
  1154  0059  30A8               	movlw	168
  1155  005A  1683               	bsf	3,5	;RP0=1, select bank1
  1156  005B  1303               	bcf	3,6	;RP1=0, select bank1
  1157  005C  0081               	movwf	1	;volatile
  1158  005D                     l2727:
  1159                           
  1160                           ;main.c: 149:     TRISC0=1;
  1161  005D  1407               	bsf	7,0	;volatile
  1162  005E                     l2729:
  1163                           
  1164                           ;main.c: 150:     T1CON=0x06;
  1165  005E  3006               	movlw	6
  1166  005F  1283               	bcf	3,5	;RP0=0, select bank0
  1167  0060  1303               	bcf	3,6	;RP1=0, select bank0
  1168  0061  0090               	movwf	16	;volatile
  1169  0062                     l2731:
  1170                           
  1171                           ;main.c: 151:     TMR1=65535;
  1172  0062  30FF               	movlw	255
  1173  0063  008F               	movwf	15	;volatile
  1174  0064  30FF               	movlw	255
  1175  0065  008E               	movwf	14	;volatile
  1176  0066                     l2733:
  1177                           
  1178                           ;main.c: 152:     TMR1IE=0;
  1179  0066  1683               	bsf	3,5	;RP0=1, select bank1
  1180  0067  1303               	bcf	3,6	;RP1=0, select bank1
  1181  0068  100C               	bcf	12,0	;volatile
  1182  0069                     l2735:
  1183                           
  1184                           ;main.c: 153:     SSPIE=0;
  1185  0069  118C               	bcf	12,3	;volatile
  1186  006A                     l2737:
  1187                           
  1188                           ;main.c: 154:     PEIE=0;
  1189  006A  130B               	bcf	11,6	;volatile
  1190  006B                     l2739:
  1191                           
  1192                           ;main.c: 155:     GIE=0;
  1193  006B  138B               	bcf	11,7	;volatile
  1194  006C                     l2741:
  1195                           
  1196                           ;main.c: 156:     TMR1ON=1;
  1197  006C  1283               	bcf	3,5	;RP0=0, select bank0
  1198  006D  1303               	bcf	3,6	;RP1=0, select bank0
  1199  006E  1410               	bsf	16,0	;volatile
  1200  006F                     l2743:
  1201                           
  1202                           ;main.c: 157:     I2C_Initialize(100000);
  1203  006F  3000               	movlw	0
  1204  0070  00BD               	movwf	I2C_Initialize@feq_K+3
  1205  0071  3001               	movlw	1
  1206  0072  00BC               	movwf	I2C_Initialize@feq_K+2
  1207  0073  3086               	movlw	134
  1208  0074  00BB               	movwf	I2C_Initialize@feq_K+1
  1209  0075  30A0               	movlw	160
  1210  0076  00BA               	movwf	I2C_Initialize@feq_K
  1211  0077  120A  158A  23E5  120A  118A  	fcall	_I2C_Initialize
  1212  007C                     l2745:
  1213                           
  1214                           ;main.c: 158:     Set_Time_Date();
  1215  007C  120A  118A  2670  120A  118A  	fcall	_Set_Time_Date
  1216  0081                     l2747:
  1217                           
  1218                           ;main.c: 159:     TMR0IE=1;
  1219  0081  168B               	bsf	11,5	;volatile
  1220  0082                     l2749:
  1221                           
  1222                           ;main.c: 160:     TMR1IE=1;
  1223  0082  1683               	bsf	3,5	;RP0=1, select bank1
  1224  0083  1303               	bcf	3,6	;RP1=0, select bank1
  1225  0084  140C               	bsf	12,0	;volatile
  1226  0085                     l2751:
  1227                           
  1228                           ;main.c: 161:     config();
  1229  0085  120A  158A  2797  120A  118A  	fcall	_config
  1230  008A                     l2753:
  1231                           
  1232                           ;main.c: 162:     CLRDISP();
  1233  008A  120A  158A  22C0  120A  118A  	fcall	_CLRDISP
  1234  008F                     l2755:
  1235                           
  1236                           ;main.c: 163:     CLRDISP();
  1237  008F  120A  158A  22C0  120A  118A  	fcall	_CLRDISP
  1238  0094                     l2757:
  1239                           
  1240                           ;main.c: 164:     CURSOR(0x80,3);
  1241  0094  3003               	movlw	3
  1242  0095  1683               	bsf	3,5	;RP0=1, select bank1
  1243  0096  1303               	bcf	3,6	;RP1=0, select bank1
  1244  0097  00A0               	movwf	??_main^(0+128)
  1245  0098  0820               	movf	??_main^(0+128),w
  1246  0099  1283               	bcf	3,5	;RP0=0, select bank0
  1247  009A  1303               	bcf	3,6	;RP1=0, select bank0
  1248  009B  00AE               	movwf	CURSOR@b
  1249  009C  3080               	movlw	128
  1250  009D  120A  158A  22DD  120A  118A  	fcall	_CURSOR
  1251  00A2                     l2759:
  1252                           
  1253                           ;main.c: 165:     LCDWRITE("PHASE SELECTOR");
  1254  00A2  304D               	movlw	(low ((STR_5-__stringbase)| (0+32768)))& (0+255)
  1255  00A3  120A  158A  255D  120A  118A  	fcall	_LCDWRITE
  1256  00A8                     l2761:
  1257                           
  1258                           ;main.c: 166:     RD0=RD1=RD2=RD3=0;
  1259  00A8  1283               	bcf	3,5	;RP0=0, select bank0
  1260  00A9  1303               	bcf	3,6	;RP1=0, select bank0
  1261  00AA  1188               	bcf	8,3	;volatile
  1262  00AB  1108               	bcf	8,2	;volatile
  1263  00AC  1088               	bcf	8,1	;volatile
  1264  00AD  1008               	bcf	8,0	;volatile
  1265  00AE                     l2763:
  1266                           
  1267                           ;main.c: 167:     PEIE=1;
  1268  00AE  170B               	bsf	11,6	;volatile
  1269  00AF                     l2765:
  1270                           
  1271                           ;main.c: 168:     GIE=1;
  1272  00AF  178B               	bsf	11,7	;volatile
  1273  00B0                     l2767:
  1274                           
  1275                           ;main.c: 171:         CURSOR(0xC0,5);
  1276  00B0  3005               	movlw	5
  1277  00B1  1683               	bsf	3,5	;RP0=1, select bank1
  1278  00B2  1303               	bcf	3,6	;RP1=0, select bank1
  1279  00B3  00A0               	movwf	??_main^(0+128)
  1280  00B4  0820               	movf	??_main^(0+128),w
  1281  00B5  1283               	bcf	3,5	;RP0=0, select bank0
  1282  00B6  1303               	bcf	3,6	;RP1=0, select bank0
  1283  00B7  00AE               	movwf	CURSOR@b
  1284  00B8  30C0               	movlw	192
  1285  00B9  120A  158A  22DD  120A  118A  	fcall	_CURSOR
  1286  00BE                     l2769:
  1287                           
  1288                           ;main.c: 172:         LCDNUM(hour);
  1289  00BE  1283               	bcf	3,5	;RP0=0, select bank0
  1290  00BF  1303               	bcf	3,6	;RP1=0, select bank0
  1291  00C0  0851               	movf	_hour+1,w
  1292  00C1  00B6               	movwf	LCDNUM@number+1
  1293  00C2  0850               	movf	_hour,w
  1294  00C3  00B5               	movwf	LCDNUM@number
  1295  00C4  120A  118A  242D  120A  118A  	fcall	_LCDNUM
  1296  00C9                     l2771:
  1297                           
  1298                           ;main.c: 173:         LCDWRITE(":");
  1299  00C9  30AE               	movlw	(low ((STR_6-__stringbase)| (0+32768)))& (0+255)
  1300  00CA  120A  158A  255D  120A  118A  	fcall	_LCDWRITE
  1301  00CF                     l2773:
  1302                           
  1303                           ;main.c: 174:         LCDNUM(min);
  1304  00CF  1283               	bcf	3,5	;RP0=0, select bank0
  1305  00D0  1303               	bcf	3,6	;RP1=0, select bank0
  1306  00D1  0853               	movf	_min+1,w
  1307  00D2  00B6               	movwf	LCDNUM@number+1
  1308  00D3  0852               	movf	_min,w
  1309  00D4  00B5               	movwf	LCDNUM@number
  1310  00D5  120A  118A  242D  120A  118A  	fcall	_LCDNUM
  1311  00DA                     l2775:
  1312                           
  1313                           ;main.c: 175:         LCDWRITE(":");
  1314  00DA  30AE               	movlw	(low ((STR_6-__stringbase)| (0+32768)))& (0+255)
  1315  00DB  120A  158A  255D  120A  118A  	fcall	_LCDWRITE
  1316  00E0                     l2777:
  1317                           
  1318                           ;main.c: 176:         LCDNUM(sec);
  1319  00E0  1283               	bcf	3,5	;RP0=0, select bank0
  1320  00E1  1303               	bcf	3,6	;RP1=0, select bank0
  1321  00E2  0855               	movf	_sec+1,w
  1322  00E3  00B6               	movwf	LCDNUM@number+1
  1323  00E4  0854               	movf	_sec,w
  1324  00E5  00B5               	movwf	LCDNUM@number
  1325  00E6  120A  118A  242D  120A  118A  	fcall	_LCDNUM
  1326  00EB                     l2779:
  1327                           
  1328                           ;main.c: 177:         if(nextState==initialState){
  1329  00EB  1283               	bcf	3,5	;RP0=0, select bank0
  1330  00EC  1303               	bcf	3,6	;RP1=0, select bank0
  1331  00ED  0856               	movf	_nextState,w
  1332  00EE  1D03               	btfss	3,2
  1333  00EF  28F1               	goto	u1991
  1334  00F0  28F2               	goto	u1990
  1335  00F1                     u1991:
  1336  00F1  2A15               	goto	l257
  1337  00F2                     u1990:
  1338  00F2                     l2781:
  1339                           
  1340                           ;main.c: 178:             RC7=RC6=RC5=RC4=1;
  1341  00F2  1607               	bsf	7,4	;volatile
  1342  00F3  1A07               	btfsc	7,4	;volatile
  1343  00F4  28F6               	goto	u2001
  1344  00F5  28FA               	goto	u2000
  1345  00F6                     u2001:
  1346  00F6  1283               	bcf	3,5	;RP0=0, select bank0
  1347  00F7  1303               	bcf	3,6	;RP1=0, select bank0
  1348  00F8  1687               	bsf	7,5	;volatile
  1349  00F9  28FD               	goto	u2014
  1350  00FA                     u2000:
  1351  00FA  1283               	bcf	3,5	;RP0=0, select bank0
  1352  00FB  1303               	bcf	3,6	;RP1=0, select bank0
  1353  00FC  1287               	bcf	7,5	;volatile
  1354  00FD                     u2014:
  1355  00FD  1A87               	btfsc	7,5	;volatile
  1356  00FE  2900               	goto	u2011
  1357  00FF  2904               	goto	u2010
  1358  0100                     u2011:
  1359  0100  1283               	bcf	3,5	;RP0=0, select bank0
  1360  0101  1303               	bcf	3,6	;RP1=0, select bank0
  1361  0102  1707               	bsf	7,6	;volatile
  1362  0103  2907               	goto	u2024
  1363  0104                     u2010:
  1364  0104  1283               	bcf	3,5	;RP0=0, select bank0
  1365  0105  1303               	bcf	3,6	;RP1=0, select bank0
  1366  0106  1307               	bcf	7,6	;volatile
  1367  0107                     u2024:
  1368  0107  1B07               	btfsc	7,6	;volatile
  1369  0108  290A               	goto	u2021
  1370  0109  290E               	goto	u2020
  1371  010A                     u2021:
  1372  010A  1283               	bcf	3,5	;RP0=0, select bank0
  1373  010B  1303               	bcf	3,6	;RP1=0, select bank0
  1374  010C  1787               	bsf	7,7	;volatile
  1375  010D  2911               	goto	u2034
  1376  010E                     u2020:
  1377  010E  1283               	bcf	3,5	;RP0=0, select bank0
  1378  010F  1303               	bcf	3,6	;RP1=0, select bank0
  1379  0110  1387               	bcf	7,7	;volatile
  1380  0111                     u2034:
  1381  0111                     l2783:
  1382                           
  1383                           ;main.c: 179:             _delay((unsigned long)((100)*(20000000/4000.0)));
  1384  0111  3003               	movlw	3
  1385  0112  1683               	bsf	3,5	;RP0=1, select bank1
  1386  0113  1303               	bcf	3,6	;RP1=0, select bank1
  1387  0114  00A2               	movwf	(??_main^(0+128)+2)
  1388  0115  308A               	movlw	138
  1389  0116  00A1               	movwf	(??_main^(0+128)+1)
  1390  0117  3055               	movlw	85
  1391  0118  00A0               	movwf	??_main^(0+128)
  1392  0119                     u2267:
  1393  0119  0BA0               	decfsz	??_main^(0+128),f
  1394  011A  2919               	goto	u2267
  1395  011B  0BA1               	decfsz	(??_main^(0+128)+1),f
  1396  011C  2919               	goto	u2267
  1397  011D  0BA2               	decfsz	(??_main^(0+128)+2),f
  1398  011E  2919               	goto	u2267
  1399  011F                     l2785:
  1400                           
  1401                           ;main.c: 180:             ADCON0bits.CHS=0;
  1402  011F  30C7               	movlw	-57
  1403  0120  1283               	bcf	3,5	;RP0=0, select bank0
  1404  0121  1303               	bcf	3,6	;RP1=0, select bank0
  1405  0122  059F               	andwf	31,f	;volatile
  1406  0123                     l2787:
  1407                           
  1408                           ;main.c: 181:              _delay((unsigned long)((20)*(20000000/4000000.0)));
  1409  0123  3020               	movlw	32
  1410  0124  1683               	bsf	3,5	;RP0=1, select bank1
  1411  0125  1303               	bcf	3,6	;RP1=0, select bank1
  1412  0126  00A0               	movwf	??_main^(0+128)
  1413  0127                     u2277:
  1414  0127  0BA0               	decfsz	??_main^(0+128),f
  1415  0128  2927               	goto	u2277
  1416  0129  0000               	nop
  1417  012A                     l2789:
  1418                           
  1419                           ;main.c: 182:             ADCON0bits.GO_nDONE=1;
  1420  012A  1283               	bcf	3,5	;RP0=0, select bank0
  1421  012B  1303               	bcf	3,6	;RP1=0, select bank0
  1422  012C  151F               	bsf	31,2	;volatile
  1423  012D                     l258:	
  1424                           ;main.c: 183:             while(ADCON0bits.GO_nDONE);
  1425                           
  1426  012D  191F               	btfsc	31,2	;volatile
  1427  012E  2930               	goto	u2041
  1428  012F  2931               	goto	u2040
  1429  0130                     u2041:
  1430  0130  292D               	goto	l258
  1431  0131                     u2040:
  1432  0131                     l2791:
  1433                           
  1434                           ;main.c: 184:             wind_val=(ADRESH<<8)+ADRESL;
  1435  0131  081E               	movf	30,w	;volatile
  1436  0132  00CF               	movwf	_wind_val+1
  1437  0133  1683               	bsf	3,5	;RP0=1, select bank1
  1438  0134  1303               	bcf	3,6	;RP1=0, select bank1
  1439  0135  081E               	movf	30,w	;volatile
  1440  0136  1283               	bcf	3,5	;RP0=0, select bank0
  1441  0137  1303               	bcf	3,6	;RP1=0, select bank0
  1442  0138  00CE               	movwf	_wind_val
  1443                           
  1444                           ;main.c: 185:             _delay((unsigned long)((100)*(20000000/4000000.0)));
  1445  0139  30A5               	movlw	165
  1446  013A  1683               	bsf	3,5	;RP0=1, select bank1
  1447  013B  1303               	bcf	3,6	;RP1=0, select bank1
  1448  013C  00A0               	movwf	??_main^(0+128)
  1449  013D                     u2287:
  1450  013D  0BA0               	decfsz	??_main^(0+128),f
  1451  013E  293D               	goto	u2287
  1452  013F  2940               	nop2
  1453  0140                     l2793:
  1454                           
  1455                           ;main.c: 186:             ADCON0bits.CHS=1;
  1456  0140  1283               	bcf	3,5	;RP0=0, select bank0
  1457  0141  1303               	bcf	3,6	;RP1=0, select bank0
  1458  0142  081F               	movf	31,w	;volatile
  1459  0143  39C7               	andlw	-57
  1460  0144  3808               	iorlw	8
  1461  0145  009F               	movwf	31	;volatile
  1462  0146                     l2795:
  1463                           
  1464                           ;main.c: 187:              _delay((unsigned long)((20)*(20000000/4000000.0)));
  1465  0146  3020               	movlw	32
  1466  0147  1683               	bsf	3,5	;RP0=1, select bank1
  1467  0148  1303               	bcf	3,6	;RP1=0, select bank1
  1468  0149  00A0               	movwf	??_main^(0+128)
  1469  014A                     u2297:
  1470  014A  0BA0               	decfsz	??_main^(0+128),f
  1471  014B  294A               	goto	u2297
  1472  014C  0000               	nop
  1473  014D                     l2797:
  1474                           
  1475                           ;main.c: 188:             ADCON0bits.GO_nDONE=1;
  1476  014D  1283               	bcf	3,5	;RP0=0, select bank0
  1477  014E  1303               	bcf	3,6	;RP1=0, select bank0
  1478  014F  151F               	bsf	31,2	;volatile
  1479  0150                     l261:	
  1480                           ;main.c: 189:             while(ADCON0bits.GO_nDONE);
  1481                           
  1482  0150  191F               	btfsc	31,2	;volatile
  1483  0151  2953               	goto	u2051
  1484  0152  2954               	goto	u2050
  1485  0153                     u2051:
  1486  0153  2950               	goto	l261
  1487  0154                     u2050:
  1488  0154                     l2799:
  1489                           
  1490                           ;main.c: 190:             solar_val=(ADRESH<<8)+ADRESL;
  1491  0154  081E               	movf	30,w	;volatile
  1492  0155  00CD               	movwf	_solar_val+1
  1493  0156  1683               	bsf	3,5	;RP0=1, select bank1
  1494  0157  1303               	bcf	3,6	;RP1=0, select bank1
  1495  0158  081E               	movf	30,w	;volatile
  1496  0159  1283               	bcf	3,5	;RP0=0, select bank0
  1497  015A  1303               	bcf	3,6	;RP1=0, select bank0
  1498  015B  00CC               	movwf	_solar_val
  1499                           
  1500                           ;main.c: 191:             _delay((unsigned long)((100)*(20000000/4000000.0)));
  1501  015C  30A5               	movlw	165
  1502  015D  1683               	bsf	3,5	;RP0=1, select bank1
  1503  015E  1303               	bcf	3,6	;RP1=0, select bank1
  1504  015F  00A0               	movwf	??_main^(0+128)
  1505  0160                     u2307:
  1506  0160  0BA0               	decfsz	??_main^(0+128),f
  1507  0161  2960               	goto	u2307
  1508  0162  2963               	nop2
  1509  0163                     l2801:
  1510                           
  1511                           ;main.c: 192:             ADCON0bits.CHS=2;
  1512  0163  1283               	bcf	3,5	;RP0=0, select bank0
  1513  0164  1303               	bcf	3,6	;RP1=0, select bank0
  1514  0165  081F               	movf	31,w	;volatile
  1515  0166  39C7               	andlw	-57
  1516  0167  3810               	iorlw	16
  1517  0168  009F               	movwf	31	;volatile
  1518  0169                     l2803:
  1519                           
  1520                           ;main.c: 193:              _delay((unsigned long)((20)*(20000000/4000000.0)));
  1521  0169  3020               	movlw	32
  1522  016A  1683               	bsf	3,5	;RP0=1, select bank1
  1523  016B  1303               	bcf	3,6	;RP1=0, select bank1
  1524  016C  00A0               	movwf	??_main^(0+128)
  1525  016D                     u2317:
  1526  016D  0BA0               	decfsz	??_main^(0+128),f
  1527  016E  296D               	goto	u2317
  1528  016F  0000               	nop
  1529  0170                     l2805:
  1530                           
  1531                           ;main.c: 194:             ADCON0bits.GO_nDONE=1;
  1532  0170  1283               	bcf	3,5	;RP0=0, select bank0
  1533  0171  1303               	bcf	3,6	;RP1=0, select bank0
  1534  0172  151F               	bsf	31,2	;volatile
  1535  0173                     l264:	
  1536                           ;main.c: 195:             while(ADCON0bits.GO_nDONE);
  1537                           
  1538  0173  191F               	btfsc	31,2	;volatile
  1539  0174  2976               	goto	u2061
  1540  0175  2977               	goto	u2060
  1541  0176                     u2061:
  1542  0176  2973               	goto	l264
  1543  0177                     u2060:
  1544  0177                     l2807:
  1545                           
  1546                           ;main.c: 196:             biogas_val=(ADRESH<<8)+ADRESL;
  1547  0177  081E               	movf	30,w	;volatile
  1548  0178  00CB               	movwf	_biogas_val+1
  1549  0179  1683               	bsf	3,5	;RP0=1, select bank1
  1550  017A  1303               	bcf	3,6	;RP1=0, select bank1
  1551  017B  081E               	movf	30,w	;volatile
  1552  017C  1283               	bcf	3,5	;RP0=0, select bank0
  1553  017D  1303               	bcf	3,6	;RP1=0, select bank0
  1554  017E  00CA               	movwf	_biogas_val
  1555                           
  1556                           ;main.c: 197:             _delay((unsigned long)((100)*(20000000/4000000.0)));
  1557  017F  30A5               	movlw	165
  1558  0180  1683               	bsf	3,5	;RP0=1, select bank1
  1559  0181  1303               	bcf	3,6	;RP1=0, select bank1
  1560  0182  00A0               	movwf	??_main^(0+128)
  1561  0183                     u2327:
  1562  0183  0BA0               	decfsz	??_main^(0+128),f
  1563  0184  2983               	goto	u2327
  1564  0185  2986               	nop2
  1565  0186                     l2809:
  1566                           
  1567                           ;main.c: 198:             ADCON0bits.CHS=3;
  1568  0186  1283               	bcf	3,5	;RP0=0, select bank0
  1569  0187  1303               	bcf	3,6	;RP1=0, select bank0
  1570  0188  081F               	movf	31,w	;volatile
  1571  0189  39C7               	andlw	-57
  1572  018A  3818               	iorlw	24
  1573  018B  009F               	movwf	31	;volatile
  1574  018C                     l2811:
  1575                           
  1576                           ;main.c: 199:              _delay((unsigned long)((20)*(20000000/4000000.0)));
  1577  018C  3020               	movlw	32
  1578  018D  1683               	bsf	3,5	;RP0=1, select bank1
  1579  018E  1303               	bcf	3,6	;RP1=0, select bank1
  1580  018F  00A0               	movwf	??_main^(0+128)
  1581  0190                     u2337:
  1582  0190  0BA0               	decfsz	??_main^(0+128),f
  1583  0191  2990               	goto	u2337
  1584  0192  0000               	nop
  1585  0193                     l2813:
  1586                           
  1587                           ;main.c: 200:             ADCON0bits.GO_nDONE=1;
  1588  0193  1283               	bcf	3,5	;RP0=0, select bank0
  1589  0194  1303               	bcf	3,6	;RP1=0, select bank0
  1590  0195  151F               	bsf	31,2	;volatile
  1591  0196                     l267:	
  1592                           ;main.c: 201:             while(ADCON0bits.GO_nDONE);
  1593                           
  1594  0196  191F               	btfsc	31,2	;volatile
  1595  0197  2999               	goto	u2071
  1596  0198  299A               	goto	u2070
  1597  0199                     u2071:
  1598  0199  2996               	goto	l267
  1599  019A                     u2070:
  1600  019A                     l2815:
  1601                           
  1602                           ;main.c: 202:             phcn_val=(ADRESH<<8)+ADRESL;
  1603  019A  081E               	movf	30,w	;volatile
  1604  019B  00C9               	movwf	_phcn_val+1
  1605  019C  1683               	bsf	3,5	;RP0=1, select bank1
  1606  019D  1303               	bcf	3,6	;RP1=0, select bank1
  1607  019E  081E               	movf	30,w	;volatile
  1608  019F  1283               	bcf	3,5	;RP0=0, select bank0
  1609  01A0  1303               	bcf	3,6	;RP1=0, select bank0
  1610  01A1  00C8               	movwf	_phcn_val
  1611                           
  1612                           ;main.c: 203:             _delay((unsigned long)((100)*(20000000/4000000.0)));
  1613  01A2  30A5               	movlw	165
  1614  01A3  1683               	bsf	3,5	;RP0=1, select bank1
  1615  01A4  1303               	bcf	3,6	;RP1=0, select bank1
  1616  01A5  00A0               	movwf	??_main^(0+128)
  1617  01A6                     u2347:
  1618  01A6  0BA0               	decfsz	??_main^(0+128),f
  1619  01A7  29A6               	goto	u2347
  1620  01A8  29A9               	nop2
  1621  01A9                     l2817:
  1622                           
  1623                           ;main.c: 204:             Update_Current_Date_Time();
  1624  01A9  120A  118A  25CC  120A  118A  	fcall	_Update_Current_Date_Time
  1625  01AE                     l2819:
  1626                           
  1627                           ;main.c: 205:             if((hour>=0)&&(hour<=7))nextState=night;
  1628  01AE  1283               	bcf	3,5	;RP0=0, select bank0
  1629  01AF  1303               	bcf	3,6	;RP1=0, select bank0
  1630  01B0  1BD1               	btfsc	_hour+1,7
  1631  01B1  29B3               	goto	u2081
  1632  01B2  29B4               	goto	u2080
  1633  01B3                     u2081:
  1634  01B3  29CA               	goto	l2825
  1635  01B4                     u2080:
  1636  01B4                     l2821:
  1637  01B4  0851               	movf	_hour+1,w
  1638  01B5  3A80               	xorlw	128
  1639  01B6  00FF               	movwf	btemp+1
  1640  01B7  3080               	movlw	128
  1641  01B8  027F               	subwf	btemp+1,w
  1642  01B9  1D03               	skipz
  1643  01BA  29BD               	goto	u2095
  1644  01BB  3008               	movlw	8
  1645  01BC  0250               	subwf	_hour,w
  1646  01BD                     u2095:
  1647  01BD  1803               	skipnc
  1648  01BE  29C0               	goto	u2091
  1649  01BF  29C1               	goto	u2090
  1650  01C0                     u2091:
  1651  01C0  29CA               	goto	l2825
  1652  01C1                     u2090:
  1653  01C1                     l2823:
  1654  01C1  3003               	movlw	3
  1655  01C2  1683               	bsf	3,5	;RP0=1, select bank1
  1656  01C3  1303               	bcf	3,6	;RP1=0, select bank1
  1657  01C4  00A0               	movwf	??_main^(0+128)
  1658  01C5  0820               	movf	??_main^(0+128),w
  1659  01C6  1283               	bcf	3,5	;RP0=0, select bank0
  1660  01C7  1303               	bcf	3,6	;RP1=0, select bank0
  1661  01C8  00D6               	movwf	_nextState
  1662  01C9  2A15               	goto	l257
  1663  01CA                     l2825:
  1664  01CA  1283               	bcf	3,5	;RP0=0, select bank0
  1665  01CB  1303               	bcf	3,6	;RP1=0, select bank0
  1666  01CC  0851               	movf	_hour+1,w
  1667  01CD  3A80               	xorlw	128
  1668  01CE  00FF               	movwf	btemp+1
  1669  01CF  3080               	movlw	128
  1670  01D0  027F               	subwf	btemp+1,w
  1671  01D1  1D03               	skipz
  1672  01D2  29D5               	goto	u2105
  1673  01D3  3008               	movlw	8
  1674  01D4  0250               	subwf	_hour,w
  1675  01D5                     u2105:
  1676  01D5  1C03               	skipc
  1677  01D6  29D8               	goto	u2101
  1678  01D7  29D9               	goto	u2100
  1679  01D8                     u2101:
  1680  01D8  29ED               	goto	l2831
  1681  01D9                     u2100:
  1682  01D9                     l2827:
  1683  01D9  1283               	bcf	3,5	;RP0=0, select bank0
  1684  01DA  1303               	bcf	3,6	;RP1=0, select bank0
  1685  01DB  0851               	movf	_hour+1,w
  1686  01DC  3A80               	xorlw	128
  1687  01DD  00FF               	movwf	btemp+1
  1688  01DE  3080               	movlw	128
  1689  01DF  027F               	subwf	btemp+1,w
  1690  01E0  1D03               	skipz
  1691  01E1  29E4               	goto	u2115
  1692  01E2  300C               	movlw	12
  1693  01E3  0250               	subwf	_hour,w
  1694  01E4                     u2115:
  1695  01E4  1803               	skipnc
  1696  01E5  29E7               	goto	u2111
  1697  01E6  29E8               	goto	u2110
  1698  01E7                     u2111:
  1699  01E7  29ED               	goto	l2831
  1700  01E8                     u2110:
  1701  01E8                     l2829:
  1702  01E8  1283               	bcf	3,5	;RP0=0, select bank0
  1703  01E9  1303               	bcf	3,6	;RP1=0, select bank0
  1704  01EA  01D6               	clrf	_nextState
  1705  01EB  0AD6               	incf	_nextState,f
  1706  01EC  2A15               	goto	l257
  1707  01ED                     l2831:
  1708  01ED  1283               	bcf	3,5	;RP0=0, select bank0
  1709  01EE  1303               	bcf	3,6	;RP1=0, select bank0
  1710  01EF  0851               	movf	_hour+1,w
  1711  01F0  3A80               	xorlw	128
  1712  01F1  00FF               	movwf	btemp+1
  1713  01F2  3080               	movlw	128
  1714  01F3  027F               	subwf	btemp+1,w
  1715  01F4  1D03               	skipz
  1716  01F5  29F8               	goto	u2125
  1717  01F6  3012               	movlw	18
  1718  01F7  0250               	subwf	_hour,w
  1719  01F8                     u2125:
  1720  01F8  1803               	skipnc
  1721  01F9  29FB               	goto	u2121
  1722  01FA  29FC               	goto	u2120
  1723  01FB                     u2121:
  1724  01FB  2A05               	goto	l2835
  1725  01FC                     u2120:
  1726  01FC                     l2833:
  1727  01FC  3002               	movlw	2
  1728  01FD  1683               	bsf	3,5	;RP0=1, select bank1
  1729  01FE  1303               	bcf	3,6	;RP1=0, select bank1
  1730  01FF  00A0               	movwf	??_main^(0+128)
  1731  0200  0820               	movf	??_main^(0+128),w
  1732  0201  1283               	bcf	3,5	;RP0=0, select bank0
  1733  0202  1303               	bcf	3,6	;RP1=0, select bank0
  1734  0203  00D6               	movwf	_nextState
  1735  0204  2A15               	goto	l257
  1736  0205                     l2835:
  1737  0205  1283               	bcf	3,5	;RP0=0, select bank0
  1738  0206  1303               	bcf	3,6	;RP1=0, select bank0
  1739  0207  0851               	movf	_hour+1,w
  1740  0208  3A80               	xorlw	128
  1741  0209  00FF               	movwf	btemp+1
  1742  020A  3080               	movlw	128
  1743  020B  027F               	subwf	btemp+1,w
  1744  020C  1D03               	skipz
  1745  020D  2A10               	goto	u2135
  1746  020E  3017               	movlw	23
  1747  020F  0250               	subwf	_hour,w
  1748  0210                     u2135:
  1749  0210  1803               	skipnc
  1750  0211  2A13               	goto	u2131
  1751  0212  2A14               	goto	u2130
  1752  0213                     u2131:
  1753  0213  2A15               	goto	l273
  1754  0214                     u2130:
  1755  0214  29C1               	goto	l2823
  1756  0215                     l273:
  1757  0215                     l257:	
  1758                           ;main.c: 209:         }
  1759                           
  1760  0215  0064               	clrwdt	;# 
  1761                           
  1762                           ;main.c: 211:         _delay((unsigned long)((10)*(20000000/4000.0)));
  1763  0216  3041               	movlw	65
  1764  0217  1683               	bsf	3,5	;RP0=1, select bank1
  1765  0218  1303               	bcf	3,6	;RP1=0, select bank1
  1766  0219  00A1               	movwf	(??_main^(0+128)+1)
  1767  021A  30ED               	movlw	237
  1768  021B  00A0               	movwf	??_main^(0+128)
  1769  021C                     u2357:
  1770  021C  0BA0               	decfsz	??_main^(0+128),f
  1771  021D  2A1C               	goto	u2357
  1772  021E  0BA1               	decfsz	(??_main^(0+128)+1),f
  1773  021F  2A1C               	goto	u2357
  1774  0220  2A21               	nop2
  1775  0221                     l2839:
  1776                           
  1777                           ;main.c: 212:         combo=RD3;
  1778  0221  1003               	clrc
  1779  0222  1283               	bcf	3,5	;RP0=0, select bank0
  1780  0223  1303               	bcf	3,6	;RP1=0, select bank0
  1781  0224  1988               	btfsc	8,3	;volatile
  1782  0225  1403               	setc
  1783  0226  3000               	movlw	0
  1784  0227  1803               	skipnc
  1785  0228  3001               	movlw	1
  1786  0229  1683               	bsf	3,5	;RP0=1, select bank1
  1787  022A  1303               	bcf	3,6	;RP1=0, select bank1
  1788  022B  00A0               	movwf	??_main^(0+128)
  1789  022C  01A1               	clrf	(??_main^(0+128)+1)
  1790  022D  0820               	movf	??_main^(0+128),w
  1791  022E  1283               	bcf	3,5	;RP0=0, select bank0
  1792  022F  1303               	bcf	3,6	;RP1=0, select bank0
  1793  0230  00C6               	movwf	_combo
  1794  0231  1683               	bsf	3,5	;RP0=1, select bank1
  1795  0232  1303               	bcf	3,6	;RP1=0, select bank1
  1796  0233  0821               	movf	(??_main+1)^(0+128),w
  1797  0234  1283               	bcf	3,5	;RP0=0, select bank0
  1798  0235  1303               	bcf	3,6	;RP1=0, select bank0
  1799  0236  00C7               	movwf	_combo+1
  1800  0237                     l2841:
  1801                           
  1802                           ;main.c: 213:         combo|=(RD2<<1);
  1803  0237  1003               	clrc
  1804  0238  1908               	btfsc	8,2	;volatile
  1805  0239  1403               	setc
  1806  023A  3000               	movlw	0
  1807  023B  1803               	skipnc
  1808  023C  3001               	movlw	1
  1809  023D  1683               	bsf	3,5	;RP0=1, select bank1
  1810  023E  1303               	bcf	3,6	;RP1=0, select bank1
  1811  023F  00A0               	movwf	??_main^(0+128)
  1812  0240  01A1               	clrf	(??_main^(0+128)+1)
  1813  0241  1003               	clrc
  1814  0242  0DA0               	rlf	??_main^(0+128),f
  1815  0243  0DA1               	rlf	(??_main^(0+128)+1),f
  1816  0244  0820               	movf	??_main^(0+128),w
  1817  0245  1283               	bcf	3,5	;RP0=0, select bank0
  1818  0246  1303               	bcf	3,6	;RP1=0, select bank0
  1819  0247  04C6               	iorwf	_combo,f
  1820  0248  1683               	bsf	3,5	;RP0=1, select bank1
  1821  0249  1303               	bcf	3,6	;RP1=0, select bank1
  1822  024A  0821               	movf	(??_main+1)^(0+128),w
  1823  024B  1283               	bcf	3,5	;RP0=0, select bank0
  1824  024C  1303               	bcf	3,6	;RP1=0, select bank0
  1825  024D  04C7               	iorwf	_combo+1,f
  1826  024E                     l2843:
  1827                           
  1828                           ;main.c: 214:         combo|=(RD1<<2);
  1829  024E  1003               	clrc
  1830  024F  1888               	btfsc	8,1	;volatile
  1831  0250  1403               	setc
  1832  0251  3000               	movlw	0
  1833  0252  1803               	skipnc
  1834  0253  3001               	movlw	1
  1835  0254  1683               	bsf	3,5	;RP0=1, select bank1
  1836  0255  1303               	bcf	3,6	;RP1=0, select bank1
  1837  0256  00A0               	movwf	??_main^(0+128)
  1838  0257  01A1               	clrf	(??_main^(0+128)+1)
  1839  0258  1003               	clrc
  1840  0259  0DA0               	rlf	??_main^(0+128),f
  1841  025A  0DA1               	rlf	(??_main^(0+128)+1),f
  1842  025B  1003               	clrc
  1843  025C  0DA0               	rlf	??_main^(0+128),f
  1844  025D  0DA1               	rlf	(??_main^(0+128)+1),f
  1845  025E  0820               	movf	??_main^(0+128),w
  1846  025F  1283               	bcf	3,5	;RP0=0, select bank0
  1847  0260  1303               	bcf	3,6	;RP1=0, select bank0
  1848  0261  04C6               	iorwf	_combo,f
  1849  0262  1683               	bsf	3,5	;RP0=1, select bank1
  1850  0263  1303               	bcf	3,6	;RP1=0, select bank1
  1851  0264  0821               	movf	(??_main+1)^(0+128),w
  1852  0265  1283               	bcf	3,5	;RP0=0, select bank0
  1853  0266  1303               	bcf	3,6	;RP1=0, select bank0
  1854  0267  04C7               	iorwf	_combo+1,f
  1855  0268                     l2845:
  1856                           
  1857                           ;main.c: 215:         combo|=(RD0<<3);
  1858  0268  1003               	clrc
  1859  0269  1808               	btfsc	8,0	;volatile
  1860  026A  1403               	setc
  1861  026B  3000               	movlw	0
  1862  026C  1803               	skipnc
  1863  026D  3001               	movlw	1
  1864  026E  1683               	bsf	3,5	;RP0=1, select bank1
  1865  026F  1303               	bcf	3,6	;RP1=0, select bank1
  1866  0270  00A0               	movwf	??_main^(0+128)
  1867  0271  01A1               	clrf	(??_main^(0+128)+1)
  1868  0272  1003               	clrc
  1869  0273  0DA0               	rlf	??_main^(0+128),f
  1870  0274  0DA1               	rlf	(??_main^(0+128)+1),f
  1871  0275  1003               	clrc
  1872  0276  0DA0               	rlf	??_main^(0+128),f
  1873  0277  0DA1               	rlf	(??_main^(0+128)+1),f
  1874  0278  1003               	clrc
  1875  0279  0DA0               	rlf	??_main^(0+128),f
  1876  027A  0DA1               	rlf	(??_main^(0+128)+1),f
  1877  027B  0820               	movf	??_main^(0+128),w
  1878  027C  1283               	bcf	3,5	;RP0=0, select bank0
  1879  027D  1303               	bcf	3,6	;RP1=0, select bank0
  1880  027E  04C6               	iorwf	_combo,f
  1881  027F  1683               	bsf	3,5	;RP0=1, select bank1
  1882  0280  1303               	bcf	3,6	;RP1=0, select bank1
  1883  0281  0821               	movf	(??_main+1)^(0+128),w
  1884  0282  1283               	bcf	3,5	;RP0=0, select bank0
  1885  0283  1303               	bcf	3,6	;RP1=0, select bank0
  1886  0284  04C7               	iorwf	_combo+1,f
  1887  0285                     l2847:
  1888                           
  1889                           ;main.c: 216:         if(nextState==morning){
  1890  0285  0356               	decf	_nextState,w
  1891  0286  1D03               	btfss	3,2
  1892  0287  2A89               	goto	u2141
  1893  0288  2A8A               	goto	u2140
  1894  0289                     u2141:
  1895  0289  2ACF               	goto	l2865
  1896  028A                     u2140:
  1897  028A                     l2849:
  1898                           
  1899                           ;main.c: 217:             if(solar_val<thresh)SOLAR();
  1900  028A  084D               	movf	_solar_val+1,w
  1901  028B  3A80               	xorlw	128
  1902  028C  00FF               	movwf	btemp+1
  1903  028D  3083               	movlw	131
  1904  028E  027F               	subwf	btemp+1,w
  1905  028F  1D03               	skipz
  1906  0290  2A93               	goto	u2155
  1907  0291  3098               	movlw	152
  1908  0292  024C               	subwf	_solar_val,w
  1909  0293                     u2155:
  1910  0293  1803               	skipnc
  1911  0294  2A96               	goto	u2151
  1912  0295  2A97               	goto	u2150
  1913  0296                     u2151:
  1914  0296  2A9D               	goto	l2853
  1915  0297                     u2150:
  1916  0297                     l2851:
  1917  0297  120A  158A  24DB  120A  118A  	fcall	_SOLAR
  1918  029C  2ACC               	goto	l2863
  1919  029D                     l2853:
  1920  029D  1283               	bcf	3,5	;RP0=0, select bank0
  1921  029E  1303               	bcf	3,6	;RP1=0, select bank0
  1922  029F  084F               	movf	_wind_val+1,w
  1923  02A0  3A80               	xorlw	128
  1924  02A1  00FF               	movwf	btemp+1
  1925  02A2  3083               	movlw	131
  1926  02A3  027F               	subwf	btemp+1,w
  1927  02A4  1D03               	skipz
  1928  02A5  2AA8               	goto	u2165
  1929  02A6  3098               	movlw	152
  1930  02A7  024E               	subwf	_wind_val,w
  1931  02A8                     u2165:
  1932  02A8  1803               	skipnc
  1933  02A9  2AAB               	goto	u2161
  1934  02AA  2AAC               	goto	u2160
  1935  02AB                     u2161:
  1936  02AB  2AB2               	goto	l2857
  1937  02AC                     u2160:
  1938  02AC                     l2855:
  1939  02AC  120A  158A  251C  120A  118A  	fcall	_WIND
  1940  02B1  2ACC               	goto	l2863
  1941  02B2                     l2857:
  1942  02B2  1283               	bcf	3,5	;RP0=0, select bank0
  1943  02B3  1303               	bcf	3,6	;RP1=0, select bank0
  1944  02B4  0849               	movf	_phcn_val+1,w
  1945  02B5  3A80               	xorlw	128
  1946  02B6  00FF               	movwf	btemp+1
  1947  02B7  3083               	movlw	131
  1948  02B8  027F               	subwf	btemp+1,w
  1949  02B9  1D03               	skipz
  1950  02BA  2ABD               	goto	u2175
  1951  02BB  3098               	movlw	152
  1952  02BC  0248               	subwf	_phcn_val,w
  1953  02BD                     u2175:
  1954  02BD  1803               	skipnc
  1955  02BE  2AC0               	goto	u2171
  1956  02BF  2AC1               	goto	u2170
  1957  02C0                     u2171:
  1958  02C0  2AC7               	goto	l2861
  1959  02C1                     u2170:
  1960  02C1                     l2859:
  1961  02C1  120A  158A  249A  120A  118A  	fcall	_PHCN
  1962  02C6  2ACC               	goto	l2863
  1963  02C7                     l2861:
  1964  02C7  120A  158A  2459  120A  118A  	fcall	_BIOGAS
  1965  02CC                     l2863:
  1966                           
  1967                           ;main.c: 221:             nextState=initialState;
  1968  02CC  1283               	bcf	3,5	;RP0=0, select bank0
  1969  02CD  1303               	bcf	3,6	;RP1=0, select bank0
  1970  02CE  01D6               	clrf	_nextState
  1971  02CF                     l2865:
  1972                           
  1973                           ;main.c: 223:         if(nextState==afternoon){
  1974  02CF  3002               	movlw	2
  1975  02D0  0656               	xorwf	_nextState,w
  1976  02D1  1D03               	btfss	3,2
  1977  02D2  2AD4               	goto	u2181
  1978  02D3  2AD5               	goto	u2180
  1979  02D4                     u2181:
  1980  02D4  2B1A               	goto	l2883
  1981  02D5                     u2180:
  1982  02D5                     l2867:
  1983                           
  1984                           ;main.c: 224:             if(solar_val<thresh)SOLAR();
  1985  02D5  084D               	movf	_solar_val+1,w
  1986  02D6  3A80               	xorlw	128
  1987  02D7  00FF               	movwf	btemp+1
  1988  02D8  3083               	movlw	131
  1989  02D9  027F               	subwf	btemp+1,w
  1990  02DA  1D03               	skipz
  1991  02DB  2ADE               	goto	u2195
  1992  02DC  3098               	movlw	152
  1993  02DD  024C               	subwf	_solar_val,w
  1994  02DE                     u2195:
  1995  02DE  1803               	skipnc
  1996  02DF  2AE1               	goto	u2191
  1997  02E0  2AE2               	goto	u2190
  1998  02E1                     u2191:
  1999  02E1  2AE8               	goto	l2871
  2000  02E2                     u2190:
  2001  02E2                     l2869:
  2002  02E2  120A  158A  24DB  120A  118A  	fcall	_SOLAR
  2003  02E7  2B17               	goto	l2881
  2004  02E8                     l2871:
  2005  02E8  1283               	bcf	3,5	;RP0=0, select bank0
  2006  02E9  1303               	bcf	3,6	;RP1=0, select bank0
  2007  02EA  084F               	movf	_wind_val+1,w
  2008  02EB  3A80               	xorlw	128
  2009  02EC  00FF               	movwf	btemp+1
  2010  02ED  3083               	movlw	131
  2011  02EE  027F               	subwf	btemp+1,w
  2012  02EF  1D03               	skipz
  2013  02F0  2AF3               	goto	u2205
  2014  02F1  3098               	movlw	152
  2015  02F2  024E               	subwf	_wind_val,w
  2016  02F3                     u2205:
  2017  02F3  1803               	skipnc
  2018  02F4  2AF6               	goto	u2201
  2019  02F5  2AF7               	goto	u2200
  2020  02F6                     u2201:
  2021  02F6  2AFD               	goto	l2875
  2022  02F7                     u2200:
  2023  02F7                     l2873:
  2024  02F7  120A  158A  251C  120A  118A  	fcall	_WIND
  2025  02FC  2B17               	goto	l2881
  2026  02FD                     l2875:
  2027  02FD  1283               	bcf	3,5	;RP0=0, select bank0
  2028  02FE  1303               	bcf	3,6	;RP1=0, select bank0
  2029  02FF  0849               	movf	_phcn_val+1,w
  2030  0300  3A80               	xorlw	128
  2031  0301  00FF               	movwf	btemp+1
  2032  0302  3083               	movlw	131
  2033  0303  027F               	subwf	btemp+1,w
  2034  0304  1D03               	skipz
  2035  0305  2B08               	goto	u2215
  2036  0306  3098               	movlw	152
  2037  0307  0248               	subwf	_phcn_val,w
  2038  0308                     u2215:
  2039  0308  1803               	skipnc
  2040  0309  2B0B               	goto	u2211
  2041  030A  2B0C               	goto	u2210
  2042  030B                     u2211:
  2043  030B  2B12               	goto	l2879
  2044  030C                     u2210:
  2045  030C                     l2877:
  2046  030C  120A  158A  249A  120A  118A  	fcall	_PHCN
  2047  0311  2B17               	goto	l2881
  2048  0312                     l2879:
  2049  0312  120A  158A  2459  120A  118A  	fcall	_BIOGAS
  2050  0317                     l2881:
  2051                           
  2052                           ;main.c: 228:             nextState=initialState;
  2053  0317  1283               	bcf	3,5	;RP0=0, select bank0
  2054  0318  1303               	bcf	3,6	;RP1=0, select bank0
  2055  0319  01D6               	clrf	_nextState
  2056  031A                     l2883:
  2057                           
  2058                           ;main.c: 230:         if(nextState==night){
  2059  031A  3003               	movlw	3
  2060  031B  0656               	xorwf	_nextState,w
  2061  031C  1D03               	btfss	3,2
  2062  031D  2B1F               	goto	u2221
  2063  031E  2B20               	goto	u2220
  2064  031F                     u2221:
  2065  031F  2B65               	goto	l2901
  2066  0320                     u2220:
  2067  0320                     l2885:
  2068                           
  2069                           ;main.c: 231:             if(biogas_val<thresh)BIOGAS();
  2070  0320  084B               	movf	_biogas_val+1,w
  2071  0321  3A80               	xorlw	128
  2072  0322  00FF               	movwf	btemp+1
  2073  0323  3083               	movlw	131
  2074  0324  027F               	subwf	btemp+1,w
  2075  0325  1D03               	skipz
  2076  0326  2B29               	goto	u2235
  2077  0327  3098               	movlw	152
  2078  0328  024A               	subwf	_biogas_val,w
  2079  0329                     u2235:
  2080  0329  1803               	skipnc
  2081  032A  2B2C               	goto	u2231
  2082  032B  2B2D               	goto	u2230
  2083  032C                     u2231:
  2084  032C  2B33               	goto	l2889
  2085  032D                     u2230:
  2086  032D                     l2887:
  2087  032D  120A  158A  2459  120A  118A  	fcall	_BIOGAS
  2088  0332  2B62               	goto	l2899
  2089  0333                     l2889:
  2090  0333  1283               	bcf	3,5	;RP0=0, select bank0
  2091  0334  1303               	bcf	3,6	;RP1=0, select bank0
  2092  0335  084F               	movf	_wind_val+1,w
  2093  0336  3A80               	xorlw	128
  2094  0337  00FF               	movwf	btemp+1
  2095  0338  3083               	movlw	131
  2096  0339  027F               	subwf	btemp+1,w
  2097  033A  1D03               	skipz
  2098  033B  2B3E               	goto	u2245
  2099  033C  3098               	movlw	152
  2100  033D  024E               	subwf	_wind_val,w
  2101  033E                     u2245:
  2102  033E  1803               	skipnc
  2103  033F  2B41               	goto	u2241
  2104  0340  2B42               	goto	u2240
  2105  0341                     u2241:
  2106  0341  2B48               	goto	l2893
  2107  0342                     u2240:
  2108  0342                     l2891:
  2109  0342  120A  158A  251C  120A  118A  	fcall	_WIND
  2110  0347  2B62               	goto	l2899
  2111  0348                     l2893:
  2112  0348  1283               	bcf	3,5	;RP0=0, select bank0
  2113  0349  1303               	bcf	3,6	;RP1=0, select bank0
  2114  034A  0849               	movf	_phcn_val+1,w
  2115  034B  3A80               	xorlw	128
  2116  034C  00FF               	movwf	btemp+1
  2117  034D  3083               	movlw	131
  2118  034E  027F               	subwf	btemp+1,w
  2119  034F  1D03               	skipz
  2120  0350  2B53               	goto	u2255
  2121  0351  3098               	movlw	152
  2122  0352  0248               	subwf	_phcn_val,w
  2123  0353                     u2255:
  2124  0353  1803               	skipnc
  2125  0354  2B56               	goto	u2251
  2126  0355  2B57               	goto	u2250
  2127  0356                     u2251:
  2128  0356  2B5D               	goto	l2897
  2129  0357                     u2250:
  2130  0357                     l2895:
  2131  0357  120A  158A  249A  120A  118A  	fcall	_PHCN
  2132  035C  2B62               	goto	l2899
  2133  035D                     l2897:
  2134  035D  120A  158A  24DB  120A  118A  	fcall	_SOLAR
  2135  0362                     l2899:
  2136                           
  2137                           ;main.c: 235:             nextState=initialState;
  2138  0362  1283               	bcf	3,5	;RP0=0, select bank0
  2139  0363  1303               	bcf	3,6	;RP1=0, select bank0
  2140  0364  01D6               	clrf	_nextState
  2141  0365                     l2901:
  2142                           
  2143                           ;main.c: 237:         Update_Current_Date_Time();
  2144  0365  120A  118A  25CC  120A  118A  	fcall	_Update_Current_Date_Time
  2145  036A                     l2903:
  2146                           
  2147                           ;main.c: 238:         CURSOR(0x94,0);
  2148  036A  1283               	bcf	3,5	;RP0=0, select bank0
  2149  036B  1303               	bcf	3,6	;RP1=0, select bank0
  2150  036C  01AE               	clrf	CURSOR@b
  2151  036D  3094               	movlw	148
  2152  036E  120A  158A  22DD  120A  118A  	fcall	_CURSOR
  2153  0373                     l2905:
  2154                           
  2155                           ;main.c: 239:         int out=(RD0&1)|((RD1&1)<<1)|((RD2&1)<<2)|((RD3&1)<<3);
  2156  0373  1003               	clrc
  2157  0374  1283               	bcf	3,5	;RP0=0, select bank0
  2158  0375  1303               	bcf	3,6	;RP1=0, select bank0
  2159  0376  1988               	btfsc	8,3	;volatile
  2160  0377  1403               	setc
  2161  0378  3000               	movlw	0
  2162  0379  1803               	skipnc
  2163  037A  3001               	movlw	1
  2164  037B  1683               	bsf	3,5	;RP0=1, select bank1
  2165  037C  1303               	bcf	3,6	;RP1=0, select bank1
  2166  037D  00A0               	movwf	??_main^(0+128)
  2167  037E  01A1               	clrf	(??_main^(0+128)+1)
  2168  037F  3001               	movlw	1
  2169  0380  0520               	andwf	??_main^(0+128),w
  2170  0381  00A2               	movwf	(??_main+2)^(0+128)
  2171  0382  3000               	movlw	0
  2172  0383  0521               	andwf	(??_main+1)^(0+128),w
  2173  0384  00A3               	movwf	(??_main+3)^(0+128)
  2174  0385  1003               	clrc
  2175  0386  0DA2               	rlf	(??_main+2)^(0+128),f
  2176  0387  0DA3               	rlf	((??_main+2)^(0+128)+1),f
  2177  0388  1003               	clrc
  2178  0389  0DA2               	rlf	(??_main+2)^(0+128),f
  2179  038A  0DA3               	rlf	((??_main+2)^(0+128)+1),f
  2180  038B  1003               	clrc
  2181  038C  0DA2               	rlf	(??_main+2)^(0+128),f
  2182  038D  0DA3               	rlf	((??_main+2)^(0+128)+1),f
  2183  038E  1003               	clrc
  2184  038F  1283               	bcf	3,5	;RP0=0, select bank0
  2185  0390  1303               	bcf	3,6	;RP1=0, select bank0
  2186  0391  1908               	btfsc	8,2	;volatile
  2187  0392  1403               	setc
  2188  0393  3000               	movlw	0
  2189  0394  1803               	skipnc
  2190  0395  3001               	movlw	1
  2191  0396  1683               	bsf	3,5	;RP0=1, select bank1
  2192  0397  1303               	bcf	3,6	;RP1=0, select bank1
  2193  0398  00A4               	movwf	(??_main+4)^(0+128)
  2194  0399  01A5               	clrf	((??_main+4)^(0+128)+1)
  2195  039A  3001               	movlw	1
  2196  039B  0524               	andwf	(??_main+4)^(0+128),w
  2197  039C  00A6               	movwf	(??_main+6)^(0+128)
  2198  039D  3000               	movlw	0
  2199  039E  0525               	andwf	(??_main+5)^(0+128),w
  2200  039F  00A7               	movwf	(??_main+7)^(0+128)
  2201  03A0  1003               	clrc
  2202  03A1  0DA6               	rlf	(??_main+6)^(0+128),f
  2203  03A2  0DA7               	rlf	((??_main+6)^(0+128)+1),f
  2204  03A3  1003               	clrc
  2205  03A4  0DA6               	rlf	(??_main+6)^(0+128),f
  2206  03A5  0DA7               	rlf	((??_main+6)^(0+128)+1),f
  2207  03A6  1003               	clrc
  2208  03A7  1283               	bcf	3,5	;RP0=0, select bank0
  2209  03A8  1303               	bcf	3,6	;RP1=0, select bank0
  2210  03A9  1888               	btfsc	8,1	;volatile
  2211  03AA  1403               	setc
  2212  03AB  3000               	movlw	0
  2213  03AC  1803               	skipnc
  2214  03AD  3001               	movlw	1
  2215  03AE  1683               	bsf	3,5	;RP0=1, select bank1
  2216  03AF  1303               	bcf	3,6	;RP1=0, select bank1
  2217  03B0  00A8               	movwf	(??_main+8)^(0+128)
  2218  03B1  01A9               	clrf	((??_main+8)^(0+128)+1)
  2219  03B2  3001               	movlw	1
  2220  03B3  0528               	andwf	(??_main+8)^(0+128),w
  2221  03B4  00AA               	movwf	(??_main+10)^(0+128)
  2222  03B5  3000               	movlw	0
  2223  03B6  0529               	andwf	(??_main+9)^(0+128),w
  2224  03B7  00AB               	movwf	(??_main+11)^(0+128)
  2225  03B8  1003               	clrc
  2226  03B9  0DAA               	rlf	(??_main+10)^(0+128),f
  2227  03BA  0DAB               	rlf	((??_main+10)^(0+128)+1),f
  2228  03BB  1003               	clrc
  2229  03BC  1283               	bcf	3,5	;RP0=0, select bank0
  2230  03BD  1303               	bcf	3,6	;RP1=0, select bank0
  2231  03BE  1808               	btfsc	8,0	;volatile
  2232  03BF  1403               	setc
  2233  03C0  3000               	movlw	0
  2234  03C1  1803               	skipnc
  2235  03C2  3001               	movlw	1
  2236  03C3  1683               	bsf	3,5	;RP0=1, select bank1
  2237  03C4  1303               	bcf	3,6	;RP1=0, select bank1
  2238  03C5  00AC               	movwf	(??_main+12)^(0+128)
  2239  03C6  01AD               	clrf	((??_main+12)^(0+128)+1)
  2240  03C7  3001               	movlw	1
  2241  03C8  052C               	andwf	(??_main+12)^(0+128),w
  2242  03C9  00AE               	movwf	(??_main+14)^(0+128)
  2243  03CA  3000               	movlw	0
  2244  03CB  052D               	andwf	(??_main+13)^(0+128),w
  2245  03CC  00AF               	movwf	(??_main+15)^(0+128)
  2246  03CD  082A               	movf	(??_main+10)^(0+128),w
  2247  03CE  042E               	iorwf	(??_main+14)^(0+128),w
  2248  03CF  00B0               	movwf	(??_main+16)^(0+128)
  2249  03D0  082B               	movf	(??_main+11)^(0+128),w
  2250  03D1  042F               	iorwf	(??_main+15)^(0+128),w
  2251  03D2  00B1               	movwf	(??_main+17)^(0+128)
  2252  03D3  0826               	movf	(??_main+6)^(0+128),w
  2253  03D4  0430               	iorwf	(??_main+16)^(0+128),w
  2254  03D5  00B2               	movwf	(??_main+18)^(0+128)
  2255  03D6  0827               	movf	(??_main+7)^(0+128),w
  2256  03D7  0431               	iorwf	(??_main+17)^(0+128),w
  2257  03D8  00B3               	movwf	(??_main+19)^(0+128)
  2258  03D9  0822               	movf	(??_main+2)^(0+128),w
  2259  03DA  0432               	iorwf	(??_main+18)^(0+128),w
  2260  03DB  00B4               	movwf	(??_main+20)^(0+128)
  2261  03DC  0823               	movf	(??_main+3)^(0+128),w
  2262  03DD  0433               	iorwf	(??_main+19)^(0+128),w
  2263  03DE  00B5               	movwf	(??_main+21)^(0+128)
  2264  03DF  0834               	movf	(??_main+20)^(0+128),w
  2265  03E0  1283               	bcf	3,5	;RP0=0, select bank0
  2266  03E1  1303               	bcf	3,6	;RP1=0, select bank0
  2267  03E2  00C2               	movwf	main@out
  2268  03E3  1683               	bsf	3,5	;RP0=1, select bank1
  2269  03E4  1303               	bcf	3,6	;RP1=0, select bank1
  2270  03E5  0835               	movf	(??_main+21)^(0+128),w
  2271  03E6  1283               	bcf	3,5	;RP0=0, select bank0
  2272  03E7  1303               	bcf	3,6	;RP1=0, select bank0
  2273  03E8  00C3               	movwf	main@out+1
  2274                           
  2275                           ;main.c: 240:         switch(out){
  2276  03E9  2C14               	goto	l2921
  2277  03EA                     l2907:
  2278                           
  2279                           ;main.c: 242:                 LCDWRITE("NULL         ");
  2280  03EA  305C               	movlw	(low ((STR_8-__stringbase)| (0+32768)))& (0+255)
  2281  03EB  120A  158A  255D  120A  118A  	fcall	_LCDWRITE
  2282                           
  2283                           ;main.c: 243:                 break;
  2284  03F0  28B0               	goto	l2767
  2285  03F1                     l2909:
  2286                           
  2287                           ;main.c: 245:                 LCDWRITE("wind         ");
  2288  03F1  306A               	movlw	(low ((STR_9-__stringbase)| (0+32768)))& (0+255)
  2289  03F2  120A  158A  255D  120A  118A  	fcall	_LCDWRITE
  2290                           
  2291                           ;main.c: 246:                 break;
  2292  03F7  28B0               	goto	l2767
  2293  03F8                     l2911:
  2294                           
  2295                           ;main.c: 248:                 LCDWRITE("solar        ");
  2296  03F8  3078               	movlw	(low ((STR_10-__stringbase)| (0+32768)))& (0+255)
  2297  03F9  120A  158A  255D  120A  118A  	fcall	_LCDWRITE
  2298                           
  2299                           ;main.c: 249:                 break;
  2300  03FE  28B0               	goto	l2767
  2301  03FF                     l2913:
  2302                           
  2303                           ;main.c: 251:                 LCDWRITE("biogas       ");
  2304  03FF  3086               	movlw	(low ((STR_11-__stringbase)| (0+32768)))& (0+255)
  2305  0400  120A  158A  255D  120A  118A  	fcall	_LCDWRITE
  2306                           
  2307                           ;main.c: 252:                 break;
  2308  0405  28B0               	goto	l2767
  2309  0406                     l2915:
  2310                           
  2311                           ;main.c: 254:                 LCDWRITE("phcn  ");
  2312  0406  30A1               	movlw	(low ((STR_12-__stringbase)| (0+32768)))& (0+255)
  2313  0407  120A  158A  255D  120A  118A  	fcall	_LCDWRITE
  2314                           
  2315                           ;main.c: 255:                 break;
  2316  040C  28B0               	goto	l2767
  2317  040D                     l2917:
  2318                           
  2319                           ;main.c: 257:                 LCDWRITE("RESET");
  2320  040D  30A8               	movlw	(low ((STR_13-__stringbase)| (0+32768)))& (0+255)
  2321  040E  120A  158A  255D  120A  118A  	fcall	_LCDWRITE
  2322                           
  2323                           ;main.c: 258:                 break;
  2324  0413  28B0               	goto	l2767
  2325  0414                     l2921:
  2326                           
  2327                           ; Switch on 2 bytes has been partitioned into a top level switch of size 1, and 1 sub-sw
      +                          itches
  2328                           ; Switch size 1, requested type "simple"
  2329                           ; Number of cases is 1, Range of values is 0 to 0
  2330                           ; switch strategies available:
  2331                           ; Name         Instructions Cycles
  2332                           ; simple_byte            4     3 (average)
  2333                           ; direct_byte           11     8 (fixed)
  2334                           ; jumptable            260     6 (fixed)
  2335                           ;	Chosen strategy is simple_byte
  2336  0414  0843               	movf	main@out+1,w
  2337  0415  3A00               	xorlw	0	; case 0
  2338  0416  1903               	skipnz
  2339  0417  2C19               	goto	l2959
  2340  0418  2C0D               	goto	l2917
  2341  0419                     l2959:
  2342                           
  2343                           ; Switch size 1, requested type "simple"
  2344                           ; Number of cases is 5, Range of values is 0 to 8
  2345                           ; switch strategies available:
  2346                           ; Name         Instructions Cycles
  2347                           ; simple_byte           16     9 (average)
  2348                           ; direct_byte           35     8 (fixed)
  2349                           ; jumptable            260     6 (fixed)
  2350                           ;	Chosen strategy is simple_byte
  2351  0419  0842               	movf	main@out,w
  2352  041A  3A00               	xorlw	0	; case 0
  2353  041B  1903               	skipnz
  2354  041C  2BEA               	goto	l2907
  2355  041D  3A01               	xorlw	1	; case 1
  2356  041E  1903               	skipnz
  2357  041F  2BF1               	goto	l2909
  2358  0420  3A03               	xorlw	3	; case 2
  2359  0421  1903               	skipnz
  2360  0422  2BF8               	goto	l2911
  2361  0423  3A06               	xorlw	6	; case 4
  2362  0424  1903               	skipnz
  2363  0425  2BFF               	goto	l2913
  2364  0426  3A0C               	xorlw	12	; case 8
  2365  0427  1903               	skipnz
  2366  0428  2C06               	goto	l2915
  2367  0429  2C0D               	goto	l2917
  2368  042A  120A  118A  2810   	ljmp	start
  2369  042D                     __end_of_main:
  2370                           
  2371                           	psect	text1
  2372  0F97                     __ptext1:	
  2373 ;; *************** function _config *****************
  2374 ;; Defined at:
  2375 ;;		line 180 in file "./LCDLIBRARY1.h"
  2376 ;; Parameters:    Size  Location     Type
  2377 ;;		None
  2378 ;; Auto vars:     Size  Location     Type
  2379 ;;		None
  2380 ;; Return value:  Size  Location     Type
  2381 ;;                  1    wreg      void 
  2382 ;; Registers used:
  2383 ;;		wreg, status,2, status,0, pclath, cstack
  2384 ;; Tracked objects:
  2385 ;;		On entry : 0/0
  2386 ;;		On exit  : 0/0
  2387 ;;		Unchanged: 0/0
  2388 ;; Data sizes:     COMMON   BANK0   BANK1   BANK3   BANK2
  2389 ;;      Params:         0       0       0       0       0
  2390 ;;      Locals:         0       0       0       0       0
  2391 ;;      Temps:          0       0       0       0       0
  2392 ;;      Totals:         0       0       0       0       0
  2393 ;;Total ram usage:        0 bytes
  2394 ;; Hardware stack levels used: 1
  2395 ;; Hardware stack levels required when called: 6
  2396 ;; This function calls:
  2397 ;;		_CLOCK
  2398 ;;		_delay1
  2399 ;; This function is called by:
  2400 ;;		_main
  2401 ;; This function uses a non-reentrant model
  2402 ;;
  2403                           
  2404                           
  2405                           ;psect for function _config
  2406  0F97                     _config:
  2407  0F97                     l2251:	
  2408                           ;incstack = 0
  2409                           ; Regs used in _config: [wreg+status,2+status,0+pclath+cstack]
  2410                           
  2411                           
  2412                           ;./LCDLIBRARY1.h: 182:     TRISBbits.TRISB4=0;PORTBbits.RB5=0;
  2413  0F97  1683               	bsf	3,5	;RP0=1, select bank1
  2414  0F98  1303               	bcf	3,6	;RP1=0, select bank1
  2415  0F99  1206               	bcf	6,4	;volatile
  2416  0F9A  1283               	bcf	3,5	;RP0=0, select bank0
  2417  0F9B  1303               	bcf	3,6	;RP1=0, select bank0
  2418  0F9C  1286               	bcf	6,5	;volatile
  2419  0F9D                     l2253:
  2420                           
  2421                           ;./LCDLIBRARY1.h: 183:     PORTB= 3;
  2422  0F9D  3003               	movlw	3
  2423  0F9E  0086               	movwf	6	;volatile
  2424  0F9F                     l2255:
  2425                           
  2426                           ;./LCDLIBRARY1.h: 184:     CLOCK();
  2427  0F9F  120A  158A  229C  120A  158A  	fcall	_CLOCK
  2428  0FA4                     l2257:
  2429                           
  2430                           ;./LCDLIBRARY1.h: 185:     delay1();
  2431  0FA4  120A  158A  224C  120A  158A  	fcall	_delay1
  2432                           
  2433                           ;./LCDLIBRARY1.h: 187:     PORTB= 2;
  2434  0FA9  3002               	movlw	2
  2435  0FAA  1283               	bcf	3,5	;RP0=0, select bank0
  2436  0FAB  1303               	bcf	3,6	;RP1=0, select bank0
  2437  0FAC  0086               	movwf	6	;volatile
  2438  0FAD                     l2259:
  2439                           
  2440                           ;./LCDLIBRARY1.h: 188:     CLOCK();
  2441  0FAD  120A  158A  229C  120A  158A  	fcall	_CLOCK
  2442  0FB2                     l2261:
  2443                           
  2444                           ;./LCDLIBRARY1.h: 189:     delay1();
  2445  0FB2  120A  158A  224C  120A  158A  	fcall	_delay1
  2446                           
  2447                           ;./LCDLIBRARY1.h: 191:     PORTB= 2;
  2448  0FB7  3002               	movlw	2
  2449  0FB8  1283               	bcf	3,5	;RP0=0, select bank0
  2450  0FB9  1303               	bcf	3,6	;RP1=0, select bank0
  2451  0FBA  0086               	movwf	6	;volatile
  2452  0FBB                     l2263:
  2453                           
  2454                           ;./LCDLIBRARY1.h: 192:     CLOCK();
  2455  0FBB  120A  158A  229C  120A  158A  	fcall	_CLOCK
  2456  0FC0                     l2265:
  2457                           
  2458                           ;./LCDLIBRARY1.h: 193:     delay1();
  2459  0FC0  120A  158A  224C  120A  158A  	fcall	_delay1
  2460                           
  2461                           ;./LCDLIBRARY1.h: 195:     PORTB= 0x8;
  2462  0FC5  3008               	movlw	8
  2463  0FC6  1283               	bcf	3,5	;RP0=0, select bank0
  2464  0FC7  1303               	bcf	3,6	;RP1=0, select bank0
  2465  0FC8  0086               	movwf	6	;volatile
  2466  0FC9                     l2267:
  2467                           
  2468                           ;./LCDLIBRARY1.h: 196:     CLOCK();
  2469  0FC9  120A  158A  229C  120A  158A  	fcall	_CLOCK
  2470  0FCE                     l2269:
  2471                           
  2472                           ;./LCDLIBRARY1.h: 197:     delay1();
  2473  0FCE  120A  158A  224C  120A  158A  	fcall	_delay1
  2474  0FD3                     l2271:
  2475                           
  2476                           ;./LCDLIBRARY1.h: 199:     PORTB= 0;
  2477  0FD3  1283               	bcf	3,5	;RP0=0, select bank0
  2478  0FD4  1303               	bcf	3,6	;RP1=0, select bank0
  2479  0FD5  0186               	clrf	6	;volatile
  2480  0FD6                     l2273:
  2481                           
  2482                           ;./LCDLIBRARY1.h: 200:     CLOCK();
  2483  0FD6  120A  158A  229C  120A  158A  	fcall	_CLOCK
  2484  0FDB                     l2275:
  2485                           
  2486                           ;./LCDLIBRARY1.h: 201:     PORTB= 0X0C;
  2487  0FDB  300C               	movlw	12
  2488  0FDC  1283               	bcf	3,5	;RP0=0, select bank0
  2489  0FDD  1303               	bcf	3,6	;RP1=0, select bank0
  2490  0FDE  0086               	movwf	6	;volatile
  2491  0FDF                     l2277:
  2492                           
  2493                           ;./LCDLIBRARY1.h: 202:     CLOCK();
  2494  0FDF  120A  158A  229C  120A  158A  	fcall	_CLOCK
  2495  0FE4                     l2279:
  2496                           
  2497                           ;./LCDLIBRARY1.h: 203:     delay1();
  2498  0FE4  120A  158A  224C  120A  158A  	fcall	_delay1
  2499  0FE9                     l2281:
  2500                           
  2501                           ;./LCDLIBRARY1.h: 205:     PORTB= 0;
  2502  0FE9  1283               	bcf	3,5	;RP0=0, select bank0
  2503  0FEA  1303               	bcf	3,6	;RP1=0, select bank0
  2504  0FEB  0186               	clrf	6	;volatile
  2505                           
  2506                           ;./LCDLIBRARY1.h: 206:     CLOCK();
  2507  0FEC  120A  158A  229C  120A  158A  	fcall	_CLOCK
  2508  0FF1                     l2283:
  2509                           
  2510                           ;./LCDLIBRARY1.h: 207:     PORTB= 6;
  2511  0FF1  3006               	movlw	6
  2512  0FF2  1283               	bcf	3,5	;RP0=0, select bank0
  2513  0FF3  1303               	bcf	3,6	;RP1=0, select bank0
  2514  0FF4  0086               	movwf	6	;volatile
  2515  0FF5                     l2285:
  2516                           
  2517                           ;./LCDLIBRARY1.h: 208:     CLOCK();
  2518  0FF5  120A  158A  229C  120A  158A  	fcall	_CLOCK
  2519  0FFA                     l2287:
  2520                           
  2521                           ;./LCDLIBRARY1.h: 209:     delay1();
  2522  0FFA  120A  158A  224C  120A  158A  	fcall	_delay1
  2523  0FFF                     l204:
  2524  0FFF  0008               	return
  2525  1000                     __end_of_config:
  2526                           
  2527                           	psect	text2
  2528  0D1C                     __ptext2:	
  2529 ;; *************** function _WIND *****************
  2530 ;; Defined at:
  2531 ;;		line 58 in file "main.c"
  2532 ;; Parameters:    Size  Location     Type
  2533 ;;		None
  2534 ;; Auto vars:     Size  Location     Type
  2535 ;;		None
  2536 ;; Return value:  Size  Location     Type
  2537 ;;                  1    wreg      void 
  2538 ;; Registers used:
  2539 ;;		wreg, fsr0l, fsr0h, status,2, status,0, btemp+1, pclath, cstack
  2540 ;; Tracked objects:
  2541 ;;		On entry : 0/0
  2542 ;;		On exit  : 0/0
  2543 ;;		Unchanged: 0/0
  2544 ;; Data sizes:     COMMON   BANK0   BANK1   BANK3   BANK2
  2545 ;;      Params:         0       0       0       0       0
  2546 ;;      Locals:         0       0       0       0       0
  2547 ;;      Temps:          0       3       0       0       0
  2548 ;;      Totals:         0       3       0       0       0
  2549 ;;Total ram usage:        3 bytes
  2550 ;; Hardware stack levels used: 1
  2551 ;; Hardware stack levels required when called: 7
  2552 ;; This function calls:
  2553 ;;		_CURSOR
  2554 ;;		_LCDWRITE
  2555 ;; This function is called by:
  2556 ;;		_main
  2557 ;; This function uses a non-reentrant model
  2558 ;;
  2559                           
  2560                           
  2561                           ;psect for function _WIND
  2562  0D1C                     _WIND:
  2563  0D1C                     l2291:	
  2564                           ;incstack = 0
  2565                           ; Regs used in _WIND: [wreg-fsr0h+status,2+status,0+btemp+1+pclath+cstack]
  2566                           
  2567                           
  2568                           ;main.c: 59:     if(RD0==1);
  2569  0D1C  1283               	bcf	3,5	;RP0=0, select bank0
  2570  0D1D  1303               	bcf	3,6	;RP1=0, select bank0
  2571  0D1E  1C08               	btfss	8,0	;volatile
  2572  0D1F  2D21               	goto	u1621
  2573  0D20  2D22               	goto	u1620
  2574  0D21                     u1621:
  2575  0D21  2D23               	goto	l223
  2576  0D22                     u1620:
  2577  0D22  2D5C               	goto	l225
  2578  0D23                     l223:	
  2579                           ;main.c: 60:     else{
  2580                           
  2581                           
  2582                           ;main.c: 61:         RD4=1;
  2583  0D23  1608               	bsf	8,4	;volatile
  2584  0D24                     l2295:
  2585                           
  2586                           ;main.c: 62:         CURSOR(0x94,0);
  2587  0D24  01AE               	clrf	CURSOR@b
  2588  0D25  3094               	movlw	148
  2589  0D26  120A  158A  22DD  120A  158A  	fcall	_CURSOR
  2590  0D2B                     l2297:
  2591                           
  2592                           ;main.c: 63:         LCDWRITE("switching...");
  2593  0D2B  3094               	movlw	(low ((STR_1-__stringbase)| (0+32768)))& (0+255)
  2594  0D2C  120A  158A  255D  120A  158A  	fcall	_LCDWRITE
  2595  0D31                     l2299:
  2596                           
  2597                           ;main.c: 64:         _delay((unsigned long)((4000)*(20000000/4000.0)));
  2598  0D31  3066               	movlw	102
  2599  0D32  1283               	bcf	3,5	;RP0=0, select bank0
  2600  0D33  1303               	bcf	3,6	;RP1=0, select bank0
  2601  0D34  00B6               	movwf	??_WIND+2
  2602  0D35  3076               	movlw	118
  2603  0D36  00B5               	movwf	??_WIND+1
  2604  0D37  30C0               	movlw	192
  2605  0D38  00B4               	movwf	??_WIND
  2606  0D39                     u2367:
  2607  0D39  0BB4               	decfsz	??_WIND,f
  2608  0D3A  2D39               	goto	u2367
  2609  0D3B  0BB5               	decfsz	??_WIND+1,f
  2610  0D3C  2D39               	goto	u2367
  2611  0D3D  0BB6               	decfsz	??_WIND+2,f
  2612  0D3E  2D39               	goto	u2367
  2613  0D3F  0000               	nop
  2614  0D40                     l2301:
  2615                           
  2616                           ;main.c: 65:         RD0=RD1=RD2=RD3=0;
  2617  0D40  1283               	bcf	3,5	;RP0=0, select bank0
  2618  0D41  1303               	bcf	3,6	;RP1=0, select bank0
  2619  0D42  1188               	bcf	8,3	;volatile
  2620  0D43  1108               	bcf	8,2	;volatile
  2621  0D44  1088               	bcf	8,1	;volatile
  2622  0D45  1008               	bcf	8,0	;volatile
  2623  0D46                     l2303:
  2624                           
  2625                           ;main.c: 66:         RD0=1;
  2626  0D46  1408               	bsf	8,0	;volatile
  2627  0D47                     l2305:
  2628                           
  2629                           ;main.c: 67:         _delay((unsigned long)((4000)*(20000000/4000.0)));
  2630  0D47  3066               	movlw	102
  2631  0D48  1283               	bcf	3,5	;RP0=0, select bank0
  2632  0D49  1303               	bcf	3,6	;RP1=0, select bank0
  2633  0D4A  00B6               	movwf	??_WIND+2
  2634  0D4B  3076               	movlw	118
  2635  0D4C  00B5               	movwf	??_WIND+1
  2636  0D4D  30C0               	movlw	192
  2637  0D4E  00B4               	movwf	??_WIND
  2638  0D4F                     u2377:
  2639  0D4F  0BB4               	decfsz	??_WIND,f
  2640  0D50  2D4F               	goto	u2377
  2641  0D51  0BB5               	decfsz	??_WIND+1,f
  2642  0D52  2D4F               	goto	u2377
  2643  0D53  0BB6               	decfsz	??_WIND+2,f
  2644  0D54  2D4F               	goto	u2377
  2645  0D55  0000               	nop
  2646  0D56                     l2307:
  2647                           
  2648                           ;main.c: 68:         RD1=0;RD2=0;RD3=0;
  2649  0D56  1283               	bcf	3,5	;RP0=0, select bank0
  2650  0D57  1303               	bcf	3,6	;RP1=0, select bank0
  2651  0D58  1088               	bcf	8,1	;volatile
  2652  0D59                     l2309:
  2653  0D59  1108               	bcf	8,2	;volatile
  2654  0D5A                     l2311:
  2655  0D5A  1188               	bcf	8,3	;volatile
  2656  0D5B                     l2313:
  2657                           
  2658                           ;main.c: 69:         RD4=0;
  2659  0D5B  1208               	bcf	8,4	;volatile
  2660  0D5C                     l225:
  2661  0D5C  0008               	return
  2662  0D5D                     __end_of_WIND:
  2663                           
  2664                           	psect	text3
  2665  05CC                     __ptext3:	
  2666 ;; *************** function _Update_Current_Date_Time *****************
  2667 ;; Defined at:
  2668 ;;		line 43 in file "./PIC16F877a_DS3231.h"
  2669 ;; Parameters:    Size  Location     Type
  2670 ;;		None
  2671 ;; Auto vars:     Size  Location     Type
  2672 ;;		None
  2673 ;; Return value:  Size  Location     Type
  2674 ;;                  1    wreg      void 
  2675 ;; Registers used:
  2676 ;;		wreg, status,2, status,0, pclath, cstack
  2677 ;; Tracked objects:
  2678 ;;		On entry : 0/0
  2679 ;;		On exit  : 0/0
  2680 ;;		Unchanged: 0/0
  2681 ;; Data sizes:     COMMON   BANK0   BANK1   BANK3   BANK2
  2682 ;;      Params:         0       0       0       0       0
  2683 ;;      Locals:         0       0       0       0       0
  2684 ;;      Temps:          0       0       0       0       0
  2685 ;;      Totals:         0       0       0       0       0
  2686 ;;Total ram usage:        0 bytes
  2687 ;; Hardware stack levels used: 1
  2688 ;; Hardware stack levels required when called: 6
  2689 ;; This function calls:
  2690 ;;		_BCD_2_DEC
  2691 ;;		_I2C_Begin
  2692 ;;		_I2C_End
  2693 ;;		_I2C_Read
  2694 ;;		_I2C_Restart
  2695 ;;		_I2C_Write
  2696 ;; This function is called by:
  2697 ;;		_main
  2698 ;; This function uses a non-reentrant model
  2699 ;;
  2700                           
  2701                           
  2702                           ;psect for function _Update_Current_Date_Time
  2703  05CC                     _Update_Current_Date_Time:
  2704  05CC                     l2217:	
  2705                           ;incstack = 0
  2706                           ; Regs used in _Update_Current_Date_Time: [wreg+status,2+status,0+pclath+cstack]
  2707                           
  2708                           
  2709                           ;./PIC16F877a_DS3231.h: 45:    I2C_Begin();
  2710  05CC  120A  158A  2225  120A  118A  	fcall	_I2C_Begin
  2711                           
  2712                           ;./PIC16F877a_DS3231.h: 46:    I2C_Write(0xD0);
  2713  05D1  30D0               	movlw	208
  2714  05D2  1283               	bcf	3,5	;RP0=0, select bank0
  2715  05D3  1303               	bcf	3,6	;RP1=0, select bank0
  2716  05D4  00BB               	movwf	I2C_Write@data
  2717  05D5  3000               	movlw	0
  2718  05D6  00BC               	movwf	I2C_Write@data+1
  2719  05D7  120A  158A  228D  120A  118A  	fcall	_I2C_Write
  2720                           
  2721                           ;./PIC16F877a_DS3231.h: 47:    I2C_Write(0);
  2722  05DC  3000               	movlw	0
  2723  05DD  1283               	bcf	3,5	;RP0=0, select bank0
  2724  05DE  1303               	bcf	3,6	;RP1=0, select bank0
  2725  05DF  00BB               	movwf	I2C_Write@data
  2726  05E0  00BC               	movwf	I2C_Write@data+1
  2727  05E1  120A  158A  228D  120A  118A  	fcall	_I2C_Write
  2728                           
  2729                           ;./PIC16F877a_DS3231.h: 48:    I2C_Restart();
  2730  05E6  120A  158A  2237  120A  118A  	fcall	_I2C_Restart
  2731                           
  2732                           ;./PIC16F877a_DS3231.h: 49:    I2C_Write(0xD1);
  2733  05EB  30D1               	movlw	209
  2734  05EC  1283               	bcf	3,5	;RP0=0, select bank0
  2735  05ED  1303               	bcf	3,6	;RP1=0, select bank0
  2736  05EE  00BB               	movwf	I2C_Write@data
  2737  05EF  3000               	movlw	0
  2738  05F0  00BC               	movwf	I2C_Write@data+1
  2739  05F1  120A  158A  228D  120A  118A  	fcall	_I2C_Write
  2740                           
  2741                           ;./PIC16F877a_DS3231.h: 50:    sec=BCD_2_DEC(I2C_Read(0));
  2742  05F6  3000               	movlw	0
  2743  05F7  1283               	bcf	3,5	;RP0=0, select bank0
  2744  05F8  1303               	bcf	3,6	;RP1=0, select bank0
  2745  05F9  00AC               	movwf	I2C_Read@ack
  2746  05FA  00AD               	movwf	I2C_Read@ack+1
  2747  05FB  120A  158A  2380  120A  118A  	fcall	_I2C_Read
  2748  0600  1283               	bcf	3,5	;RP0=0, select bank0
  2749  0601  1303               	bcf	3,6	;RP1=0, select bank0
  2750  0602  082D               	movf	?_I2C_Read+1,w
  2751  0603  00B3               	movwf	BCD_2_DEC@num+1
  2752  0604  082C               	movf	?_I2C_Read,w
  2753  0605  00B2               	movwf	BCD_2_DEC@num
  2754  0606  120A  158A  2353  120A  118A  	fcall	_BCD_2_DEC
  2755  060B  1283               	bcf	3,5	;RP0=0, select bank0
  2756  060C  1303               	bcf	3,6	;RP1=0, select bank0
  2757  060D  0833               	movf	?_BCD_2_DEC+1,w
  2758  060E  00D5               	movwf	_sec+1
  2759  060F  0832               	movf	?_BCD_2_DEC,w
  2760  0610  00D4               	movwf	_sec
  2761                           
  2762                           ;./PIC16F877a_DS3231.h: 51:    min=BCD_2_DEC(I2C_Read(0));
  2763  0611  3000               	movlw	0
  2764  0612  00AC               	movwf	I2C_Read@ack
  2765  0613  00AD               	movwf	I2C_Read@ack+1
  2766  0614  120A  158A  2380  120A  118A  	fcall	_I2C_Read
  2767  0619  1283               	bcf	3,5	;RP0=0, select bank0
  2768  061A  1303               	bcf	3,6	;RP1=0, select bank0
  2769  061B  082D               	movf	?_I2C_Read+1,w
  2770  061C  00B3               	movwf	BCD_2_DEC@num+1
  2771  061D  082C               	movf	?_I2C_Read,w
  2772  061E  00B2               	movwf	BCD_2_DEC@num
  2773  061F  120A  158A  2353  120A  118A  	fcall	_BCD_2_DEC
  2774  0624  1283               	bcf	3,5	;RP0=0, select bank0
  2775  0625  1303               	bcf	3,6	;RP1=0, select bank0
  2776  0626  0833               	movf	?_BCD_2_DEC+1,w
  2777  0627  00D3               	movwf	_min+1
  2778  0628  0832               	movf	?_BCD_2_DEC,w
  2779  0629  00D2               	movwf	_min
  2780                           
  2781                           ;./PIC16F877a_DS3231.h: 52:    hour=BCD_2_DEC(I2C_Read(0));
  2782  062A  3000               	movlw	0
  2783  062B  00AC               	movwf	I2C_Read@ack
  2784  062C  00AD               	movwf	I2C_Read@ack+1
  2785  062D  120A  158A  2380  120A  118A  	fcall	_I2C_Read
  2786  0632  1283               	bcf	3,5	;RP0=0, select bank0
  2787  0633  1303               	bcf	3,6	;RP1=0, select bank0
  2788  0634  082D               	movf	?_I2C_Read+1,w
  2789  0635  00B3               	movwf	BCD_2_DEC@num+1
  2790  0636  082C               	movf	?_I2C_Read,w
  2791  0637  00B2               	movwf	BCD_2_DEC@num
  2792  0638  120A  158A  2353  120A  118A  	fcall	_BCD_2_DEC
  2793  063D  1283               	bcf	3,5	;RP0=0, select bank0
  2794  063E  1303               	bcf	3,6	;RP1=0, select bank0
  2795  063F  0833               	movf	?_BCD_2_DEC+1,w
  2796  0640  00D1               	movwf	_hour+1
  2797  0641  0832               	movf	?_BCD_2_DEC,w
  2798  0642  00D0               	movwf	_hour
  2799                           
  2800                           ;./PIC16F877a_DS3231.h: 53:    I2C_Read(0);
  2801  0643  3000               	movlw	0
  2802  0644  00AC               	movwf	I2C_Read@ack
  2803  0645  00AD               	movwf	I2C_Read@ack+1
  2804  0646  120A  158A  2380  120A  118A  	fcall	_I2C_Read
  2805                           
  2806                           ;./PIC16F877a_DS3231.h: 54:    I2C_Read(0);
  2807  064B  3000               	movlw	0
  2808  064C  1283               	bcf	3,5	;RP0=0, select bank0
  2809  064D  1303               	bcf	3,6	;RP1=0, select bank0
  2810  064E  00AC               	movwf	I2C_Read@ack
  2811  064F  00AD               	movwf	I2C_Read@ack+1
  2812  0650  120A  158A  2380  120A  118A  	fcall	_I2C_Read
  2813                           
  2814                           ;./PIC16F877a_DS3231.h: 55:    I2C_Read(0);
  2815  0655  3000               	movlw	0
  2816  0656  1283               	bcf	3,5	;RP0=0, select bank0
  2817  0657  1303               	bcf	3,6	;RP1=0, select bank0
  2818  0658  00AC               	movwf	I2C_Read@ack
  2819  0659  00AD               	movwf	I2C_Read@ack+1
  2820  065A  120A  158A  2380  120A  118A  	fcall	_I2C_Read
  2821                           
  2822                           ;./PIC16F877a_DS3231.h: 56:    I2C_Read(1);
  2823  065F  3001               	movlw	1
  2824  0660  1283               	bcf	3,5	;RP0=0, select bank0
  2825  0661  1303               	bcf	3,6	;RP1=0, select bank0
  2826  0662  00AC               	movwf	I2C_Read@ack
  2827  0663  3000               	movlw	0
  2828  0664  00AD               	movwf	I2C_Read@ack+1
  2829  0665  120A  158A  2380  120A  118A  	fcall	_I2C_Read
  2830                           
  2831                           ;./PIC16F877a_DS3231.h: 57:    I2C_End();
  2832  066A  120A  158A  222E  120A  118A  	fcall	_I2C_End
  2833  066F                     l148:
  2834  066F  0008               	return
  2835  0670                     __end_of_Update_Current_Date_Time:
  2836                           
  2837                           	psect	text4
  2838  0A37                     __ptext4:	
  2839 ;; *************** function _I2C_Restart *****************
  2840 ;; Defined at:
  2841 ;;		line 30 in file "./PIC16F877a_I2C.h"
  2842 ;; Parameters:    Size  Location     Type
  2843 ;;		None
  2844 ;; Auto vars:     Size  Location     Type
  2845 ;;		None
  2846 ;; Return value:  Size  Location     Type
  2847 ;;                  1    wreg      void 
  2848 ;; Registers used:
  2849 ;;		wreg, status,2, status,0, pclath, cstack
  2850 ;; Tracked objects:
  2851 ;;		On entry : 0/0
  2852 ;;		On exit  : 0/0
  2853 ;;		Unchanged: 0/0
  2854 ;; Data sizes:     COMMON   BANK0   BANK1   BANK3   BANK2
  2855 ;;      Params:         0       0       0       0       0
  2856 ;;      Locals:         0       0       0       0       0
  2857 ;;      Temps:          0       0       0       0       0
  2858 ;;      Totals:         0       0       0       0       0
  2859 ;;Total ram usage:        0 bytes
  2860 ;; Hardware stack levels used: 1
  2861 ;; Hardware stack levels required when called: 5
  2862 ;; This function calls:
  2863 ;;		_I2C_Hold
  2864 ;; This function is called by:
  2865 ;;		_Update_Current_Date_Time
  2866 ;; This function uses a non-reentrant model
  2867 ;;
  2868                           
  2869                           
  2870                           ;psect for function _I2C_Restart
  2871  0A37                     _I2C_Restart:
  2872  0A37                     l2053:	
  2873                           ;incstack = 0
  2874                           ; Regs used in _I2C_Restart: [wreg+status,2+status,0+pclath+cstack]
  2875                           
  2876                           
  2877                           ;./PIC16F877a_I2C.h: 31:     I2C_Hold();
  2878  0A37  120A  158A  2271  120A  158A  	fcall	_I2C_Hold
  2879  0A3C                     l2055:
  2880                           
  2881                           ;./PIC16F877a_I2C.h: 32:     RSEN=1;
  2882  0A3C  1683               	bsf	3,5	;RP0=1, select bank1
  2883  0A3D  1303               	bcf	3,6	;RP1=0, select bank1
  2884  0A3E  1491               	bsf	17,1	;volatile
  2885  0A3F                     l121:
  2886  0A3F  0008               	return
  2887  0A40                     __end_of_I2C_Restart:
  2888                           
  2889                           	psect	text5
  2890  0B80                     __ptext5:	
  2891 ;; *************** function _I2C_Read *****************
  2892 ;; Defined at:
  2893 ;;		line 50 in file "./PIC16F877a_I2C.h"
  2894 ;; Parameters:    Size  Location     Type
  2895 ;;  ack             2   12[BANK0 ] unsigned short 
  2896 ;; Auto vars:     Size  Location     Type
  2897 ;;  data            2   16[BANK0 ] unsigned short 
  2898 ;; Return value:  Size  Location     Type
  2899 ;;                  2   12[BANK0 ] unsigned short 
  2900 ;; Registers used:
  2901 ;;		wreg, status,2, status,0, pclath, cstack
  2902 ;; Tracked objects:
  2903 ;;		On entry : 0/0
  2904 ;;		On exit  : 0/0
  2905 ;;		Unchanged: 0/0
  2906 ;; Data sizes:     COMMON   BANK0   BANK1   BANK3   BANK2
  2907 ;;      Params:         0       2       0       0       0
  2908 ;;      Locals:         0       2       0       0       0
  2909 ;;      Temps:          0       2       0       0       0
  2910 ;;      Totals:         0       6       0       0       0
  2911 ;;Total ram usage:        6 bytes
  2912 ;; Hardware stack levels used: 1
  2913 ;; Hardware stack levels required when called: 5
  2914 ;; This function calls:
  2915 ;;		_I2C_Hold
  2916 ;; This function is called by:
  2917 ;;		_Update_Current_Date_Time
  2918 ;; This function uses a non-reentrant model
  2919 ;;
  2920                           
  2921                           
  2922                           ;psect for function _I2C_Read
  2923  0B80                     _I2C_Read:
  2924  0B80                     l2071:	
  2925                           ;incstack = 0
  2926                           ; Regs used in _I2C_Read: [wreg+status,2+status,0+pclath+cstack]
  2927                           
  2928                           
  2929                           ;./PIC16F877a_I2C.h: 50: unsigned short I2C_Read(unsigned short ack);./PIC16F877a_I2C.h:
      +                           51: {;./PIC16F877a_I2C.h: 52:     unsigned short data;;./PIC16F877a_I2C.h: 53:     I2C_
      +                          Hold();
  2930  0B80  120A  158A  2271  120A  158A  	fcall	_I2C_Hold
  2931  0B85                     l2073:
  2932                           
  2933                           ;./PIC16F877a_I2C.h: 54:     RCEN = 1;
  2934  0B85  1683               	bsf	3,5	;RP0=1, select bank1
  2935  0B86  1303               	bcf	3,6	;RP1=0, select bank1
  2936  0B87  1591               	bsf	17,3	;volatile
  2937                           
  2938                           ;./PIC16F877a_I2C.h: 55:     I2C_Hold();
  2939  0B88  120A  158A  2271  120A  158A  	fcall	_I2C_Hold
  2940  0B8D                     l2075:
  2941                           
  2942                           ;./PIC16F877a_I2C.h: 56:     data=SSPBUF;
  2943  0B8D  1283               	bcf	3,5	;RP0=0, select bank0
  2944  0B8E  1303               	bcf	3,6	;RP1=0, select bank0
  2945  0B8F  0813               	movf	19,w	;volatile
  2946  0B90  00AE               	movwf	??_I2C_Read
  2947  0B91  01AF               	clrf	??_I2C_Read+1
  2948  0B92  082E               	movf	??_I2C_Read,w
  2949  0B93  00B0               	movwf	I2C_Read@data
  2950  0B94  082F               	movf	??_I2C_Read+1,w
  2951  0B95  00B1               	movwf	I2C_Read@data+1
  2952  0B96                     l2077:
  2953                           
  2954                           ;./PIC16F877a_I2C.h: 57:     I2C_Hold();
  2955  0B96  120A  158A  2271  120A  158A  	fcall	_I2C_Hold
  2956  0B9B                     l2079:
  2957                           
  2958                           ;./PIC16F877a_I2C.h: 58:     ACKDT=ack;
  2959  0B9B  1283               	bcf	3,5	;RP0=0, select bank0
  2960  0B9C  1303               	bcf	3,6	;RP1=0, select bank0
  2961  0B9D  182C               	btfsc	I2C_Read@ack,0
  2962  0B9E  2BA0               	goto	u1461
  2963  0B9F  2BA4               	goto	u1460
  2964  0BA0                     u1461:
  2965  0BA0  1683               	bsf	3,5	;RP0=1, select bank1
  2966  0BA1  1303               	bcf	3,6	;RP1=0, select bank1
  2967  0BA2  1691               	bsf	17,5	;volatile
  2968  0BA3  2BA7               	goto	u1474
  2969  0BA4                     u1460:
  2970  0BA4  1683               	bsf	3,5	;RP0=1, select bank1
  2971  0BA5  1303               	bcf	3,6	;RP1=0, select bank1
  2972  0BA6  1291               	bcf	17,5	;volatile
  2973  0BA7                     u1474:
  2974  0BA7                     l2081:
  2975                           
  2976                           ;./PIC16F877a_I2C.h: 59:     ACKEN=1;
  2977  0BA7  1611               	bsf	17,4	;volatile
  2978                           
  2979                           ;./PIC16F877a_I2C.h: 60:     return data;
  2980  0BA8  1283               	bcf	3,5	;RP0=0, select bank0
  2981  0BA9  1303               	bcf	3,6	;RP1=0, select bank0
  2982  0BAA  0831               	movf	I2C_Read@data+1,w
  2983  0BAB  00AD               	movwf	?_I2C_Read+1
  2984  0BAC  0830               	movf	I2C_Read@data,w
  2985  0BAD  00AC               	movwf	?_I2C_Read
  2986  0BAE                     l130:
  2987  0BAE  0008               	return
  2988  0BAF                     __end_of_I2C_Read:
  2989                           
  2990                           	psect	text6
  2991  0B53                     __ptext6:	
  2992 ;; *************** function _BCD_2_DEC *****************
  2993 ;; Defined at:
  2994 ;;		line 16 in file "./PIC16F877a_DS3231.h"
  2995 ;; Parameters:    Size  Location     Type
  2996 ;;  num             2   18[BANK0 ] int 
  2997 ;; Auto vars:     Size  Location     Type
  2998 ;;  data            2   22[BANK0 ] int 
  2999 ;; Return value:  Size  Location     Type
  3000 ;;                  2   18[BANK0 ] int 
  3001 ;; Registers used:
  3002 ;;		wreg, status,2, status,0, pclath, cstack
  3003 ;; Tracked objects:
  3004 ;;		On entry : 0/0
  3005 ;;		On exit  : 0/0
  3006 ;;		Unchanged: 0/0
  3007 ;; Data sizes:     COMMON   BANK0   BANK1   BANK3   BANK2
  3008 ;;      Params:         0       2       0       0       0
  3009 ;;      Locals:         0       2       0       0       0
  3010 ;;      Temps:          0       2       0       0       0
  3011 ;;      Totals:         0       6       0       0       0
  3012 ;;Total ram usage:        6 bytes
  3013 ;; Hardware stack levels used: 1
  3014 ;; Hardware stack levels required when called: 5
  3015 ;; This function calls:
  3016 ;;		___wmul
  3017 ;; This function is called by:
  3018 ;;		_Update_Current_Date_Time
  3019 ;; This function uses a non-reentrant model
  3020 ;;
  3021                           
  3022                           
  3023                           ;psect for function _BCD_2_DEC
  3024  0B53                     _BCD_2_DEC:
  3025  0B53                     l2085:	
  3026                           ;incstack = 0
  3027                           ; Regs used in _BCD_2_DEC: [wreg+status,2+status,0+pclath+cstack]
  3028                           
  3029                           
  3030                           ;./PIC16F877a_DS3231.h: 16: int BCD_2_DEC(int num);./PIC16F877a_DS3231.h: 17: {;./PIC16F
      +                          877a_DS3231.h: 18:     int data=((num>>4)*10)+(num&0x0F);
  3031  0B53  300F               	movlw	15
  3032  0B54  1283               	bcf	3,5	;RP0=0, select bank0
  3033  0B55  1303               	bcf	3,6	;RP1=0, select bank0
  3034  0B56  0532               	andwf	BCD_2_DEC@num,w
  3035  0B57  00B4               	movwf	??_BCD_2_DEC
  3036  0B58  3000               	movlw	0
  3037  0B59  0533               	andwf	BCD_2_DEC@num+1,w
  3038  0B5A  00B5               	movwf	??_BCD_2_DEC+1
  3039  0B5B  0E32               	swapf	BCD_2_DEC@num,w
  3040  0B5C  390F               	andlw	15
  3041  0B5D  00AC               	movwf	___wmul@multiplier
  3042  0B5E  0E33               	swapf	BCD_2_DEC@num+1,w
  3043  0B5F  39F0               	andlw	240
  3044  0B60  04AC               	iorwf	___wmul@multiplier,f
  3045  0B61  0E33               	swapf	BCD_2_DEC@num+1,w
  3046  0B62  390F               	andlw	15
  3047  0B63  00AD               	movwf	___wmul@multiplier+1
  3048  0B64  30F0               	movlw	240
  3049  0B65  1DAD               	btfss	___wmul@multiplier+1,3
  3050  0B66  3000               	movlw	0
  3051  0B67  04AD               	iorwf	___wmul@multiplier+1,f
  3052  0B68  300A               	movlw	10
  3053  0B69  00AE               	movwf	___wmul@multiplicand
  3054  0B6A  3000               	movlw	0
  3055  0B6B  00AF               	movwf	___wmul@multiplicand+1
  3056  0B6C  120A  158A  2301  120A  158A  	fcall	___wmul
  3057  0B71  1283               	bcf	3,5	;RP0=0, select bank0
  3058  0B72  1303               	bcf	3,6	;RP1=0, select bank0
  3059  0B73  0834               	movf	??_BCD_2_DEC,w
  3060  0B74  072C               	addwf	?___wmul,w
  3061  0B75  00B6               	movwf	BCD_2_DEC@data
  3062  0B76  0835               	movf	??_BCD_2_DEC+1,w
  3063  0B77  1803               	skipnc
  3064  0B78  0A35               	incf	??_BCD_2_DEC+1,w
  3065  0B79  072D               	addwf	?___wmul+1,w
  3066  0B7A  00B7               	movwf	BCD_2_DEC@data+1
  3067  0B7B                     l2087:
  3068                           
  3069                           ;./PIC16F877a_DS3231.h: 19:     return data;
  3070  0B7B  0837               	movf	BCD_2_DEC@data+1,w
  3071  0B7C  00B3               	movwf	?_BCD_2_DEC+1
  3072  0B7D  0836               	movf	BCD_2_DEC@data,w
  3073  0B7E  00B2               	movwf	?_BCD_2_DEC
  3074  0B7F                     l139:
  3075  0B7F  0008               	return
  3076  0B80                     __end_of_BCD_2_DEC:
  3077                           
  3078                           	psect	text7
  3079  0670                     __ptext7:	
  3080 ;; *************** function _Set_Time_Date *****************
  3081 ;; Defined at:
  3082 ;;		line 28 in file "./PIC16F877a_DS3231.h"
  3083 ;; Parameters:    Size  Location     Type
  3084 ;;		None
  3085 ;; Auto vars:     Size  Location     Type
  3086 ;;		None
  3087 ;; Return value:  Size  Location     Type
  3088 ;;                  1    wreg      void 
  3089 ;; Registers used:
  3090 ;;		wreg, status,2, status,0, pclath, cstack
  3091 ;; Tracked objects:
  3092 ;;		On entry : 0/0
  3093 ;;		On exit  : 0/0
  3094 ;;		Unchanged: 0/0
  3095 ;; Data sizes:     COMMON   BANK0   BANK1   BANK3   BANK2
  3096 ;;      Params:         0       0       0       0       0
  3097 ;;      Locals:         0       0       0       0       0
  3098 ;;      Temps:          0       0       0       0       0
  3099 ;;      Totals:         0       0       0       0       0
  3100 ;;Total ram usage:        0 bytes
  3101 ;; Hardware stack levels used: 1
  3102 ;; Hardware stack levels required when called: 6
  3103 ;; This function calls:
  3104 ;;		_DEC_2_BCD
  3105 ;;		_I2C_Begin
  3106 ;;		_I2C_End
  3107 ;;		_I2C_Write
  3108 ;; This function is called by:
  3109 ;;		_main
  3110 ;; This function uses a non-reentrant model
  3111 ;;
  3112                           
  3113                           
  3114                           ;psect for function _Set_Time_Date
  3115  0670                     _Set_Time_Date:
  3116  0670                     l2215:	
  3117                           ;incstack = 0
  3118                           ; Regs used in _Set_Time_Date: [wreg+status,2+status,0+pclath+cstack]
  3119                           
  3120                           
  3121                           ;./PIC16F877a_DS3231.h: 30:    I2C_Begin();
  3122  0670  120A  158A  2225  120A  118A  	fcall	_I2C_Begin
  3123                           
  3124                           ;./PIC16F877a_DS3231.h: 31:    I2C_Write(0xD0);
  3125  0675  30D0               	movlw	208
  3126  0676  1283               	bcf	3,5	;RP0=0, select bank0
  3127  0677  1303               	bcf	3,6	;RP1=0, select bank0
  3128  0678  00BB               	movwf	I2C_Write@data
  3129  0679  3000               	movlw	0
  3130  067A  00BC               	movwf	I2C_Write@data+1
  3131  067B  120A  158A  228D  120A  118A  	fcall	_I2C_Write
  3132                           
  3133                           ;./PIC16F877a_DS3231.h: 32:    I2C_Write(0);
  3134  0680  3000               	movlw	0
  3135  0681  1283               	bcf	3,5	;RP0=0, select bank0
  3136  0682  1303               	bcf	3,6	;RP1=0, select bank0
  3137  0683  00BB               	movwf	I2C_Write@data
  3138  0684  00BC               	movwf	I2C_Write@data+1
  3139  0685  120A  158A  228D  120A  118A  	fcall	_I2C_Write
  3140                           
  3141                           ;./PIC16F877a_DS3231.h: 33:    I2C_Write(DEC_2_BCD(sec));
  3142  068A  1283               	bcf	3,5	;RP0=0, select bank0
  3143  068B  1303               	bcf	3,6	;RP1=0, select bank0
  3144  068C  0855               	movf	_sec+1,w
  3145  068D  00B6               	movwf	DEC_2_BCD@num+1
  3146  068E  0854               	movf	_sec,w
  3147  068F  00B5               	movwf	DEC_2_BCD@num
  3148  0690  120A  158A  241F  120A  118A  	fcall	_DEC_2_BCD
  3149  0695  1283               	bcf	3,5	;RP0=0, select bank0
  3150  0696  1303               	bcf	3,6	;RP1=0, select bank0
  3151  0697  0836               	movf	?_DEC_2_BCD+1,w
  3152  0698  00BC               	movwf	I2C_Write@data+1
  3153  0699  0835               	movf	?_DEC_2_BCD,w
  3154  069A  00BB               	movwf	I2C_Write@data
  3155  069B  120A  158A  228D  120A  118A  	fcall	_I2C_Write
  3156                           
  3157                           ;./PIC16F877a_DS3231.h: 34:    I2C_Write(DEC_2_BCD(min));
  3158  06A0  1283               	bcf	3,5	;RP0=0, select bank0
  3159  06A1  1303               	bcf	3,6	;RP1=0, select bank0
  3160  06A2  0853               	movf	_min+1,w
  3161  06A3  00B6               	movwf	DEC_2_BCD@num+1
  3162  06A4  0852               	movf	_min,w
  3163  06A5  00B5               	movwf	DEC_2_BCD@num
  3164  06A6  120A  158A  241F  120A  118A  	fcall	_DEC_2_BCD
  3165  06AB  1283               	bcf	3,5	;RP0=0, select bank0
  3166  06AC  1303               	bcf	3,6	;RP1=0, select bank0
  3167  06AD  0836               	movf	?_DEC_2_BCD+1,w
  3168  06AE  00BC               	movwf	I2C_Write@data+1
  3169  06AF  0835               	movf	?_DEC_2_BCD,w
  3170  06B0  00BB               	movwf	I2C_Write@data
  3171  06B1  120A  158A  228D  120A  118A  	fcall	_I2C_Write
  3172                           
  3173                           ;./PIC16F877a_DS3231.h: 35:    I2C_Write(DEC_2_BCD(hour));
  3174  06B6  1283               	bcf	3,5	;RP0=0, select bank0
  3175  06B7  1303               	bcf	3,6	;RP1=0, select bank0
  3176  06B8  0851               	movf	_hour+1,w
  3177  06B9  00B6               	movwf	DEC_2_BCD@num+1
  3178  06BA  0850               	movf	_hour,w
  3179  06BB  00B5               	movwf	DEC_2_BCD@num
  3180  06BC  120A  158A  241F  120A  118A  	fcall	_DEC_2_BCD
  3181  06C1  1283               	bcf	3,5	;RP0=0, select bank0
  3182  06C2  1303               	bcf	3,6	;RP1=0, select bank0
  3183  06C3  0836               	movf	?_DEC_2_BCD+1,w
  3184  06C4  00BC               	movwf	I2C_Write@data+1
  3185  06C5  0835               	movf	?_DEC_2_BCD,w
  3186  06C6  00BB               	movwf	I2C_Write@data
  3187  06C7  120A  158A  228D  120A  118A  	fcall	_I2C_Write
  3188                           
  3189                           ;./PIC16F877a_DS3231.h: 36:    I2C_Write(1);
  3190  06CC  3001               	movlw	1
  3191  06CD  1283               	bcf	3,5	;RP0=0, select bank0
  3192  06CE  1303               	bcf	3,6	;RP1=0, select bank0
  3193  06CF  00BB               	movwf	I2C_Write@data
  3194  06D0  3000               	movlw	0
  3195  06D1  00BC               	movwf	I2C_Write@data+1
  3196  06D2  120A  158A  228D  120A  118A  	fcall	_I2C_Write
  3197                           
  3198                           ;./PIC16F877a_DS3231.h: 37:    I2C_Write(1);
  3199  06D7  3001               	movlw	1
  3200  06D8  1283               	bcf	3,5	;RP0=0, select bank0
  3201  06D9  1303               	bcf	3,6	;RP1=0, select bank0
  3202  06DA  00BB               	movwf	I2C_Write@data
  3203  06DB  3000               	movlw	0
  3204  06DC  00BC               	movwf	I2C_Write@data+1
  3205  06DD  120A  158A  228D  120A  118A  	fcall	_I2C_Write
  3206                           
  3207                           ;./PIC16F877a_DS3231.h: 38:    I2C_Write(1);
  3208  06E2  3001               	movlw	1
  3209  06E3  1283               	bcf	3,5	;RP0=0, select bank0
  3210  06E4  1303               	bcf	3,6	;RP1=0, select bank0
  3211  06E5  00BB               	movwf	I2C_Write@data
  3212  06E6  3000               	movlw	0
  3213  06E7  00BC               	movwf	I2C_Write@data+1
  3214  06E8  120A  158A  228D  120A  118A  	fcall	_I2C_Write
  3215                           
  3216                           ;./PIC16F877a_DS3231.h: 39:    I2C_Write(1);
  3217  06ED  3001               	movlw	1
  3218  06EE  1283               	bcf	3,5	;RP0=0, select bank0
  3219  06EF  1303               	bcf	3,6	;RP1=0, select bank0
  3220  06F0  00BB               	movwf	I2C_Write@data
  3221  06F1  3000               	movlw	0
  3222  06F2  00BC               	movwf	I2C_Write@data+1
  3223  06F3  120A  158A  228D  120A  118A  	fcall	_I2C_Write
  3224                           
  3225                           ;./PIC16F877a_DS3231.h: 40:    I2C_End();
  3226  06F8  120A  158A  222E  120A  118A  	fcall	_I2C_End
  3227  06FD                     l145:
  3228  06FD  0008               	return
  3229  06FE                     __end_of_Set_Time_Date:
  3230                           
  3231                           	psect	text8
  3232  0A8D                     __ptext8:	
  3233 ;; *************** function _I2C_Write *****************
  3234 ;; Defined at:
  3235 ;;		line 42 in file "./PIC16F877a_I2C.h"
  3236 ;; Parameters:    Size  Location     Type
  3237 ;;  data            2   27[BANK0 ] unsigned short 
  3238 ;; Auto vars:     Size  Location     Type
  3239 ;;		None
  3240 ;; Return value:  Size  Location     Type
  3241 ;;                  2   27[BANK0 ] unsigned short 
  3242 ;; Registers used:
  3243 ;;		wreg, status,2, status,0, pclath, cstack
  3244 ;; Tracked objects:
  3245 ;;		On entry : 0/0
  3246 ;;		On exit  : 0/0
  3247 ;;		Unchanged: 0/0
  3248 ;; Data sizes:     COMMON   BANK0   BANK1   BANK3   BANK2
  3249 ;;      Params:         0       2       0       0       0
  3250 ;;      Locals:         0       0       0       0       0
  3251 ;;      Temps:          0       0       0       0       0
  3252 ;;      Totals:         0       2       0       0       0
  3253 ;;Total ram usage:        2 bytes
  3254 ;; Hardware stack levels used: 1
  3255 ;; Hardware stack levels required when called: 5
  3256 ;; This function calls:
  3257 ;;		_I2C_Hold
  3258 ;; This function is called by:
  3259 ;;		_Set_Time_Date
  3260 ;;		_Update_Current_Date_Time
  3261 ;; This function uses a non-reentrant model
  3262 ;;
  3263                           
  3264                           
  3265                           ;psect for function _I2C_Write
  3266  0A8D                     _I2C_Write:
  3267  0A8D                     l2061:	
  3268                           ;incstack = 0
  3269                           ; Regs used in _I2C_Write: [wreg+status,2+status,0+pclath+cstack]
  3270                           
  3271                           
  3272                           ;./PIC16F877a_I2C.h: 42: unsigned short I2C_Write(unsigned short data);./PIC16F877a_I2C.
      +                          h: 43: {;./PIC16F877a_I2C.h: 44:     I2C_Hold();
  3273  0A8D  120A  158A  2271  120A  158A  	fcall	_I2C_Hold
  3274  0A92                     l2063:
  3275                           
  3276                           ;./PIC16F877a_I2C.h: 45:     SSPBUF = data;
  3277  0A92  1283               	bcf	3,5	;RP0=0, select bank0
  3278  0A93  1303               	bcf	3,6	;RP1=0, select bank0
  3279  0A94  083B               	movf	I2C_Write@data,w
  3280  0A95  0093               	movwf	19	;volatile
  3281  0A96                     l2065:
  3282                           
  3283                           ;./PIC16F877a_I2C.h: 46:     I2C_Hold();
  3284  0A96  120A  158A  2271  120A  158A  	fcall	_I2C_Hold
  3285  0A9B                     l2067:
  3286  0A9B                     l127:	
  3287                           ;./PIC16F877a_I2C.h: 47:     return ACKSTAT;;	Return value of _I2C_Write is never used
  3288                           
  3289  0A9B  0008               	return
  3290  0A9C                     __end_of_I2C_Write:
  3291                           
  3292                           	psect	text9
  3293  0A2E                     __ptext9:	
  3294 ;; *************** function _I2C_End *****************
  3295 ;; Defined at:
  3296 ;;		line 35 in file "./PIC16F877a_I2C.h"
  3297 ;; Parameters:    Size  Location     Type
  3298 ;;		None
  3299 ;; Auto vars:     Size  Location     Type
  3300 ;;		None
  3301 ;; Return value:  Size  Location     Type
  3302 ;;                  1    wreg      void 
  3303 ;; Registers used:
  3304 ;;		wreg, status,2, status,0, pclath, cstack
  3305 ;; Tracked objects:
  3306 ;;		On entry : 0/0
  3307 ;;		On exit  : 0/0
  3308 ;;		Unchanged: 0/0
  3309 ;; Data sizes:     COMMON   BANK0   BANK1   BANK3   BANK2
  3310 ;;      Params:         0       0       0       0       0
  3311 ;;      Locals:         0       0       0       0       0
  3312 ;;      Temps:          0       0       0       0       0
  3313 ;;      Totals:         0       0       0       0       0
  3314 ;;Total ram usage:        0 bytes
  3315 ;; Hardware stack levels used: 1
  3316 ;; Hardware stack levels required when called: 5
  3317 ;; This function calls:
  3318 ;;		_I2C_Hold
  3319 ;; This function is called by:
  3320 ;;		_Set_Time_Date
  3321 ;;		_Update_Current_Date_Time
  3322 ;; This function uses a non-reentrant model
  3323 ;;
  3324                           
  3325                           
  3326                           ;psect for function _I2C_End
  3327  0A2E                     _I2C_End:
  3328  0A2E                     l2057:	
  3329                           ;incstack = 0
  3330                           ; Regs used in _I2C_End: [wreg+status,2+status,0+pclath+cstack]
  3331                           
  3332                           
  3333                           ;./PIC16F877a_I2C.h: 37:   I2C_Hold();
  3334  0A2E  120A  158A  2271  120A  158A  	fcall	_I2C_Hold
  3335  0A33                     l2059:
  3336                           
  3337                           ;./PIC16F877a_I2C.h: 38:   PEN = 1;
  3338  0A33  1683               	bsf	3,5	;RP0=1, select bank1
  3339  0A34  1303               	bcf	3,6	;RP1=0, select bank1
  3340  0A35  1511               	bsf	17,2	;volatile
  3341  0A36                     l124:
  3342  0A36  0008               	return
  3343  0A37                     __end_of_I2C_End:
  3344                           
  3345                           	psect	text10
  3346  0A25                     __ptext10:	
  3347 ;; *************** function _I2C_Begin *****************
  3348 ;; Defined at:
  3349 ;;		line 24 in file "./PIC16F877a_I2C.h"
  3350 ;; Parameters:    Size  Location     Type
  3351 ;;		None
  3352 ;; Auto vars:     Size  Location     Type
  3353 ;;		None
  3354 ;; Return value:  Size  Location     Type
  3355 ;;                  1    wreg      void 
  3356 ;; Registers used:
  3357 ;;		wreg, status,2, status,0, pclath, cstack
  3358 ;; Tracked objects:
  3359 ;;		On entry : 0/0
  3360 ;;		On exit  : 0/0
  3361 ;;		Unchanged: 0/0
  3362 ;; Data sizes:     COMMON   BANK0   BANK1   BANK3   BANK2
  3363 ;;      Params:         0       0       0       0       0
  3364 ;;      Locals:         0       0       0       0       0
  3365 ;;      Temps:          0       0       0       0       0
  3366 ;;      Totals:         0       0       0       0       0
  3367 ;;Total ram usage:        0 bytes
  3368 ;; Hardware stack levels used: 1
  3369 ;; Hardware stack levels required when called: 5
  3370 ;; This function calls:
  3371 ;;		_I2C_Hold
  3372 ;; This function is called by:
  3373 ;;		_Set_Time_Date
  3374 ;;		_Update_Current_Date_Time
  3375 ;; This function uses a non-reentrant model
  3376 ;;
  3377                           
  3378                           
  3379                           ;psect for function _I2C_Begin
  3380  0A25                     _I2C_Begin:
  3381  0A25                     l2049:	
  3382                           ;incstack = 0
  3383                           ; Regs used in _I2C_Begin: [wreg+status,2+status,0+pclath+cstack]
  3384                           
  3385                           
  3386                           ;./PIC16F877a_I2C.h: 26:   I2C_Hold();
  3387  0A25  120A  158A  2271  120A  158A  	fcall	_I2C_Hold
  3388  0A2A                     l2051:
  3389                           
  3390                           ;./PIC16F877a_I2C.h: 27:   SEN = 1;
  3391  0A2A  1683               	bsf	3,5	;RP0=1, select bank1
  3392  0A2B  1303               	bcf	3,6	;RP1=0, select bank1
  3393  0A2C  1411               	bsf	17,0	;volatile
  3394  0A2D                     l118:
  3395  0A2D  0008               	return
  3396  0A2E                     __end_of_I2C_Begin:
  3397                           
  3398                           	psect	text11
  3399  0A71                     __ptext11:	
  3400 ;; *************** function _I2C_Hold *****************
  3401 ;; Defined at:
  3402 ;;		line 19 in file "./PIC16F877a_I2C.h"
  3403 ;; Parameters:    Size  Location     Type
  3404 ;;		None
  3405 ;; Auto vars:     Size  Location     Type
  3406 ;;		None
  3407 ;; Return value:  Size  Location     Type
  3408 ;;                  1    wreg      void 
  3409 ;; Registers used:
  3410 ;;		wreg, status,2
  3411 ;; Tracked objects:
  3412 ;;		On entry : 0/0
  3413 ;;		On exit  : 0/0
  3414 ;;		Unchanged: 0/0
  3415 ;; Data sizes:     COMMON   BANK0   BANK1   BANK3   BANK2
  3416 ;;      Params:         0       0       0       0       0
  3417 ;;      Locals:         0       0       0       0       0
  3418 ;;      Temps:          0       0       0       0       0
  3419 ;;      Totals:         0       0       0       0       0
  3420 ;;Total ram usage:        0 bytes
  3421 ;; Hardware stack levels used: 1
  3422 ;; Hardware stack levels required when called: 4
  3423 ;; This function calls:
  3424 ;;		Nothing
  3425 ;; This function is called by:
  3426 ;;		_I2C_Begin
  3427 ;;		_I2C_Restart
  3428 ;;		_I2C_End
  3429 ;;		_I2C_Write
  3430 ;;		_I2C_Read
  3431 ;; This function uses a non-reentrant model
  3432 ;;
  3433                           
  3434                           
  3435                           ;psect for function _I2C_Hold
  3436  0A71                     _I2C_Hold:
  3437  0A71                     l1851:	
  3438                           ;incstack = 0
  3439                           ; Regs used in _I2C_Hold: [wreg+status,2]
  3440                           
  3441  0A71                     l1853:	
  3442                           ;./PIC16F877a_I2C.h: 21:     while ( (SSPCON2 & 0b00011111) || (SSPSTAT & 0b00000100) ) 
      +                          ;
  3443                           
  3444  0A71  1683               	bsf	3,5	;RP0=1, select bank1
  3445  0A72  1303               	bcf	3,6	;RP1=0, select bank1
  3446  0A73  0811               	movf	17,w	;volatile
  3447  0A74  391F               	andlw	31
  3448  0A75  1D03               	btfss	3,2
  3449  0A76  2A78               	goto	u1001
  3450  0A77  2A79               	goto	u1000
  3451  0A78                     u1001:
  3452  0A78  2A71               	goto	l1853
  3453  0A79                     u1000:
  3454  0A79                     l1855:
  3455  0A79  1914               	btfsc	20,2	;volatile
  3456  0A7A  2A7C               	goto	u1011
  3457  0A7B  2A7D               	goto	u1010
  3458  0A7C                     u1011:
  3459  0A7C  2A71               	goto	l1853
  3460  0A7D                     u1010:
  3461  0A7D                     l115:
  3462  0A7D  0008               	return
  3463  0A7E                     __end_of_I2C_Hold:
  3464                           
  3465                           	psect	text12
  3466  0C1F                     __ptext12:	
  3467 ;; *************** function _DEC_2_BCD *****************
  3468 ;; Defined at:
  3469 ;;		line 22 in file "./PIC16F877a_DS3231.h"
  3470 ;; Parameters:    Size  Location     Type
  3471 ;;  num             2   21[BANK0 ] int 
  3472 ;; Auto vars:     Size  Location     Type
  3473 ;;  data            2   25[BANK0 ] int 
  3474 ;; Return value:  Size  Location     Type
  3475 ;;                  2   21[BANK0 ] int 
  3476 ;; Registers used:
  3477 ;;		wreg, status,2, status,0, pclath, cstack
  3478 ;; Tracked objects:
  3479 ;;		On entry : 0/0
  3480 ;;		On exit  : 0/0
  3481 ;;		Unchanged: 0/0
  3482 ;; Data sizes:     COMMON   BANK0   BANK1   BANK3   BANK2
  3483 ;;      Params:         0       2       0       0       0
  3484 ;;      Locals:         0       2       0       0       0
  3485 ;;      Temps:          0       2       0       0       0
  3486 ;;      Totals:         0       6       0       0       0
  3487 ;;Total ram usage:        6 bytes
  3488 ;; Hardware stack levels used: 1
  3489 ;; Hardware stack levels required when called: 5
  3490 ;; This function calls:
  3491 ;;		___awdiv
  3492 ;;		___awmod
  3493 ;; This function is called by:
  3494 ;;		_Set_Time_Date
  3495 ;; This function uses a non-reentrant model
  3496 ;;
  3497                           
  3498                           
  3499                           ;psect for function _DEC_2_BCD
  3500  0C1F                     _DEC_2_BCD:
  3501  0C1F                     l2091:	
  3502                           ;incstack = 0
  3503                           ; Regs used in _DEC_2_BCD: [wreg+status,2+status,0+pclath+cstack]
  3504                           
  3505                           
  3506                           ;./PIC16F877a_DS3231.h: 22: int DEC_2_BCD (int num);./PIC16F877a_DS3231.h: 23: {;./PIC16
      +                          F877a_DS3231.h: 24:     int data=((num/10)<<4)+(num%10);
  3507  0C1F  300A               	movlw	10
  3508  0C20  1283               	bcf	3,5	;RP0=0, select bank0
  3509  0C21  1303               	bcf	3,6	;RP1=0, select bank0
  3510  0C22  00AC               	movwf	___awdiv@divisor
  3511  0C23  3000               	movlw	0
  3512  0C24  00AD               	movwf	___awdiv@divisor+1
  3513  0C25  0836               	movf	DEC_2_BCD@num+1,w
  3514  0C26  00AF               	movwf	___awdiv@dividend+1
  3515  0C27  0835               	movf	DEC_2_BCD@num,w
  3516  0C28  00AE               	movwf	___awdiv@dividend
  3517  0C29  120A  158A  272E  120A  158A  	fcall	___awdiv
  3518  0C2E  1283               	bcf	3,5	;RP0=0, select bank0
  3519  0C2F  1303               	bcf	3,6	;RP1=0, select bank0
  3520  0C30  082C               	movf	?___awdiv,w
  3521  0C31  00B7               	movwf	??_DEC_2_BCD
  3522  0C32  082D               	movf	?___awdiv+1,w
  3523  0C33  00B8               	movwf	??_DEC_2_BCD+1
  3524  0C34  0EB7               	swapf	??_DEC_2_BCD,f
  3525  0C35  0EB8               	swapf	??_DEC_2_BCD+1,f
  3526  0C36  30F0               	movlw	240
  3527  0C37  05B8               	andwf	??_DEC_2_BCD+1,f
  3528  0C38  0837               	movf	??_DEC_2_BCD,w
  3529  0C39  390F               	andlw	15
  3530  0C3A  04B8               	iorwf	??_DEC_2_BCD+1,f
  3531  0C3B  30F0               	movlw	240
  3532  0C3C  05B7               	andwf	??_DEC_2_BCD,f
  3533  0C3D  300A               	movlw	10
  3534  0C3E  00AC               	movwf	___awmod@divisor
  3535  0C3F  3000               	movlw	0
  3536  0C40  00AD               	movwf	___awmod@divisor+1
  3537  0C41  0836               	movf	DEC_2_BCD@num+1,w
  3538  0C42  00AF               	movwf	___awmod@dividend+1
  3539  0C43  0835               	movf	DEC_2_BCD@num,w
  3540  0C44  00AE               	movwf	___awmod@dividend
  3541  0C45  120A  158A  2604  120A  158A  	fcall	___awmod
  3542  0C4A  1283               	bcf	3,5	;RP0=0, select bank0
  3543  0C4B  1303               	bcf	3,6	;RP1=0, select bank0
  3544  0C4C  082C               	movf	?___awmod,w
  3545  0C4D  0737               	addwf	??_DEC_2_BCD,w
  3546  0C4E  00B9               	movwf	DEC_2_BCD@data
  3547  0C4F  082D               	movf	?___awmod+1,w
  3548  0C50  1803               	skipnc
  3549  0C51  0A2D               	incf	?___awmod+1,w
  3550  0C52  0738               	addwf	??_DEC_2_BCD+1,w
  3551  0C53  00BA               	movwf	DEC_2_BCD@data+1
  3552  0C54                     l2093:
  3553                           
  3554                           ;./PIC16F877a_DS3231.h: 25:     return data;
  3555  0C54  083A               	movf	DEC_2_BCD@data+1,w
  3556  0C55  00B6               	movwf	?_DEC_2_BCD+1
  3557  0C56  0839               	movf	DEC_2_BCD@data,w
  3558  0C57  00B5               	movwf	?_DEC_2_BCD
  3559  0C58                     l142:
  3560  0C58  0008               	return
  3561  0C59                     __end_of_DEC_2_BCD:
  3562                           
  3563                           	psect	text13
  3564  0CDB                     __ptext13:	
  3565 ;; *************** function _SOLAR *****************
  3566 ;; Defined at:
  3567 ;;		line 72 in file "main.c"
  3568 ;; Parameters:    Size  Location     Type
  3569 ;;		None
  3570 ;; Auto vars:     Size  Location     Type
  3571 ;;		None
  3572 ;; Return value:  Size  Location     Type
  3573 ;;                  1    wreg      void 
  3574 ;; Registers used:
  3575 ;;		wreg, fsr0l, fsr0h, status,2, status,0, btemp+1, pclath, cstack
  3576 ;; Tracked objects:
  3577 ;;		On entry : 0/0
  3578 ;;		On exit  : 0/0
  3579 ;;		Unchanged: 0/0
  3580 ;; Data sizes:     COMMON   BANK0   BANK1   BANK3   BANK2
  3581 ;;      Params:         0       0       0       0       0
  3582 ;;      Locals:         0       0       0       0       0
  3583 ;;      Temps:          0       3       0       0       0
  3584 ;;      Totals:         0       3       0       0       0
  3585 ;;Total ram usage:        3 bytes
  3586 ;; Hardware stack levels used: 1
  3587 ;; Hardware stack levels required when called: 7
  3588 ;; This function calls:
  3589 ;;		_CURSOR
  3590 ;;		_LCDWRITE
  3591 ;; This function is called by:
  3592 ;;		_main
  3593 ;; This function uses a non-reentrant model
  3594 ;;
  3595                           
  3596                           
  3597                           ;psect for function _SOLAR
  3598  0CDB                     _SOLAR:
  3599  0CDB                     l2315:	
  3600                           ;incstack = 0
  3601                           ; Regs used in _SOLAR: [wreg-fsr0h+status,2+status,0+btemp+1+pclath+cstack]
  3602                           
  3603                           
  3604                           ;main.c: 73:     if(RD1==1);
  3605  0CDB  1283               	bcf	3,5	;RP0=0, select bank0
  3606  0CDC  1303               	bcf	3,6	;RP1=0, select bank0
  3607  0CDD  1C88               	btfss	8,1	;volatile
  3608  0CDE  2CE0               	goto	u1631
  3609  0CDF  2CE1               	goto	u1630
  3610  0CE0                     u1631:
  3611  0CE0  2CE2               	goto	l228
  3612  0CE1                     u1630:
  3613  0CE1  2D1B               	goto	l230
  3614  0CE2                     l228:	
  3615                           ;main.c: 74:     else{
  3616                           
  3617                           
  3618                           ;main.c: 75:         RD4=1;
  3619  0CE2  1608               	bsf	8,4	;volatile
  3620  0CE3                     l2319:
  3621                           
  3622                           ;main.c: 76:         CURSOR(0x94,0);
  3623  0CE3  01AE               	clrf	CURSOR@b
  3624  0CE4  3094               	movlw	148
  3625  0CE5  120A  158A  22DD  120A  158A  	fcall	_CURSOR
  3626  0CEA                     l2321:
  3627                           
  3628                           ;main.c: 77:         LCDWRITE("switching...");
  3629  0CEA  3094               	movlw	(low ((STR_1-__stringbase)| (0+32768)))& (0+255)
  3630  0CEB  120A  158A  255D  120A  158A  	fcall	_LCDWRITE
  3631  0CF0                     l2323:
  3632                           
  3633                           ;main.c: 78:         _delay((unsigned long)((4000)*(20000000/4000.0)));
  3634  0CF0  3066               	movlw	102
  3635  0CF1  1283               	bcf	3,5	;RP0=0, select bank0
  3636  0CF2  1303               	bcf	3,6	;RP1=0, select bank0
  3637  0CF3  00B6               	movwf	??_SOLAR+2
  3638  0CF4  3076               	movlw	118
  3639  0CF5  00B5               	movwf	??_SOLAR+1
  3640  0CF6  30C0               	movlw	192
  3641  0CF7  00B4               	movwf	??_SOLAR
  3642  0CF8                     u2387:
  3643  0CF8  0BB4               	decfsz	??_SOLAR,f
  3644  0CF9  2CF8               	goto	u2387
  3645  0CFA  0BB5               	decfsz	??_SOLAR+1,f
  3646  0CFB  2CF8               	goto	u2387
  3647  0CFC  0BB6               	decfsz	??_SOLAR+2,f
  3648  0CFD  2CF8               	goto	u2387
  3649  0CFE  0000               	nop
  3650  0CFF                     l2325:
  3651                           
  3652                           ;main.c: 79:         RD0=RD1=RD2=RD3=0;
  3653  0CFF  1283               	bcf	3,5	;RP0=0, select bank0
  3654  0D00  1303               	bcf	3,6	;RP1=0, select bank0
  3655  0D01  1188               	bcf	8,3	;volatile
  3656  0D02  1108               	bcf	8,2	;volatile
  3657  0D03  1088               	bcf	8,1	;volatile
  3658  0D04  1008               	bcf	8,0	;volatile
  3659  0D05                     l2327:
  3660                           
  3661                           ;main.c: 80:         RD1=1;
  3662  0D05  1488               	bsf	8,1	;volatile
  3663  0D06                     l2329:
  3664                           
  3665                           ;main.c: 81:         _delay((unsigned long)((4000)*(20000000/4000.0)));
  3666  0D06  3066               	movlw	102
  3667  0D07  1283               	bcf	3,5	;RP0=0, select bank0
  3668  0D08  1303               	bcf	3,6	;RP1=0, select bank0
  3669  0D09  00B6               	movwf	??_SOLAR+2
  3670  0D0A  3076               	movlw	118
  3671  0D0B  00B5               	movwf	??_SOLAR+1
  3672  0D0C  30C0               	movlw	192
  3673  0D0D  00B4               	movwf	??_SOLAR
  3674  0D0E                     u2397:
  3675  0D0E  0BB4               	decfsz	??_SOLAR,f
  3676  0D0F  2D0E               	goto	u2397
  3677  0D10  0BB5               	decfsz	??_SOLAR+1,f
  3678  0D11  2D0E               	goto	u2397
  3679  0D12  0BB6               	decfsz	??_SOLAR+2,f
  3680  0D13  2D0E               	goto	u2397
  3681  0D14  0000               	nop
  3682  0D15                     l2331:
  3683                           
  3684                           ;main.c: 82:         RD0=0;RD2=0;RD3=0;
  3685  0D15  1283               	bcf	3,5	;RP0=0, select bank0
  3686  0D16  1303               	bcf	3,6	;RP1=0, select bank0
  3687  0D17  1008               	bcf	8,0	;volatile
  3688  0D18                     l2333:
  3689  0D18  1108               	bcf	8,2	;volatile
  3690  0D19                     l2335:
  3691  0D19  1188               	bcf	8,3	;volatile
  3692  0D1A                     l2337:
  3693                           
  3694                           ;main.c: 83:         RD4=0;
  3695  0D1A  1208               	bcf	8,4	;volatile
  3696  0D1B                     l230:
  3697  0D1B  0008               	return
  3698  0D1C                     __end_of_SOLAR:
  3699                           
  3700                           	psect	text14
  3701  0C9A                     __ptext14:	
  3702 ;; *************** function _PHCN *****************
  3703 ;; Defined at:
  3704 ;;		line 100 in file "main.c"
  3705 ;; Parameters:    Size  Location     Type
  3706 ;;		None
  3707 ;; Auto vars:     Size  Location     Type
  3708 ;;		None
  3709 ;; Return value:  Size  Location     Type
  3710 ;;                  1    wreg      void 
  3711 ;; Registers used:
  3712 ;;		wreg, fsr0l, fsr0h, status,2, status,0, btemp+1, pclath, cstack
  3713 ;; Tracked objects:
  3714 ;;		On entry : 0/0
  3715 ;;		On exit  : 0/0
  3716 ;;		Unchanged: 0/0
  3717 ;; Data sizes:     COMMON   BANK0   BANK1   BANK3   BANK2
  3718 ;;      Params:         0       0       0       0       0
  3719 ;;      Locals:         0       0       0       0       0
  3720 ;;      Temps:          0       3       0       0       0
  3721 ;;      Totals:         0       3       0       0       0
  3722 ;;Total ram usage:        3 bytes
  3723 ;; Hardware stack levels used: 1
  3724 ;; Hardware stack levels required when called: 7
  3725 ;; This function calls:
  3726 ;;		_CURSOR
  3727 ;;		_LCDWRITE
  3728 ;; This function is called by:
  3729 ;;		_main
  3730 ;; This function uses a non-reentrant model
  3731 ;;
  3732                           
  3733                           
  3734                           ;psect for function _PHCN
  3735  0C9A                     _PHCN:
  3736  0C9A                     l2363:	
  3737                           ;incstack = 0
  3738                           ; Regs used in _PHCN: [wreg-fsr0h+status,2+status,0+btemp+1+pclath+cstack]
  3739                           
  3740                           
  3741                           ;main.c: 101:     if(RD3==1);
  3742  0C9A  1283               	bcf	3,5	;RP0=0, select bank0
  3743  0C9B  1303               	bcf	3,6	;RP1=0, select bank0
  3744  0C9C  1D88               	btfss	8,3	;volatile
  3745  0C9D  2C9F               	goto	u1651
  3746  0C9E  2CA0               	goto	u1650
  3747  0C9F                     u1651:
  3748  0C9F  2CA1               	goto	l238
  3749  0CA0                     u1650:
  3750  0CA0  2CDA               	goto	l240
  3751  0CA1                     l238:	
  3752                           ;main.c: 102:     else{
  3753                           
  3754                           
  3755                           ;main.c: 103:         RD4=1;
  3756  0CA1  1608               	bsf	8,4	;volatile
  3757  0CA2                     l2367:
  3758                           
  3759                           ;main.c: 104:         CURSOR(0x94,0);
  3760  0CA2  01AE               	clrf	CURSOR@b
  3761  0CA3  3094               	movlw	148
  3762  0CA4  120A  158A  22DD  120A  158A  	fcall	_CURSOR
  3763  0CA9                     l2369:
  3764                           
  3765                           ;main.c: 105:         LCDWRITE("switching...");
  3766  0CA9  3094               	movlw	(low ((STR_1-__stringbase)| (0+32768)))& (0+255)
  3767  0CAA  120A  158A  255D  120A  158A  	fcall	_LCDWRITE
  3768  0CAF                     l2371:
  3769                           
  3770                           ;main.c: 106:         _delay((unsigned long)((4000)*(20000000/4000.0)));
  3771  0CAF  3066               	movlw	102
  3772  0CB0  1283               	bcf	3,5	;RP0=0, select bank0
  3773  0CB1  1303               	bcf	3,6	;RP1=0, select bank0
  3774  0CB2  00B6               	movwf	??_PHCN+2
  3775  0CB3  3076               	movlw	118
  3776  0CB4  00B5               	movwf	??_PHCN+1
  3777  0CB5  30C0               	movlw	192
  3778  0CB6  00B4               	movwf	??_PHCN
  3779  0CB7                     u2407:
  3780  0CB7  0BB4               	decfsz	??_PHCN,f
  3781  0CB8  2CB7               	goto	u2407
  3782  0CB9  0BB5               	decfsz	??_PHCN+1,f
  3783  0CBA  2CB7               	goto	u2407
  3784  0CBB  0BB6               	decfsz	??_PHCN+2,f
  3785  0CBC  2CB7               	goto	u2407
  3786  0CBD  0000               	nop
  3787  0CBE                     l2373:
  3788                           
  3789                           ;main.c: 107:         RD0=RD1=RD2=RD3=0;
  3790  0CBE  1283               	bcf	3,5	;RP0=0, select bank0
  3791  0CBF  1303               	bcf	3,6	;RP1=0, select bank0
  3792  0CC0  1188               	bcf	8,3	;volatile
  3793  0CC1  1108               	bcf	8,2	;volatile
  3794  0CC2  1088               	bcf	8,1	;volatile
  3795  0CC3  1008               	bcf	8,0	;volatile
  3796  0CC4                     l2375:
  3797                           
  3798                           ;main.c: 108:         RD3=1;
  3799  0CC4  1588               	bsf	8,3	;volatile
  3800  0CC5                     l2377:
  3801                           
  3802                           ;main.c: 109:         _delay((unsigned long)((4000)*(20000000/4000.0)));
  3803  0CC5  3066               	movlw	102
  3804  0CC6  1283               	bcf	3,5	;RP0=0, select bank0
  3805  0CC7  1303               	bcf	3,6	;RP1=0, select bank0
  3806  0CC8  00B6               	movwf	??_PHCN+2
  3807  0CC9  3076               	movlw	118
  3808  0CCA  00B5               	movwf	??_PHCN+1
  3809  0CCB  30C0               	movlw	192
  3810  0CCC  00B4               	movwf	??_PHCN
  3811  0CCD                     u2417:
  3812  0CCD  0BB4               	decfsz	??_PHCN,f
  3813  0CCE  2CCD               	goto	u2417
  3814  0CCF  0BB5               	decfsz	??_PHCN+1,f
  3815  0CD0  2CCD               	goto	u2417
  3816  0CD1  0BB6               	decfsz	??_PHCN+2,f
  3817  0CD2  2CCD               	goto	u2417
  3818  0CD3  0000               	nop
  3819  0CD4                     l2379:
  3820                           
  3821                           ;main.c: 110:         RD0=0;RD1=0;RD2=0;
  3822  0CD4  1283               	bcf	3,5	;RP0=0, select bank0
  3823  0CD5  1303               	bcf	3,6	;RP1=0, select bank0
  3824  0CD6  1008               	bcf	8,0	;volatile
  3825  0CD7                     l2381:
  3826  0CD7  1088               	bcf	8,1	;volatile
  3827  0CD8                     l2383:
  3828  0CD8  1108               	bcf	8,2	;volatile
  3829  0CD9                     l2385:
  3830                           
  3831                           ;main.c: 111:         RD4=0;
  3832  0CD9  1208               	bcf	8,4	;volatile
  3833  0CDA                     l240:
  3834  0CDA  0008               	return
  3835  0CDB                     __end_of_PHCN:
  3836                           
  3837                           	psect	text15
  3838  042D                     __ptext15:	
  3839 ;; *************** function _LCDNUM *****************
  3840 ;; Defined at:
  3841 ;;		line 65 in file "./LCDLIBRARY1.h"
  3842 ;; Parameters:    Size  Location     Type
  3843 ;;  number          2   21[BANK0 ] int 
  3844 ;; Auto vars:     Size  Location     Type
  3845 ;;  u               1   28[BANK0 ] unsigned char 
  3846 ;;  t               1   27[BANK0 ] unsigned char 
  3847 ;;  r               2   29[BANK0 ] int 
  3848 ;;  u               1   26[BANK0 ] unsigned char 
  3849 ;;  t               1   25[BANK0 ] unsigned char 
  3850 ;;  h               1   24[BANK0 ] unsigned char 
  3851 ;; Return value:  Size  Location     Type
  3852 ;;                  1    wreg      void 
  3853 ;; Registers used:
  3854 ;;		wreg, status,2, status,0, btemp+1, pclath, cstack
  3855 ;; Tracked objects:
  3856 ;;		On entry : 0/0
  3857 ;;		On exit  : 0/0
  3858 ;;		Unchanged: 0/0
  3859 ;; Data sizes:     COMMON   BANK0   BANK1   BANK3   BANK2
  3860 ;;      Params:         0       2       0       0       0
  3861 ;;      Locals:         0       7       0       0       0
  3862 ;;      Temps:          0       1       0       0       0
  3863 ;;      Totals:         0      10       0       0       0
  3864 ;;Total ram usage:       10 bytes
  3865 ;; Hardware stack levels used: 1
  3866 ;; Hardware stack levels required when called: 7
  3867 ;; This function calls:
  3868 ;;		_LCDCHAR
  3869 ;;		___awdiv
  3870 ;;		___awmod
  3871 ;;		___wmul
  3872 ;; This function is called by:
  3873 ;;		_main
  3874 ;; This function uses a non-reentrant model
  3875 ;;
  3876                           
  3877                           
  3878                           ;psect for function _LCDNUM
  3879  042D                     _LCDNUM:
  3880  042D                     l2219:	
  3881                           ;incstack = 0
  3882                           ; Regs used in _LCDNUM: [wreg+status,2+status,0+btemp+1+pclath+cstack]
  3883                           
  3884                           
  3885                           ;./LCDLIBRARY1.h: 66:     if(number>99){
  3886  042D  1283               	bcf	3,5	;RP0=0, select bank0
  3887  042E  1303               	bcf	3,6	;RP1=0, select bank0
  3888  042F  0836               	movf	LCDNUM@number+1,w
  3889  0430  3A80               	xorlw	128
  3890  0431  00FF               	movwf	btemp+1
  3891  0432  3080               	movlw	128
  3892  0433  027F               	subwf	btemp+1,w
  3893  0434  1D03               	skipz
  3894  0435  2C38               	goto	u1605
  3895  0436  3064               	movlw	100
  3896  0437  0235               	subwf	LCDNUM@number,w
  3897  0438                     u1605:
  3898  0438  1C03               	skipc
  3899  0439  2C3B               	goto	u1601
  3900  043A  2C3C               	goto	u1600
  3901  043B                     u1601:
  3902  043B  2CBF               	goto	l2235
  3903  043C                     u1600:
  3904  043C                     l2221:
  3905                           
  3906                           ;./LCDLIBRARY1.h: 67:         unsigned char h=48+(number/100);
  3907  043C  3064               	movlw	100
  3908  043D  1283               	bcf	3,5	;RP0=0, select bank0
  3909  043E  1303               	bcf	3,6	;RP1=0, select bank0
  3910  043F  00AC               	movwf	___awdiv@divisor
  3911  0440  3000               	movlw	0
  3912  0441  00AD               	movwf	___awdiv@divisor+1
  3913  0442  0836               	movf	LCDNUM@number+1,w
  3914  0443  00AF               	movwf	___awdiv@dividend+1
  3915  0444  0835               	movf	LCDNUM@number,w
  3916  0445  00AE               	movwf	___awdiv@dividend
  3917  0446  120A  158A  272E  120A  118A  	fcall	___awdiv
  3918  044B  1283               	bcf	3,5	;RP0=0, select bank0
  3919  044C  1303               	bcf	3,6	;RP1=0, select bank0
  3920  044D  082C               	movf	?___awdiv,w
  3921  044E  3E30               	addlw	48
  3922  044F  00B7               	movwf	??_LCDNUM
  3923  0450  0837               	movf	??_LCDNUM,w
  3924  0451  00B8               	movwf	LCDNUM@h
  3925                           
  3926                           ;./LCDLIBRARY1.h: 68:         int r=number/100;
  3927  0452  3064               	movlw	100
  3928  0453  00AC               	movwf	___awdiv@divisor
  3929  0454  3000               	movlw	0
  3930  0455  00AD               	movwf	___awdiv@divisor+1
  3931  0456  0836               	movf	LCDNUM@number+1,w
  3932  0457  00AF               	movwf	___awdiv@dividend+1
  3933  0458  0835               	movf	LCDNUM@number,w
  3934  0459  00AE               	movwf	___awdiv@dividend
  3935  045A  120A  158A  272E  120A  118A  	fcall	___awdiv
  3936  045F  1283               	bcf	3,5	;RP0=0, select bank0
  3937  0460  1303               	bcf	3,6	;RP1=0, select bank0
  3938  0461  082D               	movf	?___awdiv+1,w
  3939  0462  00BE               	movwf	LCDNUM@r+1
  3940  0463  082C               	movf	?___awdiv,w
  3941  0464  00BD               	movwf	LCDNUM@r
  3942                           
  3943                           ;./LCDLIBRARY1.h: 69:         r=r*100;
  3944  0465  083E               	movf	LCDNUM@r+1,w
  3945  0466  00AD               	movwf	___wmul@multiplier+1
  3946  0467  083D               	movf	LCDNUM@r,w
  3947  0468  00AC               	movwf	___wmul@multiplier
  3948  0469  3064               	movlw	100
  3949  046A  00AE               	movwf	___wmul@multiplicand
  3950  046B  3000               	movlw	0
  3951  046C  00AF               	movwf	___wmul@multiplicand+1
  3952  046D  120A  158A  2301  120A  118A  	fcall	___wmul
  3953  0472  1283               	bcf	3,5	;RP0=0, select bank0
  3954  0473  1303               	bcf	3,6	;RP1=0, select bank0
  3955  0474  082D               	movf	?___wmul+1,w
  3956  0475  00BE               	movwf	LCDNUM@r+1
  3957  0476  082C               	movf	?___wmul,w
  3958  0477  00BD               	movwf	LCDNUM@r
  3959  0478                     l2223:
  3960                           
  3961                           ;./LCDLIBRARY1.h: 70:         number=number-r;
  3962  0478  083D               	movf	LCDNUM@r,w
  3963  0479  0235               	subwf	LCDNUM@number,w
  3964  047A  00B5               	movwf	LCDNUM@number
  3965  047B  083E               	movf	LCDNUM@r+1,w
  3966  047C  1C03               	skipc
  3967  047D  0A3E               	incf	LCDNUM@r+1,w
  3968  047E  0236               	subwf	LCDNUM@number+1,w
  3969  047F  00B6               	movwf	LCDNUM@number+1
  3970  0480                     l2225:
  3971                           
  3972                           ;./LCDLIBRARY1.h: 71:         unsigned char t=48+(number/10);
  3973  0480  300A               	movlw	10
  3974  0481  00AC               	movwf	___awdiv@divisor
  3975  0482  3000               	movlw	0
  3976  0483  00AD               	movwf	___awdiv@divisor+1
  3977  0484  0836               	movf	LCDNUM@number+1,w
  3978  0485  00AF               	movwf	___awdiv@dividend+1
  3979  0486  0835               	movf	LCDNUM@number,w
  3980  0487  00AE               	movwf	___awdiv@dividend
  3981  0488  120A  158A  272E  120A  118A  	fcall	___awdiv
  3982  048D  1283               	bcf	3,5	;RP0=0, select bank0
  3983  048E  1303               	bcf	3,6	;RP1=0, select bank0
  3984  048F  082C               	movf	?___awdiv,w
  3985  0490  3E30               	addlw	48
  3986  0491  00B7               	movwf	??_LCDNUM
  3987  0492  0837               	movf	??_LCDNUM,w
  3988  0493  00B9               	movwf	LCDNUM@t
  3989  0494                     l2227:
  3990                           
  3991                           ;./LCDLIBRARY1.h: 72:         unsigned char u=48+(number%10);
  3992  0494  300A               	movlw	10
  3993  0495  00AC               	movwf	___awmod@divisor
  3994  0496  3000               	movlw	0
  3995  0497  00AD               	movwf	___awmod@divisor+1
  3996  0498  0836               	movf	LCDNUM@number+1,w
  3997  0499  00AF               	movwf	___awmod@dividend+1
  3998  049A  0835               	movf	LCDNUM@number,w
  3999  049B  00AE               	movwf	___awmod@dividend
  4000  049C  120A  158A  2604  120A  118A  	fcall	___awmod
  4001  04A1  1283               	bcf	3,5	;RP0=0, select bank0
  4002  04A2  1303               	bcf	3,6	;RP1=0, select bank0
  4003  04A3  082C               	movf	?___awmod,w
  4004  04A4  3E30               	addlw	48
  4005  04A5  00B7               	movwf	??_LCDNUM
  4006  04A6  0837               	movf	??_LCDNUM,w
  4007  04A7  00BA               	movwf	LCDNUM@u
  4008  04A8                     l2229:
  4009                           
  4010                           ;./LCDLIBRARY1.h: 73:         LCDCHAR(h);
  4011  04A8  0838               	movf	LCDNUM@h,w
  4012  04A9  120A  158A  2328  120A  118A  	fcall	_LCDCHAR
  4013  04AE                     l2231:
  4014                           
  4015                           ;./LCDLIBRARY1.h: 74:         LCDCHAR(t);
  4016  04AE  1283               	bcf	3,5	;RP0=0, select bank0
  4017  04AF  1303               	bcf	3,6	;RP1=0, select bank0
  4018  04B0  0839               	movf	LCDNUM@t,w
  4019  04B1  120A  158A  2328  120A  118A  	fcall	_LCDCHAR
  4020  04B6                     l2233:
  4021                           
  4022                           ;./LCDLIBRARY1.h: 75:         LCDCHAR(u);
  4023  04B6  1283               	bcf	3,5	;RP0=0, select bank0
  4024  04B7  1303               	bcf	3,6	;RP1=0, select bank0
  4025  04B8  083A               	movf	LCDNUM@u,w
  4026  04B9  120A  158A  2328  120A  118A  	fcall	_LCDCHAR
  4027                           
  4028                           ;./LCDLIBRARY1.h: 76:     }else if(number>9){
  4029  04BE  2D16               	goto	l171
  4030  04BF                     l2235:
  4031  04BF  1283               	bcf	3,5	;RP0=0, select bank0
  4032  04C0  1303               	bcf	3,6	;RP1=0, select bank0
  4033  04C1  0836               	movf	LCDNUM@number+1,w
  4034  04C2  3A80               	xorlw	128
  4035  04C3  00FF               	movwf	btemp+1
  4036  04C4  3080               	movlw	128
  4037  04C5  027F               	subwf	btemp+1,w
  4038  04C6  1D03               	skipz
  4039  04C7  2CCA               	goto	u1615
  4040  04C8  300A               	movlw	10
  4041  04C9  0235               	subwf	LCDNUM@number,w
  4042  04CA                     u1615:
  4043  04CA  1C03               	skipc
  4044  04CB  2CCD               	goto	u1611
  4045  04CC  2CCE               	goto	u1610
  4046  04CD                     u1611:
  4047  04CD  2D07               	goto	l2239
  4048  04CE                     u1610:
  4049  04CE                     l2237:
  4050                           
  4051                           ;./LCDLIBRARY1.h: 77:         unsigned char t=48+(number/10);
  4052  04CE  300A               	movlw	10
  4053  04CF  1283               	bcf	3,5	;RP0=0, select bank0
  4054  04D0  1303               	bcf	3,6	;RP1=0, select bank0
  4055  04D1  00AC               	movwf	___awdiv@divisor
  4056  04D2  3000               	movlw	0
  4057  04D3  00AD               	movwf	___awdiv@divisor+1
  4058  04D4  0836               	movf	LCDNUM@number+1,w
  4059  04D5  00AF               	movwf	___awdiv@dividend+1
  4060  04D6  0835               	movf	LCDNUM@number,w
  4061  04D7  00AE               	movwf	___awdiv@dividend
  4062  04D8  120A  158A  272E  120A  118A  	fcall	___awdiv
  4063  04DD  1283               	bcf	3,5	;RP0=0, select bank0
  4064  04DE  1303               	bcf	3,6	;RP1=0, select bank0
  4065  04DF  082C               	movf	?___awdiv,w
  4066  04E0  3E30               	addlw	48
  4067  04E1  00B7               	movwf	??_LCDNUM
  4068  04E2  0837               	movf	??_LCDNUM,w
  4069  04E3  00BB               	movwf	LCDNUM@t_233
  4070                           
  4071                           ;./LCDLIBRARY1.h: 78:         unsigned char u=48+(number%10);
  4072  04E4  300A               	movlw	10
  4073  04E5  00AC               	movwf	___awmod@divisor
  4074  04E6  3000               	movlw	0
  4075  04E7  00AD               	movwf	___awmod@divisor+1
  4076  04E8  0836               	movf	LCDNUM@number+1,w
  4077  04E9  00AF               	movwf	___awmod@dividend+1
  4078  04EA  0835               	movf	LCDNUM@number,w
  4079  04EB  00AE               	movwf	___awmod@dividend
  4080  04EC  120A  158A  2604  120A  118A  	fcall	___awmod
  4081  04F1  1283               	bcf	3,5	;RP0=0, select bank0
  4082  04F2  1303               	bcf	3,6	;RP1=0, select bank0
  4083  04F3  082C               	movf	?___awmod,w
  4084  04F4  3E30               	addlw	48
  4085  04F5  00B7               	movwf	??_LCDNUM
  4086  04F6  0837               	movf	??_LCDNUM,w
  4087  04F7  00BC               	movwf	LCDNUM@u_234
  4088                           
  4089                           ;./LCDLIBRARY1.h: 79:         LCDCHAR(t);
  4090  04F8  083B               	movf	LCDNUM@t_233,w
  4091  04F9  120A  158A  2328  120A  118A  	fcall	_LCDCHAR
  4092                           
  4093                           ;./LCDLIBRARY1.h: 80:         LCDCHAR(u);
  4094  04FE  1283               	bcf	3,5	;RP0=0, select bank0
  4095  04FF  1303               	bcf	3,6	;RP1=0, select bank0
  4096  0500  083C               	movf	LCDNUM@u_234,w
  4097  0501  120A  158A  2328  120A  118A  	fcall	_LCDCHAR
  4098                           
  4099                           ;./LCDLIBRARY1.h: 81:     }else{
  4100  0506  2D16               	goto	l171
  4101  0507                     l2239:
  4102                           
  4103                           ;./LCDLIBRARY1.h: 82:         LCDCHAR(48);
  4104  0507  3030               	movlw	48
  4105  0508  120A  158A  2328  120A  118A  	fcall	_LCDCHAR
  4106                           
  4107                           ;./LCDLIBRARY1.h: 83:         LCDCHAR(number+48);
  4108  050D  1283               	bcf	3,5	;RP0=0, select bank0
  4109  050E  1303               	bcf	3,6	;RP1=0, select bank0
  4110  050F  0835               	movf	LCDNUM@number,w
  4111  0510  3E30               	addlw	48
  4112  0511  120A  158A  2328  120A  118A  	fcall	_LCDCHAR
  4113  0516                     l171:
  4114  0516  0008               	return
  4115  0517                     __end_of_LCDNUM:
  4116                           
  4117                           	psect	text16
  4118  0B01                     __ptext16:	
  4119 ;; *************** function ___wmul *****************
  4120 ;; Defined at:
  4121 ;;		line 15 in file "C:\Program Files\Microchip\xc8\v2.32\pic\sources\c90\common\Umul16.c"
  4122 ;; Parameters:    Size  Location     Type
  4123 ;;  multiplier      2   12[BANK0 ] unsigned int 
  4124 ;;  multiplicand    2   14[BANK0 ] unsigned int 
  4125 ;; Auto vars:     Size  Location     Type
  4126 ;;  product         2   16[BANK0 ] unsigned int 
  4127 ;; Return value:  Size  Location     Type
  4128 ;;                  2   12[BANK0 ] unsigned int 
  4129 ;; Registers used:
  4130 ;;		wreg, status,2, status,0
  4131 ;; Tracked objects:
  4132 ;;		On entry : 0/0
  4133 ;;		On exit  : 0/0
  4134 ;;		Unchanged: 0/0
  4135 ;; Data sizes:     COMMON   BANK0   BANK1   BANK3   BANK2
  4136 ;;      Params:         0       4       0       0       0
  4137 ;;      Locals:         0       2       0       0       0
  4138 ;;      Temps:          0       0       0       0       0
  4139 ;;      Totals:         0       6       0       0       0
  4140 ;;Total ram usage:        6 bytes
  4141 ;; Hardware stack levels used: 1
  4142 ;; Hardware stack levels required when called: 4
  4143 ;; This function calls:
  4144 ;;		Nothing
  4145 ;; This function is called by:
  4146 ;;		_BCD_2_DEC
  4147 ;;		_LCDNUM
  4148 ;; This function uses a non-reentrant model
  4149 ;;
  4150                           
  4151                           
  4152                           ;psect for function ___wmul
  4153  0B01                     ___wmul:
  4154  0B01                     l1865:	
  4155                           ;incstack = 0
  4156                           ; Regs used in ___wmul: [wreg+status,2+status,0]
  4157                           
  4158  0B01  1283               	bcf	3,5	;RP0=0, select bank0
  4159  0B02  1303               	bcf	3,6	;RP1=0, select bank0
  4160  0B03  01B0               	clrf	___wmul@product
  4161  0B04  01B1               	clrf	___wmul@product+1
  4162  0B05                     l1867:
  4163  0B05  1C2C               	btfss	___wmul@multiplier,0
  4164  0B06  2B08               	goto	u1021
  4165  0B07  2B09               	goto	u1020
  4166  0B08                     u1021:
  4167  0B08  2B0F               	goto	l394
  4168  0B09                     u1020:
  4169  0B09                     l1869:
  4170  0B09  082E               	movf	___wmul@multiplicand,w
  4171  0B0A  07B0               	addwf	___wmul@product,f
  4172  0B0B  1803               	skipnc
  4173  0B0C  0AB1               	incf	___wmul@product+1,f
  4174  0B0D  082F               	movf	___wmul@multiplicand+1,w
  4175  0B0E  07B1               	addwf	___wmul@product+1,f
  4176  0B0F                     l394:
  4177  0B0F  3001               	movlw	1
  4178  0B10                     u1035:
  4179  0B10  1003               	clrc
  4180  0B11  0DAE               	rlf	___wmul@multiplicand,f
  4181  0B12  0DAF               	rlf	___wmul@multiplicand+1,f
  4182  0B13  3EFF               	addlw	-1
  4183  0B14  1D03               	skipz
  4184  0B15  2B10               	goto	u1035
  4185  0B16                     l1871:
  4186  0B16  3001               	movlw	1
  4187  0B17                     u1045:
  4188  0B17  1003               	clrc
  4189  0B18  0CAD               	rrf	___wmul@multiplier+1,f
  4190  0B19  0CAC               	rrf	___wmul@multiplier,f
  4191  0B1A  3EFF               	addlw	-1
  4192  0B1B  1D03               	skipz
  4193  0B1C  2B17               	goto	u1045
  4194  0B1D                     l1873:
  4195  0B1D  082C               	movf	___wmul@multiplier,w
  4196  0B1E  042D               	iorwf	___wmul@multiplier+1,w
  4197  0B1F  1D03               	btfss	3,2
  4198  0B20  2B22               	goto	u1051
  4199  0B21  2B23               	goto	u1050
  4200  0B22                     u1051:
  4201  0B22  2B05               	goto	l1867
  4202  0B23                     u1050:
  4203  0B23                     l1875:
  4204  0B23  0831               	movf	___wmul@product+1,w
  4205  0B24  00AD               	movwf	?___wmul+1
  4206  0B25  0830               	movf	___wmul@product,w
  4207  0B26  00AC               	movwf	?___wmul
  4208  0B27                     l396:
  4209  0B27  0008               	return
  4210  0B28                     __end_of___wmul:
  4211                           
  4212                           	psect	text17
  4213  0E04                     __ptext17:	
  4214 ;; *************** function ___awmod *****************
  4215 ;; Defined at:
  4216 ;;		line 5 in file "C:\Program Files\Microchip\xc8\v2.32\pic\sources\c90\common\awmod.c"
  4217 ;; Parameters:    Size  Location     Type
  4218 ;;  divisor         2   12[BANK0 ] int 
  4219 ;;  dividend        2   14[BANK0 ] int 
  4220 ;; Auto vars:     Size  Location     Type
  4221 ;;  sign            1   18[BANK0 ] unsigned char 
  4222 ;;  counter         1   17[BANK0 ] unsigned char 
  4223 ;; Return value:  Size  Location     Type
  4224 ;;                  2   12[BANK0 ] int 
  4225 ;; Registers used:
  4226 ;;		wreg, status,2, status,0
  4227 ;; Tracked objects:
  4228 ;;		On entry : 0/0
  4229 ;;		On exit  : 0/0
  4230 ;;		Unchanged: 0/0
  4231 ;; Data sizes:     COMMON   BANK0   BANK1   BANK3   BANK2
  4232 ;;      Params:         0       4       0       0       0
  4233 ;;      Locals:         0       2       0       0       0
  4234 ;;      Temps:          0       1       0       0       0
  4235 ;;      Totals:         0       7       0       0       0
  4236 ;;Total ram usage:        7 bytes
  4237 ;; Hardware stack levels used: 1
  4238 ;; Hardware stack levels required when called: 4
  4239 ;; This function calls:
  4240 ;;		Nothing
  4241 ;; This function is called by:
  4242 ;;		_DEC_2_BCD
  4243 ;;		_LCDNUM
  4244 ;; This function uses a non-reentrant model
  4245 ;;
  4246                           
  4247                           
  4248                           ;psect for function ___awmod
  4249  0E04                     ___awmod:
  4250  0E04                     l1923:	
  4251                           ;incstack = 0
  4252                           ; Regs used in ___awmod: [wreg+status,2+status,0]
  4253                           
  4254  0E04  1283               	bcf	3,5	;RP0=0, select bank0
  4255  0E05  1303               	bcf	3,6	;RP1=0, select bank0
  4256  0E06  01B2               	clrf	___awmod@sign
  4257  0E07                     l1925:
  4258  0E07  1FAF               	btfss	___awmod@dividend+1,7
  4259  0E08  2E0A               	goto	u1161
  4260  0E09  2E0B               	goto	u1160
  4261  0E0A                     u1161:
  4262  0E0A  2E12               	goto	l1931
  4263  0E0B                     u1160:
  4264  0E0B                     l1927:
  4265  0E0B  09AE               	comf	___awmod@dividend,f
  4266  0E0C  09AF               	comf	___awmod@dividend+1,f
  4267  0E0D  0AAE               	incf	___awmod@dividend,f
  4268  0E0E  1903               	skipnz
  4269  0E0F  0AAF               	incf	___awmod@dividend+1,f
  4270  0E10                     l1929:
  4271  0E10  01B2               	clrf	___awmod@sign
  4272  0E11  0AB2               	incf	___awmod@sign,f
  4273  0E12                     l1931:
  4274  0E12  1FAD               	btfss	___awmod@divisor+1,7
  4275  0E13  2E15               	goto	u1171
  4276  0E14  2E16               	goto	u1170
  4277  0E15                     u1171:
  4278  0E15  2E1B               	goto	l1935
  4279  0E16                     u1170:
  4280  0E16                     l1933:
  4281  0E16  09AC               	comf	___awmod@divisor,f
  4282  0E17  09AD               	comf	___awmod@divisor+1,f
  4283  0E18  0AAC               	incf	___awmod@divisor,f
  4284  0E19  1903               	skipnz
  4285  0E1A  0AAD               	incf	___awmod@divisor+1,f
  4286  0E1B                     l1935:
  4287  0E1B  082C               	movf	___awmod@divisor,w
  4288  0E1C  042D               	iorwf	___awmod@divisor+1,w
  4289  0E1D  1903               	btfsc	3,2
  4290  0E1E  2E20               	goto	u1181
  4291  0E1F  2E21               	goto	u1180
  4292  0E20                     u1181:
  4293  0E20  2E50               	goto	l1953
  4294  0E21                     u1180:
  4295  0E21                     l1937:
  4296  0E21  01B1               	clrf	___awmod@counter
  4297  0E22  0AB1               	incf	___awmod@counter,f
  4298  0E23  2E2F               	goto	l1943
  4299  0E24                     l1939:
  4300  0E24  3001               	movlw	1
  4301  0E25                     u1195:
  4302  0E25  1003               	clrc
  4303  0E26  0DAC               	rlf	___awmod@divisor,f
  4304  0E27  0DAD               	rlf	___awmod@divisor+1,f
  4305  0E28  3EFF               	addlw	-1
  4306  0E29  1D03               	skipz
  4307  0E2A  2E25               	goto	u1195
  4308  0E2B                     l1941:
  4309  0E2B  3001               	movlw	1
  4310  0E2C  00B0               	movwf	??___awmod
  4311  0E2D  0830               	movf	??___awmod,w
  4312  0E2E  07B1               	addwf	___awmod@counter,f
  4313  0E2F                     l1943:
  4314  0E2F  1FAD               	btfss	___awmod@divisor+1,7
  4315  0E30  2E32               	goto	u1201
  4316  0E31  2E33               	goto	u1200
  4317  0E32                     u1201:
  4318  0E32  2E24               	goto	l1939
  4319  0E33                     u1200:
  4320  0E33                     l1945:
  4321  0E33  082D               	movf	___awmod@divisor+1,w
  4322  0E34  022F               	subwf	___awmod@dividend+1,w
  4323  0E35  1D03               	skipz
  4324  0E36  2E39               	goto	u1215
  4325  0E37  082C               	movf	___awmod@divisor,w
  4326  0E38  022E               	subwf	___awmod@dividend,w
  4327  0E39                     u1215:
  4328  0E39  1C03               	skipc
  4329  0E3A  2E3C               	goto	u1211
  4330  0E3B  2E3D               	goto	u1210
  4331  0E3C                     u1211:
  4332  0E3C  2E43               	goto	l1949
  4333  0E3D                     u1210:
  4334  0E3D                     l1947:
  4335  0E3D  082C               	movf	___awmod@divisor,w
  4336  0E3E  02AE               	subwf	___awmod@dividend,f
  4337  0E3F  082D               	movf	___awmod@divisor+1,w
  4338  0E40  1C03               	skipc
  4339  0E41  03AF               	decf	___awmod@dividend+1,f
  4340  0E42  02AF               	subwf	___awmod@dividend+1,f
  4341  0E43                     l1949:
  4342  0E43  3001               	movlw	1
  4343  0E44                     u1225:
  4344  0E44  1003               	clrc
  4345  0E45  0CAD               	rrf	___awmod@divisor+1,f
  4346  0E46  0CAC               	rrf	___awmod@divisor,f
  4347  0E47  3EFF               	addlw	-1
  4348  0E48  1D03               	skipz
  4349  0E49  2E44               	goto	u1225
  4350  0E4A                     l1951:
  4351  0E4A  3001               	movlw	1
  4352  0E4B  02B1               	subwf	___awmod@counter,f
  4353  0E4C  1D03               	btfss	3,2
  4354  0E4D  2E4F               	goto	u1231
  4355  0E4E  2E50               	goto	u1230
  4356  0E4F                     u1231:
  4357  0E4F  2E33               	goto	l1945
  4358  0E50                     u1230:
  4359  0E50                     l1953:
  4360  0E50  0832               	movf	___awmod@sign,w
  4361  0E51  1903               	btfsc	3,2
  4362  0E52  2E54               	goto	u1241
  4363  0E53  2E55               	goto	u1240
  4364  0E54                     u1241:
  4365  0E54  2E5A               	goto	l1957
  4366  0E55                     u1240:
  4367  0E55                     l1955:
  4368  0E55  09AE               	comf	___awmod@dividend,f
  4369  0E56  09AF               	comf	___awmod@dividend+1,f
  4370  0E57  0AAE               	incf	___awmod@dividend,f
  4371  0E58  1903               	skipnz
  4372  0E59  0AAF               	incf	___awmod@dividend+1,f
  4373  0E5A                     l1957:
  4374  0E5A  082F               	movf	___awmod@dividend+1,w
  4375  0E5B  00AD               	movwf	?___awmod+1
  4376  0E5C  082E               	movf	___awmod@dividend,w
  4377  0E5D  00AC               	movwf	?___awmod
  4378  0E5E                     l560:
  4379  0E5E  0008               	return
  4380  0E5F                     __end_of___awmod:
  4381                           
  4382                           	psect	text18
  4383  0F2E                     __ptext18:	
  4384 ;; *************** function ___awdiv *****************
  4385 ;; Defined at:
  4386 ;;		line 5 in file "C:\Program Files\Microchip\xc8\v2.32\pic\sources\c90\common\awdiv.c"
  4387 ;; Parameters:    Size  Location     Type
  4388 ;;  divisor         2   12[BANK0 ] int 
  4389 ;;  dividend        2   14[BANK0 ] int 
  4390 ;; Auto vars:     Size  Location     Type
  4391 ;;  quotient        2   19[BANK0 ] int 
  4392 ;;  sign            1   18[BANK0 ] unsigned char 
  4393 ;;  counter         1   17[BANK0 ] unsigned char 
  4394 ;; Return value:  Size  Location     Type
  4395 ;;                  2   12[BANK0 ] int 
  4396 ;; Registers used:
  4397 ;;		wreg, status,2, status,0
  4398 ;; Tracked objects:
  4399 ;;		On entry : 0/0
  4400 ;;		On exit  : 0/0
  4401 ;;		Unchanged: 0/0
  4402 ;; Data sizes:     COMMON   BANK0   BANK1   BANK3   BANK2
  4403 ;;      Params:         0       4       0       0       0
  4404 ;;      Locals:         0       4       0       0       0
  4405 ;;      Temps:          0       1       0       0       0
  4406 ;;      Totals:         0       9       0       0       0
  4407 ;;Total ram usage:        9 bytes
  4408 ;; Hardware stack levels used: 1
  4409 ;; Hardware stack levels required when called: 4
  4410 ;; This function calls:
  4411 ;;		Nothing
  4412 ;; This function is called by:
  4413 ;;		_DEC_2_BCD
  4414 ;;		_LCDNUM
  4415 ;; This function uses a non-reentrant model
  4416 ;;
  4417                           
  4418                           
  4419                           ;psect for function ___awdiv
  4420  0F2E                     ___awdiv:
  4421  0F2E                     l1879:	
  4422                           ;incstack = 0
  4423                           ; Regs used in ___awdiv: [wreg+status,2+status,0]
  4424                           
  4425  0F2E  1283               	bcf	3,5	;RP0=0, select bank0
  4426  0F2F  1303               	bcf	3,6	;RP1=0, select bank0
  4427  0F30  01B2               	clrf	___awdiv@sign
  4428  0F31                     l1881:
  4429  0F31  1FAD               	btfss	___awdiv@divisor+1,7
  4430  0F32  2F34               	goto	u1061
  4431  0F33  2F35               	goto	u1060
  4432  0F34                     u1061:
  4433  0F34  2F3C               	goto	l1887
  4434  0F35                     u1060:
  4435  0F35                     l1883:
  4436  0F35  09AC               	comf	___awdiv@divisor,f
  4437  0F36  09AD               	comf	___awdiv@divisor+1,f
  4438  0F37  0AAC               	incf	___awdiv@divisor,f
  4439  0F38  1903               	skipnz
  4440  0F39  0AAD               	incf	___awdiv@divisor+1,f
  4441  0F3A                     l1885:
  4442  0F3A  01B2               	clrf	___awdiv@sign
  4443  0F3B  0AB2               	incf	___awdiv@sign,f
  4444  0F3C                     l1887:
  4445  0F3C  1FAF               	btfss	___awdiv@dividend+1,7
  4446  0F3D  2F3F               	goto	u1071
  4447  0F3E  2F40               	goto	u1070
  4448  0F3F                     u1071:
  4449  0F3F  2F49               	goto	l1893
  4450  0F40                     u1070:
  4451  0F40                     l1889:
  4452  0F40  09AE               	comf	___awdiv@dividend,f
  4453  0F41  09AF               	comf	___awdiv@dividend+1,f
  4454  0F42  0AAE               	incf	___awdiv@dividend,f
  4455  0F43  1903               	skipnz
  4456  0F44  0AAF               	incf	___awdiv@dividend+1,f
  4457  0F45                     l1891:
  4458  0F45  3001               	movlw	1
  4459  0F46  00B0               	movwf	??___awdiv
  4460  0F47  0830               	movf	??___awdiv,w
  4461  0F48  06B2               	xorwf	___awdiv@sign,f
  4462  0F49                     l1893:
  4463  0F49  01B3               	clrf	___awdiv@quotient
  4464  0F4A  01B4               	clrf	___awdiv@quotient+1
  4465  0F4B                     l1895:
  4466  0F4B  082C               	movf	___awdiv@divisor,w
  4467  0F4C  042D               	iorwf	___awdiv@divisor+1,w
  4468  0F4D  1903               	btfsc	3,2
  4469  0F4E  2F50               	goto	u1081
  4470  0F4F  2F51               	goto	u1080
  4471  0F50                     u1081:
  4472  0F50  2F88               	goto	l1915
  4473  0F51                     u1080:
  4474  0F51                     l1897:
  4475  0F51  01B1               	clrf	___awdiv@counter
  4476  0F52  0AB1               	incf	___awdiv@counter,f
  4477  0F53  2F5F               	goto	l1903
  4478  0F54                     l1899:
  4479  0F54  3001               	movlw	1
  4480  0F55                     u1095:
  4481  0F55  1003               	clrc
  4482  0F56  0DAC               	rlf	___awdiv@divisor,f
  4483  0F57  0DAD               	rlf	___awdiv@divisor+1,f
  4484  0F58  3EFF               	addlw	-1
  4485  0F59  1D03               	skipz
  4486  0F5A  2F55               	goto	u1095
  4487  0F5B                     l1901:
  4488  0F5B  3001               	movlw	1
  4489  0F5C  00B0               	movwf	??___awdiv
  4490  0F5D  0830               	movf	??___awdiv,w
  4491  0F5E  07B1               	addwf	___awdiv@counter,f
  4492  0F5F                     l1903:
  4493  0F5F  1FAD               	btfss	___awdiv@divisor+1,7
  4494  0F60  2F62               	goto	u1101
  4495  0F61  2F63               	goto	u1100
  4496  0F62                     u1101:
  4497  0F62  2F54               	goto	l1899
  4498  0F63                     u1100:
  4499  0F63                     l1905:
  4500  0F63  3001               	movlw	1
  4501  0F64                     u1115:
  4502  0F64  1003               	clrc
  4503  0F65  0DB3               	rlf	___awdiv@quotient,f
  4504  0F66  0DB4               	rlf	___awdiv@quotient+1,f
  4505  0F67  3EFF               	addlw	-1
  4506  0F68  1D03               	skipz
  4507  0F69  2F64               	goto	u1115
  4508  0F6A  082D               	movf	___awdiv@divisor+1,w
  4509  0F6B  022F               	subwf	___awdiv@dividend+1,w
  4510  0F6C  1D03               	skipz
  4511  0F6D  2F70               	goto	u1125
  4512  0F6E  082C               	movf	___awdiv@divisor,w
  4513  0F6F  022E               	subwf	___awdiv@dividend,w
  4514  0F70                     u1125:
  4515  0F70  1C03               	skipc
  4516  0F71  2F73               	goto	u1121
  4517  0F72  2F74               	goto	u1120
  4518  0F73                     u1121:
  4519  0F73  2F7B               	goto	l1911
  4520  0F74                     u1120:
  4521  0F74                     l1907:
  4522  0F74  082C               	movf	___awdiv@divisor,w
  4523  0F75  02AE               	subwf	___awdiv@dividend,f
  4524  0F76  082D               	movf	___awdiv@divisor+1,w
  4525  0F77  1C03               	skipc
  4526  0F78  03AF               	decf	___awdiv@dividend+1,f
  4527  0F79  02AF               	subwf	___awdiv@dividend+1,f
  4528  0F7A                     l1909:
  4529  0F7A  1433               	bsf	___awdiv@quotient,0
  4530  0F7B                     l1911:
  4531  0F7B  3001               	movlw	1
  4532  0F7C                     u1135:
  4533  0F7C  1003               	clrc
  4534  0F7D  0CAD               	rrf	___awdiv@divisor+1,f
  4535  0F7E  0CAC               	rrf	___awdiv@divisor,f
  4536  0F7F  3EFF               	addlw	-1
  4537  0F80  1D03               	skipz
  4538  0F81  2F7C               	goto	u1135
  4539  0F82                     l1913:
  4540  0F82  3001               	movlw	1
  4541  0F83  02B1               	subwf	___awdiv@counter,f
  4542  0F84  1D03               	btfss	3,2
  4543  0F85  2F87               	goto	u1141
  4544  0F86  2F88               	goto	u1140
  4545  0F87                     u1141:
  4546  0F87  2F63               	goto	l1905
  4547  0F88                     u1140:
  4548  0F88                     l1915:
  4549  0F88  0832               	movf	___awdiv@sign,w
  4550  0F89  1903               	btfsc	3,2
  4551  0F8A  2F8C               	goto	u1151
  4552  0F8B  2F8D               	goto	u1150
  4553  0F8C                     u1151:
  4554  0F8C  2F92               	goto	l1919
  4555  0F8D                     u1150:
  4556  0F8D                     l1917:
  4557  0F8D  09B3               	comf	___awdiv@quotient,f
  4558  0F8E  09B4               	comf	___awdiv@quotient+1,f
  4559  0F8F  0AB3               	incf	___awdiv@quotient,f
  4560  0F90  1903               	skipnz
  4561  0F91  0AB4               	incf	___awdiv@quotient+1,f
  4562  0F92                     l1919:
  4563  0F92  0834               	movf	___awdiv@quotient+1,w
  4564  0F93  00AD               	movwf	?___awdiv+1
  4565  0F94  0833               	movf	___awdiv@quotient,w
  4566  0F95  00AC               	movwf	?___awdiv
  4567  0F96                     l547:
  4568  0F96  0008               	return
  4569  0F97                     __end_of___awdiv:
  4570                           
  4571                           	psect	text19
  4572  0B28                     __ptext19:	
  4573 ;; *************** function _LCDCHAR *****************
  4574 ;; Defined at:
  4575 ;;		line 55 in file "./LCDLIBRARY1.h"
  4576 ;; Parameters:    Size  Location     Type
  4577 ;;  character       1    wreg     unsigned char 
  4578 ;; Auto vars:     Size  Location     Type
  4579 ;;  character       1   18[BANK0 ] unsigned char 
  4580 ;;  j               1   17[BANK0 ] unsigned char 
  4581 ;;  k               1   16[BANK0 ] unsigned char 
  4582 ;; Return value:  Size  Location     Type
  4583 ;;                  1    wreg      void 
  4584 ;; Registers used:
  4585 ;;		wreg, status,2, status,0, pclath, cstack
  4586 ;; Tracked objects:
  4587 ;;		On entry : 0/0
  4588 ;;		On exit  : 0/0
  4589 ;;		Unchanged: 0/0
  4590 ;; Data sizes:     COMMON   BANK0   BANK1   BANK3   BANK2
  4591 ;;      Params:         0       0       0       0       0
  4592 ;;      Locals:         0       3       0       0       0
  4593 ;;      Temps:          0       2       0       0       0
  4594 ;;      Totals:         0       5       0       0       0
  4595 ;;Total ram usage:        5 bytes
  4596 ;; Hardware stack levels used: 1
  4597 ;; Hardware stack levels required when called: 6
  4598 ;; This function calls:
  4599 ;;		_CLOCK
  4600 ;; This function is called by:
  4601 ;;		_LCDNUM
  4602 ;; This function uses a non-reentrant model
  4603 ;;
  4604                           
  4605                           
  4606                           ;psect for function _LCDCHAR
  4607  0B28                     _LCDCHAR:
  4608                           
  4609                           ;incstack = 0
  4610                           ; Regs used in _LCDCHAR: [wreg+status,2+status,0+pclath+cstack]
  4611                           ;LCDCHAR@character stored from wreg
  4612  0B28  1283               	bcf	3,5	;RP0=0, select bank0
  4613  0B29  1303               	bcf	3,6	;RP1=0, select bank0
  4614  0B2A  00B2               	movwf	LCDCHAR@character
  4615  0B2B                     l2101:
  4616                           
  4617                           ;./LCDLIBRARY1.h: 56:     unsigned char k = (0x0f&(character>>4)) ;
  4618  0B2B  0832               	movf	LCDCHAR@character,w
  4619  0B2C  00AE               	movwf	??_LCDCHAR
  4620  0B2D  3004               	movlw	4
  4621  0B2E                     u1485:
  4622  0B2E  1003               	clrc
  4623  0B2F  0CAE               	rrf	??_LCDCHAR,f
  4624  0B30  3EFF               	addlw	-1
  4625  0B31  1D03               	skipz
  4626  0B32  2B2E               	goto	u1485
  4627  0B33  082E               	movf	??_LCDCHAR,w
  4628  0B34  390F               	andlw	15
  4629  0B35  00AF               	movwf	??_LCDCHAR+1
  4630  0B36  082F               	movf	??_LCDCHAR+1,w
  4631  0B37  00B0               	movwf	LCDCHAR@k
  4632  0B38                     l2103:
  4633                           
  4634                           ;./LCDLIBRARY1.h: 57:     unsigned char j = ( 0x0f&character );
  4635  0B38  0832               	movf	LCDCHAR@character,w
  4636  0B39  390F               	andlw	15
  4637  0B3A  00AE               	movwf	??_LCDCHAR
  4638  0B3B  082E               	movf	??_LCDCHAR,w
  4639  0B3C  00B1               	movwf	LCDCHAR@j
  4640  0B3D                     l2105:
  4641                           
  4642                           ;./LCDLIBRARY1.h: 58:     PORTBbits.RB4 =1;
  4643  0B3D  1606               	bsf	6,4	;volatile
  4644  0B3E                     l2107:
  4645                           
  4646                           ;./LCDLIBRARY1.h: 59:     PORTB=k|PORTB & 0xf0;
  4647  0B3E  0806               	movf	6,w	;volatile
  4648  0B3F  39F0               	andlw	240
  4649  0B40  0430               	iorwf	LCDCHAR@k,w
  4650  0B41  0086               	movwf	6	;volatile
  4651  0B42                     l2109:
  4652                           
  4653                           ;./LCDLIBRARY1.h: 60:     CLOCK();
  4654  0B42  120A  158A  229C  120A  158A  	fcall	_CLOCK
  4655  0B47                     l2111:
  4656                           
  4657                           ;./LCDLIBRARY1.h: 61:     PORTB=j|PORTB & 0xf0;
  4658  0B47  1283               	bcf	3,5	;RP0=0, select bank0
  4659  0B48  1303               	bcf	3,6	;RP1=0, select bank0
  4660  0B49  0806               	movf	6,w	;volatile
  4661  0B4A  39F0               	andlw	240
  4662  0B4B  0431               	iorwf	LCDCHAR@j,w
  4663  0B4C  0086               	movwf	6	;volatile
  4664  0B4D                     l2113:
  4665                           
  4666                           ;./LCDLIBRARY1.h: 62:     CLOCK();
  4667  0B4D  120A  158A  229C  120A  158A  	fcall	_CLOCK
  4668  0B52                     l164:
  4669  0B52  0008               	return
  4670  0B53                     __end_of_LCDCHAR:
  4671                           
  4672                           	psect	text20
  4673  0BE5                     __ptext20:	
  4674 ;; *************** function _I2C_Initialize *****************
  4675 ;; Defined at:
  4676 ;;		line 10 in file "./PIC16F877a_I2C.h"
  4677 ;; Parameters:    Size  Location     Type
  4678 ;;  feq_K           4   26[BANK0 ] const unsigned long 
  4679 ;; Auto vars:     Size  Location     Type
  4680 ;;		None
  4681 ;; Return value:  Size  Location     Type
  4682 ;;                  1    wreg      void 
  4683 ;; Registers used:
  4684 ;;		wreg, status,2, status,0, pclath, cstack
  4685 ;; Tracked objects:
  4686 ;;		On entry : 0/0
  4687 ;;		On exit  : 0/0
  4688 ;;		Unchanged: 0/0
  4689 ;; Data sizes:     COMMON   BANK0   BANK1   BANK3   BANK2
  4690 ;;      Params:         0       4       0       0       0
  4691 ;;      Locals:         0       0       0       0       0
  4692 ;;      Temps:          0       4       0       0       0
  4693 ;;      Totals:         0       8       0       0       0
  4694 ;;Total ram usage:        8 bytes
  4695 ;; Hardware stack levels used: 1
  4696 ;; Hardware stack levels required when called: 5
  4697 ;; This function calls:
  4698 ;;		___lldiv
  4699 ;; This function is called by:
  4700 ;;		_main
  4701 ;; This function uses a non-reentrant model
  4702 ;;
  4703                           
  4704                           
  4705                           ;psect for function _I2C_Initialize
  4706  0BE5                     _I2C_Initialize:
  4707  0BE5                     l2203:	
  4708                           ;incstack = 0
  4709                           ; Regs used in _I2C_Initialize: [wreg+status,2+status,0+pclath+cstack]
  4710                           
  4711                           
  4712                           ;./PIC16F877a_I2C.h: 10: void I2C_Initialize(const unsigned long feq_K);./PIC16F877a_I2C
      +                          .h: 11: {;./PIC16F877a_I2C.h: 12:   SSPCON = 0b00101000;
  4713  0BE5  3028               	movlw	40
  4714  0BE6  1283               	bcf	3,5	;RP0=0, select bank0
  4715  0BE7  1303               	bcf	3,6	;RP1=0, select bank0
  4716  0BE8  0094               	movwf	20	;volatile
  4717  0BE9                     l2205:
  4718                           
  4719                           ;./PIC16F877a_I2C.h: 13:   SSPCON2 = 0b00000000;
  4720  0BE9  1683               	bsf	3,5	;RP0=1, select bank1
  4721  0BEA  1303               	bcf	3,6	;RP1=0, select bank1
  4722  0BEB  0191               	clrf	17	;volatile
  4723  0BEC                     l2207:
  4724                           
  4725                           ;./PIC16F877a_I2C.h: 14:   SSPSTAT = 0b00000000;
  4726  0BEC  0194               	clrf	20	;volatile
  4727  0BED                     l2209:
  4728                           
  4729                           ;./PIC16F877a_I2C.h: 15:   SSPADD = (20000000/(4*feq_K))-1;
  4730  0BED  1283               	bcf	3,5	;RP0=0, select bank0
  4731  0BEE  1303               	bcf	3,6	;RP1=0, select bank0
  4732  0BEF  083A               	movf	I2C_Initialize@feq_K,w
  4733  0BF0  00BE               	movwf	??_I2C_Initialize
  4734  0BF1  083B               	movf	I2C_Initialize@feq_K+1,w
  4735  0BF2  00BF               	movwf	??_I2C_Initialize+1
  4736  0BF3  083C               	movf	I2C_Initialize@feq_K+2,w
  4737  0BF4  00C0               	movwf	??_I2C_Initialize+2
  4738  0BF5  083D               	movf	I2C_Initialize@feq_K+3,w
  4739  0BF6  00C1               	movwf	??_I2C_Initialize+3
  4740  0BF7  3002               	movlw	2
  4741  0BF8                     u1595:
  4742  0BF8  1003               	clrc
  4743  0BF9  0DBE               	rlf	??_I2C_Initialize,f
  4744  0BFA  0DBF               	rlf	??_I2C_Initialize+1,f
  4745  0BFB  0DC0               	rlf	??_I2C_Initialize+2,f
  4746  0BFC  0DC1               	rlf	??_I2C_Initialize+3,f
  4747  0BFD                     u1590:
  4748  0BFD  3EFF               	addlw	-1
  4749  0BFE  1D03               	skipz
  4750  0BFF  2BF8               	goto	u1595
  4751  0C00  0841               	movf	??_I2C_Initialize+3,w
  4752  0C01  00AF               	movwf	___lldiv@divisor+3
  4753  0C02  0840               	movf	??_I2C_Initialize+2,w
  4754  0C03  00AE               	movwf	___lldiv@divisor+2
  4755  0C04  083F               	movf	??_I2C_Initialize+1,w
  4756  0C05  00AD               	movwf	___lldiv@divisor+1
  4757  0C06  083E               	movf	??_I2C_Initialize,w
  4758  0C07  00AC               	movwf	___lldiv@divisor
  4759  0C08  3001               	movlw	1
  4760  0C09  00B3               	movwf	___lldiv@dividend+3
  4761  0C0A  3031               	movlw	49
  4762  0C0B  00B2               	movwf	___lldiv@dividend+2
  4763  0C0C  302D               	movlw	45
  4764  0C0D  00B1               	movwf	___lldiv@dividend+1
  4765  0C0E  3000               	movlw	0
  4766  0C0F  00B0               	movwf	___lldiv@dividend
  4767  0C10  120A  158A  26C6  120A  158A  	fcall	___lldiv
  4768  0C15  1283               	bcf	3,5	;RP0=0, select bank0
  4769  0C16  1303               	bcf	3,6	;RP1=0, select bank0
  4770  0C17  082C               	movf	?___lldiv,w
  4771  0C18  3EFF               	addlw	255
  4772  0C19  1683               	bsf	3,5	;RP0=1, select bank1
  4773  0C1A  1303               	bcf	3,6	;RP1=0, select bank1
  4774  0C1B  0093               	movwf	19	;volatile
  4775  0C1C                     l2211:
  4776                           
  4777                           ;./PIC16F877a_I2C.h: 16:   TRISC3 = 1; TRISC4 = 1;
  4778  0C1C  1587               	bsf	7,3	;volatile
  4779  0C1D                     l2213:
  4780  0C1D  1607               	bsf	7,4	;volatile
  4781  0C1E                     l109:
  4782  0C1E  0008               	return
  4783  0C1F                     __end_of_I2C_Initialize:
  4784                           
  4785                           	psect	text21
  4786  0EC6                     __ptext21:	
  4787 ;; *************** function ___lldiv *****************
  4788 ;; Defined at:
  4789 ;;		line 5 in file "C:\Program Files\Microchip\xc8\v2.32\pic\sources\c90\common\__lldiv.c"
  4790 ;; Parameters:    Size  Location     Type
  4791 ;;  divisor         4   12[BANK0 ] unsigned long 
  4792 ;;  dividend        4   16[BANK0 ] unsigned long 
  4793 ;; Auto vars:     Size  Location     Type
  4794 ;;  quotient        4   21[BANK0 ] unsigned long 
  4795 ;;  counter         1   25[BANK0 ] unsigned char 
  4796 ;; Return value:  Size  Location     Type
  4797 ;;                  4   12[BANK0 ] unsigned long 
  4798 ;; Registers used:
  4799 ;;		wreg, status,2, status,0
  4800 ;; Tracked objects:
  4801 ;;		On entry : 0/0
  4802 ;;		On exit  : 0/0
  4803 ;;		Unchanged: 0/0
  4804 ;; Data sizes:     COMMON   BANK0   BANK1   BANK3   BANK2
  4805 ;;      Params:         0       8       0       0       0
  4806 ;;      Locals:         0       5       0       0       0
  4807 ;;      Temps:          0       1       0       0       0
  4808 ;;      Totals:         0      14       0       0       0
  4809 ;;Total ram usage:       14 bytes
  4810 ;; Hardware stack levels used: 1
  4811 ;; Hardware stack levels required when called: 4
  4812 ;; This function calls:
  4813 ;;		Nothing
  4814 ;; This function is called by:
  4815 ;;		_I2C_Initialize
  4816 ;; This function uses a non-reentrant model
  4817 ;;
  4818                           
  4819                           
  4820                           ;psect for function ___lldiv
  4821  0EC6                     ___lldiv:
  4822  0EC6                     l2155:	
  4823                           ;incstack = 0
  4824                           ; Regs used in ___lldiv: [wreg+status,2+status,0]
  4825                           
  4826  0EC6  3000               	movlw	0
  4827  0EC7  1283               	bcf	3,5	;RP0=0, select bank0
  4828  0EC8  1303               	bcf	3,6	;RP1=0, select bank0
  4829  0EC9  00B8               	movwf	___lldiv@quotient+3
  4830  0ECA  3000               	movlw	0
  4831  0ECB  00B7               	movwf	___lldiv@quotient+2
  4832  0ECC  3000               	movlw	0
  4833  0ECD  00B6               	movwf	___lldiv@quotient+1
  4834  0ECE  3000               	movlw	0
  4835  0ECF  00B5               	movwf	___lldiv@quotient
  4836  0ED0  082F               	movf	___lldiv@divisor+3,w
  4837  0ED1  042E               	iorwf	___lldiv@divisor+2,w
  4838  0ED2  042D               	iorwf	___lldiv@divisor+1,w
  4839  0ED3  042C               	iorwf	___lldiv@divisor,w
  4840  0ED4  1903               	skipnz
  4841  0ED5  2ED7               	goto	u1521
  4842  0ED6  2ED8               	goto	u1520
  4843  0ED7                     u1521:
  4844  0ED7  2F25               	goto	l2175
  4845  0ED8                     u1520:
  4846  0ED8                     l2157:
  4847  0ED8  01B9               	clrf	___lldiv@counter
  4848  0ED9  0AB9               	incf	___lldiv@counter,f
  4849  0EDA  2EE8               	goto	l2161
  4850  0EDB                     l2159:
  4851  0EDB  3001               	movlw	1
  4852  0EDC  00B4               	movwf	??___lldiv
  4853  0EDD                     u1535:
  4854  0EDD  1003               	clrc
  4855  0EDE  0DAC               	rlf	___lldiv@divisor,f
  4856  0EDF  0DAD               	rlf	___lldiv@divisor+1,f
  4857  0EE0  0DAE               	rlf	___lldiv@divisor+2,f
  4858  0EE1  0DAF               	rlf	___lldiv@divisor+3,f
  4859  0EE2  0BB4               	decfsz	??___lldiv,f
  4860  0EE3  2EDD               	goto	u1535
  4861  0EE4  3001               	movlw	1
  4862  0EE5  00B4               	movwf	??___lldiv
  4863  0EE6  0834               	movf	??___lldiv,w
  4864  0EE7  07B9               	addwf	___lldiv@counter,f
  4865  0EE8                     l2161:
  4866  0EE8  1FAF               	btfss	___lldiv@divisor+3,7
  4867  0EE9  2EEB               	goto	u1541
  4868  0EEA  2EEC               	goto	u1540
  4869  0EEB                     u1541:
  4870  0EEB  2EDB               	goto	l2159
  4871  0EEC                     u1540:
  4872  0EEC                     l2163:
  4873  0EEC  3001               	movlw	1
  4874  0EED  00B4               	movwf	??___lldiv
  4875  0EEE                     u1555:
  4876  0EEE  1003               	clrc
  4877  0EEF  0DB5               	rlf	___lldiv@quotient,f
  4878  0EF0  0DB6               	rlf	___lldiv@quotient+1,f
  4879  0EF1  0DB7               	rlf	___lldiv@quotient+2,f
  4880  0EF2  0DB8               	rlf	___lldiv@quotient+3,f
  4881  0EF3  0BB4               	decfsz	??___lldiv,f
  4882  0EF4  2EEE               	goto	u1555
  4883  0EF5                     l2165:
  4884  0EF5  082F               	movf	___lldiv@divisor+3,w
  4885  0EF6  0233               	subwf	___lldiv@dividend+3,w
  4886  0EF7  1D03               	skipz
  4887  0EF8  2F03               	goto	u1565
  4888  0EF9  082E               	movf	___lldiv@divisor+2,w
  4889  0EFA  0232               	subwf	___lldiv@dividend+2,w
  4890  0EFB  1D03               	skipz
  4891  0EFC  2F03               	goto	u1565
  4892  0EFD  082D               	movf	___lldiv@divisor+1,w
  4893  0EFE  0231               	subwf	___lldiv@dividend+1,w
  4894  0EFF  1D03               	skipz
  4895  0F00  2F03               	goto	u1565
  4896  0F01  082C               	movf	___lldiv@divisor,w
  4897  0F02  0230               	subwf	___lldiv@dividend,w
  4898  0F03                     u1565:
  4899  0F03  1C03               	skipc
  4900  0F04  2F06               	goto	u1561
  4901  0F05  2F07               	goto	u1560
  4902  0F06                     u1561:
  4903  0F06  2F16               	goto	l2171
  4904  0F07                     u1560:
  4905  0F07                     l2167:
  4906  0F07  082C               	movf	___lldiv@divisor,w
  4907  0F08  02B0               	subwf	___lldiv@dividend,f
  4908  0F09  082D               	movf	___lldiv@divisor+1,w
  4909  0F0A  1C03               	skipc
  4910  0F0B  0F2D               	incfsz	___lldiv@divisor+1,w
  4911  0F0C  02B1               	subwf	___lldiv@dividend+1,f
  4912  0F0D  082E               	movf	___lldiv@divisor+2,w
  4913  0F0E  1C03               	skipc
  4914  0F0F  0F2E               	incfsz	___lldiv@divisor+2,w
  4915  0F10  02B2               	subwf	___lldiv@dividend+2,f
  4916  0F11  082F               	movf	___lldiv@divisor+3,w
  4917  0F12  1C03               	skipc
  4918  0F13  0F2F               	incfsz	___lldiv@divisor+3,w
  4919  0F14  02B3               	subwf	___lldiv@dividend+3,f
  4920  0F15                     l2169:
  4921  0F15  1435               	bsf	___lldiv@quotient,0
  4922  0F16                     l2171:
  4923  0F16  3001               	movlw	1
  4924  0F17                     u1575:
  4925  0F17  1003               	clrc
  4926  0F18  0CAF               	rrf	___lldiv@divisor+3,f
  4927  0F19  0CAE               	rrf	___lldiv@divisor+2,f
  4928  0F1A  0CAD               	rrf	___lldiv@divisor+1,f
  4929  0F1B  0CAC               	rrf	___lldiv@divisor,f
  4930  0F1C  3EFF               	addlw	-1
  4931  0F1D  1D03               	skipz
  4932  0F1E  2F17               	goto	u1575
  4933  0F1F                     l2173:
  4934  0F1F  3001               	movlw	1
  4935  0F20  02B9               	subwf	___lldiv@counter,f
  4936  0F21  1D03               	btfss	3,2
  4937  0F22  2F24               	goto	u1581
  4938  0F23  2F25               	goto	u1580
  4939  0F24                     u1581:
  4940  0F24  2EEC               	goto	l2163
  4941  0F25                     u1580:
  4942  0F25                     l2175:
  4943  0F25  0838               	movf	___lldiv@quotient+3,w
  4944  0F26  00AF               	movwf	?___lldiv+3
  4945  0F27  0837               	movf	___lldiv@quotient+2,w
  4946  0F28  00AE               	movwf	?___lldiv+2
  4947  0F29  0836               	movf	___lldiv@quotient+1,w
  4948  0F2A  00AD               	movwf	?___lldiv+1
  4949  0F2B  0835               	movf	___lldiv@quotient,w
  4950  0F2C  00AC               	movwf	?___lldiv
  4951  0F2D                     l430:
  4952  0F2D  0008               	return
  4953  0F2E                     __end_of___lldiv:
  4954                           
  4955                           	psect	text22
  4956  0AC0                     __ptext22:	
  4957 ;; *************** function _CLRDISP *****************
  4958 ;; Defined at:
  4959 ;;		line 157 in file "./LCDLIBRARY1.h"
  4960 ;; Parameters:    Size  Location     Type
  4961 ;;		None
  4962 ;; Auto vars:     Size  Location     Type
  4963 ;;		None
  4964 ;; Return value:  Size  Location     Type
  4965 ;;                  1    wreg      void 
  4966 ;; Registers used:
  4967 ;;		wreg, status,2, status,0, pclath, cstack
  4968 ;; Tracked objects:
  4969 ;;		On entry : 0/0
  4970 ;;		On exit  : 0/0
  4971 ;;		Unchanged: 0/0
  4972 ;; Data sizes:     COMMON   BANK0   BANK1   BANK3   BANK2
  4973 ;;      Params:         0       0       0       0       0
  4974 ;;      Locals:         0       0       0       0       0
  4975 ;;      Temps:          0       0       0       0       0
  4976 ;;      Totals:         0       0       0       0       0
  4977 ;;Total ram usage:        0 bytes
  4978 ;; Hardware stack levels used: 1
  4979 ;; Hardware stack levels required when called: 6
  4980 ;; This function calls:
  4981 ;;		_CLOCK
  4982 ;;		_delay1
  4983 ;; This function is called by:
  4984 ;;		_main
  4985 ;; This function uses a non-reentrant model
  4986 ;;
  4987                           
  4988                           
  4989                           ;psect for function _CLRDISP
  4990  0AC0                     _CLRDISP:
  4991  0AC0                     l2241:	
  4992                           ;incstack = 0
  4993                           ; Regs used in _CLRDISP: [wreg+status,2+status,0+pclath+cstack]
  4994                           
  4995                           
  4996                           ;./LCDLIBRARY1.h: 159:     RB4 = RB6 = 0 ;
  4997  0AC0  1283               	bcf	3,5	;RP0=0, select bank0
  4998  0AC1  1303               	bcf	3,6	;RP1=0, select bank0
  4999  0AC2  1306               	bcf	6,6	;volatile
  5000  0AC3  1206               	bcf	6,4	;volatile
  5001  0AC4                     l2243:
  5002                           
  5003                           ;./LCDLIBRARY1.h: 160:     PORTB= 0 | PORTB & 0xf0;
  5004  0AC4  0806               	movf	6,w	;volatile
  5005  0AC5  39F0               	andlw	240
  5006  0AC6  0086               	movwf	6	;volatile
  5007  0AC7                     l2245:
  5008                           
  5009                           ;./LCDLIBRARY1.h: 161:     CLOCK();
  5010  0AC7  120A  158A  229C  120A  158A  	fcall	_CLOCK
  5011  0ACC                     l2247:
  5012                           
  5013                           ;./LCDLIBRARY1.h: 162:     PORTB= 0x1 | PORTB & 0xf0 ;
  5014  0ACC  1283               	bcf	3,5	;RP0=0, select bank0
  5015  0ACD  1303               	bcf	3,6	;RP1=0, select bank0
  5016  0ACE  0806               	movf	6,w	;volatile
  5017  0ACF  39F0               	andlw	240
  5018  0AD0  3801               	iorlw	1
  5019  0AD1  0086               	movwf	6	;volatile
  5020                           
  5021                           ;./LCDLIBRARY1.h: 163:     CLOCK();
  5022  0AD2  120A  158A  229C  120A  158A  	fcall	_CLOCK
  5023                           
  5024                           ;./LCDLIBRARY1.h: 164:     delay1();
  5025  0AD7  120A  158A  224C  120A  158A  	fcall	_delay1
  5026  0ADC                     l198:
  5027  0ADC  0008               	return
  5028  0ADD                     __end_of_CLRDISP:
  5029                           
  5030                           	psect	text23
  5031  0A4C                     __ptext23:	
  5032 ;; *************** function _delay1 *****************
  5033 ;; Defined at:
  5034 ;;		line 31 in file "./LCDLIBRARY1.h"
  5035 ;; Parameters:    Size  Location     Type
  5036 ;;		None
  5037 ;; Auto vars:     Size  Location     Type
  5038 ;;		None
  5039 ;; Return value:  Size  Location     Type
  5040 ;;                  1    wreg      void 
  5041 ;; Registers used:
  5042 ;;		wreg
  5043 ;; Tracked objects:
  5044 ;;		On entry : 0/0
  5045 ;;		On exit  : 0/0
  5046 ;;		Unchanged: 0/0
  5047 ;; Data sizes:     COMMON   BANK0   BANK1   BANK3   BANK2
  5048 ;;      Params:         0       0       0       0       0
  5049 ;;      Locals:         0       0       0       0       0
  5050 ;;      Temps:          0       2       0       0       0
  5051 ;;      Totals:         0       2       0       0       0
  5052 ;;Total ram usage:        2 bytes
  5053 ;; Hardware stack levels used: 1
  5054 ;; Hardware stack levels required when called: 4
  5055 ;; This function calls:
  5056 ;;		Nothing
  5057 ;; This function is called by:
  5058 ;;		_CLRDISP
  5059 ;;		_config
  5060 ;;		_SETCURSORTYPE
  5061 ;; This function uses a non-reentrant model
  5062 ;;
  5063                           
  5064                           
  5065                           ;psect for function _delay1
  5066  0A4C                     _delay1:
  5067  0A4C                     l2097:	
  5068                           ;incstack = 0
  5069                           ; Regs used in _delay1: [wreg]
  5070                           
  5071                           
  5072                           ;./LCDLIBRARY1.h: 33:     _delay((unsigned long)((5)*(20000000/4000.0)));
  5073  0A4C  3021               	movlw	33
  5074  0A4D  1283               	bcf	3,5	;RP0=0, select bank0
  5075  0A4E  1303               	bcf	3,6	;RP1=0, select bank0
  5076  0A4F  00AD               	movwf	??_delay1+1
  5077  0A50  3075               	movlw	117
  5078  0A51  00AC               	movwf	??_delay1
  5079  0A52                     u2427:
  5080  0A52  0BAC               	decfsz	??_delay1,f
  5081  0A53  2A52               	goto	u2427
  5082  0A54  0BAD               	decfsz	??_delay1+1,f
  5083  0A55  2A52               	goto	u2427
  5084  0A56  2A57               	nop2
  5085  0A57                     l155:
  5086  0A57  0008               	return
  5087  0A58                     __end_of_delay1:
  5088                           
  5089                           	psect	text24
  5090  0C59                     __ptext24:	
  5091 ;; *************** function _BIOGAS *****************
  5092 ;; Defined at:
  5093 ;;		line 86 in file "main.c"
  5094 ;; Parameters:    Size  Location     Type
  5095 ;;		None
  5096 ;; Auto vars:     Size  Location     Type
  5097 ;;		None
  5098 ;; Return value:  Size  Location     Type
  5099 ;;                  1    wreg      void 
  5100 ;; Registers used:
  5101 ;;		wreg, fsr0l, fsr0h, status,2, status,0, btemp+1, pclath, cstack
  5102 ;; Tracked objects:
  5103 ;;		On entry : 0/0
  5104 ;;		On exit  : 0/0
  5105 ;;		Unchanged: 0/0
  5106 ;; Data sizes:     COMMON   BANK0   BANK1   BANK3   BANK2
  5107 ;;      Params:         0       0       0       0       0
  5108 ;;      Locals:         0       0       0       0       0
  5109 ;;      Temps:          0       3       0       0       0
  5110 ;;      Totals:         0       3       0       0       0
  5111 ;;Total ram usage:        3 bytes
  5112 ;; Hardware stack levels used: 1
  5113 ;; Hardware stack levels required when called: 7
  5114 ;; This function calls:
  5115 ;;		_CURSOR
  5116 ;;		_LCDWRITE
  5117 ;; This function is called by:
  5118 ;;		_main
  5119 ;; This function uses a non-reentrant model
  5120 ;;
  5121                           
  5122                           
  5123                           ;psect for function _BIOGAS
  5124  0C59                     _BIOGAS:
  5125  0C59                     l2339:	
  5126                           ;incstack = 0
  5127                           ; Regs used in _BIOGAS: [wreg-fsr0h+status,2+status,0+btemp+1+pclath+cstack]
  5128                           
  5129                           
  5130                           ;main.c: 87:     if(RD2==1);
  5131  0C59  1283               	bcf	3,5	;RP0=0, select bank0
  5132  0C5A  1303               	bcf	3,6	;RP1=0, select bank0
  5133  0C5B  1D08               	btfss	8,2	;volatile
  5134  0C5C  2C5E               	goto	u1641
  5135  0C5D  2C5F               	goto	u1640
  5136  0C5E                     u1641:
  5137  0C5E  2C60               	goto	l233
  5138  0C5F                     u1640:
  5139  0C5F  2C99               	goto	l235
  5140  0C60                     l233:	
  5141                           ;main.c: 88:     else{
  5142                           
  5143                           
  5144                           ;main.c: 89:         RD4=1;
  5145  0C60  1608               	bsf	8,4	;volatile
  5146  0C61                     l2343:
  5147                           
  5148                           ;main.c: 90:         CURSOR(0x94,0);
  5149  0C61  01AE               	clrf	CURSOR@b
  5150  0C62  3094               	movlw	148
  5151  0C63  120A  158A  22DD  120A  158A  	fcall	_CURSOR
  5152  0C68                     l2345:
  5153                           
  5154                           ;main.c: 91:         LCDWRITE("switching...");
  5155  0C68  3094               	movlw	(low ((STR_1-__stringbase)| (0+32768)))& (0+255)
  5156  0C69  120A  158A  255D  120A  158A  	fcall	_LCDWRITE
  5157  0C6E                     l2347:
  5158                           
  5159                           ;main.c: 92:         _delay((unsigned long)((4000)*(20000000/4000.0)));
  5160  0C6E  3066               	movlw	102
  5161  0C6F  1283               	bcf	3,5	;RP0=0, select bank0
  5162  0C70  1303               	bcf	3,6	;RP1=0, select bank0
  5163  0C71  00B6               	movwf	??_BIOGAS+2
  5164  0C72  3076               	movlw	118
  5165  0C73  00B5               	movwf	??_BIOGAS+1
  5166  0C74  30C0               	movlw	192
  5167  0C75  00B4               	movwf	??_BIOGAS
  5168  0C76                     u2437:
  5169  0C76  0BB4               	decfsz	??_BIOGAS,f
  5170  0C77  2C76               	goto	u2437
  5171  0C78  0BB5               	decfsz	??_BIOGAS+1,f
  5172  0C79  2C76               	goto	u2437
  5173  0C7A  0BB6               	decfsz	??_BIOGAS+2,f
  5174  0C7B  2C76               	goto	u2437
  5175  0C7C  0000               	nop
  5176  0C7D                     l2349:
  5177                           
  5178                           ;main.c: 93:         RD0=RD1=RD2=RD3=0;
  5179  0C7D  1283               	bcf	3,5	;RP0=0, select bank0
  5180  0C7E  1303               	bcf	3,6	;RP1=0, select bank0
  5181  0C7F  1188               	bcf	8,3	;volatile
  5182  0C80  1108               	bcf	8,2	;volatile
  5183  0C81  1088               	bcf	8,1	;volatile
  5184  0C82  1008               	bcf	8,0	;volatile
  5185  0C83                     l2351:
  5186                           
  5187                           ;main.c: 94:         RD2=1;
  5188  0C83  1508               	bsf	8,2	;volatile
  5189  0C84                     l2353:
  5190                           
  5191                           ;main.c: 95:         _delay((unsigned long)((4000)*(20000000/4000.0)));
  5192  0C84  3066               	movlw	102
  5193  0C85  1283               	bcf	3,5	;RP0=0, select bank0
  5194  0C86  1303               	bcf	3,6	;RP1=0, select bank0
  5195  0C87  00B6               	movwf	??_BIOGAS+2
  5196  0C88  3076               	movlw	118
  5197  0C89  00B5               	movwf	??_BIOGAS+1
  5198  0C8A  30C0               	movlw	192
  5199  0C8B  00B4               	movwf	??_BIOGAS
  5200  0C8C                     u2447:
  5201  0C8C  0BB4               	decfsz	??_BIOGAS,f
  5202  0C8D  2C8C               	goto	u2447
  5203  0C8E  0BB5               	decfsz	??_BIOGAS+1,f
  5204  0C8F  2C8C               	goto	u2447
  5205  0C90  0BB6               	decfsz	??_BIOGAS+2,f
  5206  0C91  2C8C               	goto	u2447
  5207  0C92  0000               	nop
  5208  0C93                     l2355:
  5209                           
  5210                           ;main.c: 96:         RD0=0;RD1=0;RD3=0;
  5211  0C93  1283               	bcf	3,5	;RP0=0, select bank0
  5212  0C94  1303               	bcf	3,6	;RP1=0, select bank0
  5213  0C95  1008               	bcf	8,0	;volatile
  5214  0C96                     l2357:
  5215  0C96  1088               	bcf	8,1	;volatile
  5216  0C97                     l2359:
  5217  0C97  1188               	bcf	8,3	;volatile
  5218  0C98                     l2361:
  5219                           
  5220                           ;main.c: 97:         RD4=0;
  5221  0C98  1208               	bcf	8,4	;volatile
  5222  0C99                     l235:
  5223  0C99  0008               	return
  5224  0C9A                     __end_of_BIOGAS:
  5225                           
  5226                           	psect	text25
  5227  0D5D                     __ptext25:	
  5228 ;; *************** function _LCDWRITE *****************
  5229 ;; Defined at:
  5230 ;;		line 87 in file "./LCDLIBRARY1.h"
  5231 ;; Parameters:    Size  Location     Type
  5232 ;;  P               1    wreg     PTR const unsigned char 
  5233 ;;		 -> STR_13(6), STR_12(7), STR_11(14), STR_10(14), 
  5234 ;;		 -> STR_9(14), STR_8(14), STR_7(2), STR_6(2), 
  5235 ;;		 -> STR_5(15), STR_4(13), STR_3(13), STR_2(13), 
  5236 ;;		 -> STR_1(13), 
  5237 ;; Auto vars:     Size  Location     Type
  5238 ;;  P               1   19[BANK0 ] PTR const unsigned char 
  5239 ;;		 -> STR_13(6), STR_12(7), STR_11(14), STR_10(14), 
  5240 ;;		 -> STR_9(14), STR_8(14), STR_7(2), STR_6(2), 
  5241 ;;		 -> STR_5(15), STR_4(13), STR_3(13), STR_2(13), 
  5242 ;;		 -> STR_1(13), 
  5243 ;;  i               1   18[BANK0 ] unsigned char 
  5244 ;;  k               1   17[BANK0 ] unsigned char 
  5245 ;;  j               1   16[BANK0 ] unsigned char 
  5246 ;; Return value:  Size  Location     Type
  5247 ;;                  1    wreg      void 
  5248 ;; Registers used:
  5249 ;;		wreg, fsr0l, fsr0h, status,2, status,0, pclath, cstack
  5250 ;; Tracked objects:
  5251 ;;		On entry : 0/0
  5252 ;;		On exit  : 0/0
  5253 ;;		Unchanged: 0/0
  5254 ;; Data sizes:     COMMON   BANK0   BANK1   BANK3   BANK2
  5255 ;;      Params:         0       0       0       0       0
  5256 ;;      Locals:         0       4       0       0       0
  5257 ;;      Temps:          0       2       0       0       0
  5258 ;;      Totals:         0       6       0       0       0
  5259 ;;Total ram usage:        6 bytes
  5260 ;; Hardware stack levels used: 1
  5261 ;; Hardware stack levels required when called: 6
  5262 ;; This function calls:
  5263 ;;		_CLOCK
  5264 ;; This function is called by:
  5265 ;;		_WIND
  5266 ;;		_SOLAR
  5267 ;;		_BIOGAS
  5268 ;;		_PHCN
  5269 ;;		_main
  5270 ;; This function uses a non-reentrant model
  5271 ;;
  5272                           
  5273                           
  5274                           ;psect for function _LCDWRITE
  5275  0D5D                     _LCDWRITE:
  5276                           
  5277                           ;incstack = 0
  5278 ;; using string table level
  5279                           ; Regs used in _LCDWRITE: [wreg-fsr0h+status,2+status,0+pclath+cstack]
  5280                           ;LCDWRITE@P stored from wreg
  5281  0D5D  1283               	bcf	3,5	;RP0=0, select bank0
  5282  0D5E  1303               	bcf	3,6	;RP1=0, select bank0
  5283  0D5F  00B3               	movwf	LCDWRITE@P
  5284  0D60                     l2115:
  5285                           
  5286                           ;./LCDLIBRARY1.h: 87: void LCDWRITE( const char* P);./LCDLIBRARY1.h: 88: {;./LCDLIBRARY1
      +                          .h: 89:     unsigned char i ,j,k;;./LCDLIBRARY1.h: 90:     for(i=0; P[i]!='\0'; i++)
  5287  0D60  01B2               	clrf	LCDWRITE@i
  5288  0D61  2D9D               	goto	l2131
  5289  0D62                     l2117:
  5290                           
  5291                           ;./LCDLIBRARY1.h: 91:     {;./LCDLIBRARY1.h: 92:         k = (0x0f & (P[i] >> 4)) ;
  5292  0D62  0832               	movf	LCDWRITE@i,w
  5293  0D63  0733               	addwf	LCDWRITE@P,w
  5294  0D64  0084               	movwf	4
  5295  0D65  120A  118A  2517  120A  158A  	fcall	stringdir
  5296  0D6A  00AE               	movwf	??_LCDWRITE
  5297  0D6B  3004               	movlw	4
  5298  0D6C                     u1495:
  5299  0D6C  1003               	clrc
  5300  0D6D  0CAE               	rrf	??_LCDWRITE,f
  5301  0D6E  3EFF               	addlw	-1
  5302  0D6F  1D03               	skipz
  5303  0D70  2D6C               	goto	u1495
  5304  0D71  082E               	movf	??_LCDWRITE,w
  5305  0D72  390F               	andlw	15
  5306  0D73  00AF               	movwf	??_LCDWRITE+1
  5307  0D74  082F               	movf	??_LCDWRITE+1,w
  5308  0D75  00B1               	movwf	LCDWRITE@k
  5309                           
  5310                           ;./LCDLIBRARY1.h: 93:         j = ( 0x0f & P[i] );
  5311  0D76  0832               	movf	LCDWRITE@i,w
  5312  0D77  0733               	addwf	LCDWRITE@P,w
  5313  0D78  0084               	movwf	4
  5314  0D79  120A  118A  2517  120A  158A  	fcall	stringdir
  5315  0D7E  390F               	andlw	15
  5316  0D7F  00AE               	movwf	??_LCDWRITE
  5317  0D80  082E               	movf	??_LCDWRITE,w
  5318  0D81  00B0               	movwf	LCDWRITE@j
  5319  0D82                     l2119:
  5320                           
  5321                           ;./LCDLIBRARY1.h: 94:         PORTBbits.RB4 =1;
  5322  0D82  1606               	bsf	6,4	;volatile
  5323  0D83                     l2121:
  5324                           
  5325                           ;./LCDLIBRARY1.h: 96:         PORTB = k | PORTB & 0xf0 ;
  5326  0D83  0806               	movf	6,w	;volatile
  5327  0D84  39F0               	andlw	240
  5328  0D85  0431               	iorwf	LCDWRITE@k,w
  5329  0D86  0086               	movwf	6	;volatile
  5330  0D87                     l2123:
  5331                           
  5332                           ;./LCDLIBRARY1.h: 97:         CLOCK();
  5333  0D87  120A  158A  229C  120A  158A  	fcall	_CLOCK
  5334  0D8C                     l2125:
  5335                           
  5336                           ;./LCDLIBRARY1.h: 98:         PORTB = j | PORTB & 0xf0 ;
  5337  0D8C  1283               	bcf	3,5	;RP0=0, select bank0
  5338  0D8D  1303               	bcf	3,6	;RP1=0, select bank0
  5339  0D8E  0806               	movf	6,w	;volatile
  5340  0D8F  39F0               	andlw	240
  5341  0D90  0430               	iorwf	LCDWRITE@j,w
  5342  0D91  0086               	movwf	6	;volatile
  5343  0D92                     l2127:
  5344                           
  5345                           ;./LCDLIBRARY1.h: 99:         CLOCK();
  5346  0D92  120A  158A  229C  120A  158A  	fcall	_CLOCK
  5347  0D97                     l2129:
  5348                           
  5349                           ;./LCDLIBRARY1.h: 100:     }
  5350  0D97  3001               	movlw	1
  5351  0D98  1283               	bcf	3,5	;RP0=0, select bank0
  5352  0D99  1303               	bcf	3,6	;RP1=0, select bank0
  5353  0D9A  00AE               	movwf	??_LCDWRITE
  5354  0D9B  082E               	movf	??_LCDWRITE,w
  5355  0D9C  07B2               	addwf	LCDWRITE@i,f
  5356  0D9D                     l2131:
  5357  0D9D  0832               	movf	LCDWRITE@i,w
  5358  0D9E  0733               	addwf	LCDWRITE@P,w
  5359  0D9F  0084               	movwf	4
  5360  0DA0  120A  118A  2517  120A  158A  	fcall	stringdir
  5361  0DA5  3A00               	xorlw	0
  5362  0DA6  1D03               	skipz
  5363  0DA7  2DA9               	goto	u1501
  5364  0DA8  2DAA               	goto	u1500
  5365  0DA9                     u1501:
  5366  0DA9  2D62               	goto	l2117
  5367  0DAA                     u1500:
  5368  0DAA                     l177:
  5369  0DAA  0008               	return
  5370  0DAB                     __end_of_LCDWRITE:
  5371                           
  5372                           	psect	text26
  5373  0ADD                     __ptext26:	
  5374 ;; *************** function _CURSOR *****************
  5375 ;; Defined at:
  5376 ;;		line 139 in file "./LCDLIBRARY1.h"
  5377 ;; Parameters:    Size  Location     Type
  5378 ;;  a               1    wreg     unsigned char 
  5379 ;;  b               1   14[BANK0 ] unsigned char 
  5380 ;; Auto vars:     Size  Location     Type
  5381 ;;  a               1   17[BANK0 ] unsigned char 
  5382 ;; Return value:  Size  Location     Type
  5383 ;;                  1    wreg      void 
  5384 ;; Registers used:
  5385 ;;		wreg, status,2, status,0, btemp+1, pclath, cstack
  5386 ;; Tracked objects:
  5387 ;;		On entry : 0/0
  5388 ;;		On exit  : 0/0
  5389 ;;		Unchanged: 0/0
  5390 ;; Data sizes:     COMMON   BANK0   BANK1   BANK3   BANK2
  5391 ;;      Params:         0       1       0       0       0
  5392 ;;      Locals:         0       1       0       0       0
  5393 ;;      Temps:          0       2       0       0       0
  5394 ;;      Totals:         0       4       0       0       0
  5395 ;;Total ram usage:        4 bytes
  5396 ;; Hardware stack levels used: 1
  5397 ;; Hardware stack levels required when called: 6
  5398 ;; This function calls:
  5399 ;;		_CLOCK
  5400 ;; This function is called by:
  5401 ;;		_WIND
  5402 ;;		_SOLAR
  5403 ;;		_BIOGAS
  5404 ;;		_PHCN
  5405 ;;		_main
  5406 ;; This function uses a non-reentrant model
  5407 ;;
  5408                           
  5409                           
  5410                           ;psect for function _CURSOR
  5411  0ADD                     _CURSOR:
  5412                           
  5413                           ;incstack = 0
  5414                           ; Regs used in _CURSOR: [wreg+status,2+status,0+btemp+1+pclath+cstack]
  5415                           ;CURSOR@a stored from wreg
  5416  0ADD  1283               	bcf	3,5	;RP0=0, select bank0
  5417  0ADE  1303               	bcf	3,6	;RP1=0, select bank0
  5418  0ADF  00B1               	movwf	CURSOR@a
  5419  0AE0                     l2133:
  5420                           
  5421                           ;./LCDLIBRARY1.h: 139: void CURSOR(char a, char b );./LCDLIBRARY1.h: 140: {;./LCDLIBRARY
      +                          1.h: 141:             RB4 = RB6 = 0;
  5422  0AE0  1306               	bcf	6,6	;volatile
  5423  0AE1  1206               	bcf	6,4	;volatile
  5424  0AE2                     l2137:
  5425                           
  5426                           ;./LCDLIBRARY1.h: 143:                 PORTB=(a+b)>>4;
  5427  0AE2  0831               	movf	CURSOR@a,w
  5428  0AE3  072E               	addwf	CURSOR@b,w
  5429  0AE4  00AF               	movwf	??_CURSOR
  5430  0AE5  01B0               	clrf	??_CURSOR+1
  5431  0AE6  0DB0               	rlf	??_CURSOR+1,f
  5432  0AE7  3004               	movlw	4
  5433  0AE8  00FF               	movwf	btemp+1
  5434  0AE9                     u1515:
  5435  0AE9  0D30               	rlf	??_CURSOR+1,w
  5436  0AEA  0CB0               	rrf	??_CURSOR+1,f
  5437  0AEB  0CAF               	rrf	??_CURSOR,f
  5438  0AEC  0BFF               	decfsz	btemp+1,f
  5439  0AED  2AE9               	goto	u1515
  5440  0AEE  082F               	movf	??_CURSOR,w
  5441  0AEF  0086               	movwf	6	;volatile
  5442  0AF0                     l2139:
  5443                           
  5444                           ;./LCDLIBRARY1.h: 144:                 CLOCK();
  5445  0AF0  120A  158A  229C  120A  158A  	fcall	_CLOCK
  5446  0AF5                     l2141:
  5447                           
  5448                           ;./LCDLIBRARY1.h: 145:                 PORTB=(a+b)&0x0F;
  5449  0AF5  1283               	bcf	3,5	;RP0=0, select bank0
  5450  0AF6  1303               	bcf	3,6	;RP1=0, select bank0
  5451  0AF7  082E               	movf	CURSOR@b,w
  5452  0AF8  0731               	addwf	CURSOR@a,w
  5453  0AF9  390F               	andlw	15
  5454  0AFA  0086               	movwf	6	;volatile
  5455  0AFB                     l2143:
  5456                           
  5457                           ;./LCDLIBRARY1.h: 146:                 CLOCK();
  5458  0AFB  120A  158A  229C  120A  158A  	fcall	_CLOCK
  5459  0B00                     l195:	
  5460                           ;./LCDLIBRARY1.h: 147:             }else{
  5461                           
  5462  0B00  0008               	return
  5463  0B01                     __end_of_CURSOR:
  5464                           
  5465                           	psect	text27
  5466  0A9C                     __ptext27:	
  5467 ;; *************** function _CLOCK *****************
  5468 ;; Defined at:
  5469 ;;		line 45 in file "./LCDLIBRARY1.h"
  5470 ;; Parameters:    Size  Location     Type
  5471 ;;		None
  5472 ;; Auto vars:     Size  Location     Type
  5473 ;;		None
  5474 ;; Return value:  Size  Location     Type
  5475 ;;                  1    wreg      void 
  5476 ;; Registers used:
  5477 ;;		wreg, status,2, status,0, pclath, cstack
  5478 ;; Tracked objects:
  5479 ;;		On entry : 0/0
  5480 ;;		On exit  : 0/0
  5481 ;;		Unchanged: 0/0
  5482 ;; Data sizes:     COMMON   BANK0   BANK1   BANK3   BANK2
  5483 ;;      Params:         0       0       0       0       0
  5484 ;;      Locals:         0       0       0       0       0
  5485 ;;      Temps:          0       0       0       0       0
  5486 ;;      Totals:         0       0       0       0       0
  5487 ;;Total ram usage:        0 bytes
  5488 ;; Hardware stack levels used: 1
  5489 ;; Hardware stack levels required when called: 5
  5490 ;; This function calls:
  5491 ;;		_delay2
  5492 ;; This function is called by:
  5493 ;;		_LCDCHAR
  5494 ;;		_LCDWRITE
  5495 ;;		_CURSOR
  5496 ;;		_CLRDISP
  5497 ;;		_config
  5498 ;;		_addition
  5499 ;;		_SETCURSORTYPE
  5500 ;; This function uses a non-reentrant model
  5501 ;;
  5502                           
  5503                           
  5504                           ;psect for function _CLOCK
  5505  0A9C                     _CLOCK:
  5506  0A9C                     l1857:	
  5507                           ;incstack = 0
  5508                           ; Regs used in _CLOCK: [wreg+status,2+status,0+pclath+cstack]
  5509                           
  5510                           
  5511                           ;./LCDLIBRARY1.h: 47:     PORTBbits.RB6 =1;
  5512  0A9C  1283               	bcf	3,5	;RP0=0, select bank0
  5513  0A9D  1303               	bcf	3,6	;RP1=0, select bank0
  5514  0A9E  1706               	bsf	6,6	;volatile
  5515  0A9F                     l1859:
  5516                           
  5517                           ;./LCDLIBRARY1.h: 48:     delay2();
  5518  0A9F  120A  158A  2240  120A  158A  	fcall	_delay2
  5519  0AA4                     l1861:
  5520                           
  5521                           ;./LCDLIBRARY1.h: 49:     PORTBbits.RB6 =0;
  5522  0AA4  1283               	bcf	3,5	;RP0=0, select bank0
  5523  0AA5  1303               	bcf	3,6	;RP1=0, select bank0
  5524  0AA6  1306               	bcf	6,6	;volatile
  5525                           
  5526                           ;./LCDLIBRARY1.h: 50:     delay2();
  5527  0AA7  120A  158A  2240  120A  158A  	fcall	_delay2
  5528  0AAC                     l161:
  5529  0AAC  0008               	return
  5530  0AAD                     __end_of_CLOCK:
  5531                           
  5532                           	psect	text28
  5533  0A40                     __ptext28:	
  5534 ;; *************** function _delay2 *****************
  5535 ;; Defined at:
  5536 ;;		line 38 in file "./LCDLIBRARY1.h"
  5537 ;; Parameters:    Size  Location     Type
  5538 ;;		None
  5539 ;; Auto vars:     Size  Location     Type
  5540 ;;		None
  5541 ;; Return value:  Size  Location     Type
  5542 ;;                  1    wreg      void 
  5543 ;; Registers used:
  5544 ;;		wreg
  5545 ;; Tracked objects:
  5546 ;;		On entry : 0/0
  5547 ;;		On exit  : 0/0
  5548 ;;		Unchanged: 0/0
  5549 ;; Data sizes:     COMMON   BANK0   BANK1   BANK3   BANK2
  5550 ;;      Params:         0       0       0       0       0
  5551 ;;      Locals:         0       0       0       0       0
  5552 ;;      Temps:          0       2       0       0       0
  5553 ;;      Totals:         0       2       0       0       0
  5554 ;;Total ram usage:        2 bytes
  5555 ;; Hardware stack levels used: 1
  5556 ;; Hardware stack levels required when called: 4
  5557 ;; This function calls:
  5558 ;;		Nothing
  5559 ;; This function is called by:
  5560 ;;		_CLOCK
  5561 ;; This function uses a non-reentrant model
  5562 ;;
  5563                           
  5564                           
  5565                           ;psect for function _delay2
  5566  0A40                     _delay2:
  5567  0A40                     l1847:	
  5568                           ;incstack = 0
  5569                           ; Regs used in _delay2: [wreg]
  5570                           
  5571                           
  5572                           ;./LCDLIBRARY1.h: 40:     _delay((unsigned long)((5)*(20000000/4000.0)));
  5573  0A40  3021               	movlw	33
  5574  0A41  1283               	bcf	3,5	;RP0=0, select bank0
  5575  0A42  1303               	bcf	3,6	;RP1=0, select bank0
  5576  0A43  00AD               	movwf	??_delay2+1
  5577  0A44  3075               	movlw	117
  5578  0A45  00AC               	movwf	??_delay2
  5579  0A46                     u2457:
  5580  0A46  0BAC               	decfsz	??_delay2,f
  5581  0A47  2A46               	goto	u2457
  5582  0A48  0BAD               	decfsz	??_delay2+1,f
  5583  0A49  2A46               	goto	u2457
  5584  0A4A  2A4B               	nop2
  5585  0A4B                     l158:
  5586  0A4B  0008               	return
  5587  0A4C                     __end_of_delay2:
  5588                           
  5589                           	psect	text29
  5590  078C                     __ptext29:	
  5591 ;; *************** function _ISR *****************
  5592 ;; Defined at:
  5593 ;;		line 116 in file "main.c"
  5594 ;; Parameters:    Size  Location     Type
  5595 ;;		None
  5596 ;; Auto vars:     Size  Location     Type
  5597 ;;  dummy           2   10[BANK0 ] int 
  5598 ;; Return value:  Size  Location     Type
  5599 ;;                  1    wreg      void 
  5600 ;; Registers used:
  5601 ;;		wreg, status,2, status,0, btemp+1, pclath, cstack
  5602 ;; Tracked objects:
  5603 ;;		On entry : 0/0
  5604 ;;		On exit  : 0/0
  5605 ;;		Unchanged: 0/0
  5606 ;; Data sizes:     COMMON   BANK0   BANK1   BANK3   BANK2
  5607 ;;      Params:         0       0       0       0       0
  5608 ;;      Locals:         0       2       0       0       0
  5609 ;;      Temps:          0       6       0       0       0
  5610 ;;      Totals:         0       8       0       0       0
  5611 ;;Total ram usage:        8 bytes
  5612 ;; Hardware stack levels used: 1
  5613 ;; Hardware stack levels required when called: 3
  5614 ;; This function calls:
  5615 ;;		i1_Set_Time_Date
  5616 ;; This function is called by:
  5617 ;;		Interrupt level 1
  5618 ;; This function uses a non-reentrant model
  5619 ;;
  5620                           
  5621                           
  5622                           ;psect for function _ISR
  5623  078C                     _ISR:
  5624  078C                     i1l2429:
  5625  078C  0064               	clrwdt	;# 
  5626                           
  5627                           ;main.c: 118:     RD5=1;
  5628  078D  1283               	bcf	3,5	;RP0=0, select bank0
  5629  078E  1303               	bcf	3,6	;RP1=0, select bank0
  5630  078F  1688               	bsf	8,5	;volatile
  5631  0790                     i1l2431:
  5632                           
  5633                           ;main.c: 119:     _delay((unsigned long)((100)*(20000000/4000.0)));
  5634  0790  3003               	movlw	3
  5635  0791  1283               	bcf	3,5	;RP0=0, select bank0
  5636  0792  1303               	bcf	3,6	;RP1=0, select bank0
  5637  0793  00A6               	movwf	??_ISR+2
  5638  0794  308A               	movlw	138
  5639  0795  00A5               	movwf	??_ISR+1
  5640  0796  3055               	movlw	85
  5641  0797  00A4               	movwf	??_ISR
  5642  0798                     u246_27:
  5643  0798  0BA4               	decfsz	??_ISR,f
  5644  0799  2F98               	goto	u246_27
  5645  079A  0BA5               	decfsz	??_ISR+1,f
  5646  079B  2F98               	goto	u246_27
  5647  079C  0BA6               	decfsz	??_ISR+2,f
  5648  079D  2F98               	goto	u246_27
  5649  079E                     i1l2433:
  5650                           
  5651                           ;main.c: 120:     if(TMR0IF==1){
  5652  079E  1D0B               	btfss	11,2	;volatile
  5653  079F  2FA1               	goto	u168_21
  5654  07A0  2FA2               	goto	u168_20
  5655  07A1                     u168_21:
  5656  07A1  2FC4               	goto	i1l2443
  5657  07A2                     u168_20:
  5658  07A2                     i1l2435:
  5659                           
  5660                           ;main.c: 121:         int dummy=hour;
  5661  07A2  1283               	bcf	3,5	;RP0=0, select bank0
  5662  07A3  1303               	bcf	3,6	;RP1=0, select bank0
  5663  07A4  0851               	movf	_hour+1,w
  5664  07A5  00AB               	movwf	ISR@dummy+1
  5665  07A6  0850               	movf	_hour,w
  5666  07A7  00AA               	movwf	ISR@dummy
  5667  07A8                     i1l2437:
  5668                           
  5669                           ;main.c: 122:         if(hour<=22)hour=dummy+1;
  5670  07A8  0851               	movf	_hour+1,w
  5671  07A9  3A80               	xorlw	128
  5672  07AA  00FF               	movwf	btemp+1
  5673  07AB  3080               	movlw	128
  5674  07AC  027F               	subwf	btemp+1,w
  5675  07AD  1D03               	skipz
  5676  07AE  2FB1               	goto	u169_25
  5677  07AF  3017               	movlw	23
  5678  07B0  0250               	subwf	_hour,w
  5679  07B1                     u169_25:
  5680  07B1  1803               	skipnc
  5681  07B2  2FB4               	goto	u169_21
  5682  07B3  2FB5               	goto	u169_20
  5683  07B4                     u169_21:
  5684  07B4  2FC0               	goto	i1l2441
  5685  07B5                     u169_20:
  5686  07B5                     i1l2439:
  5687  07B5  1283               	bcf	3,5	;RP0=0, select bank0
  5688  07B6  1303               	bcf	3,6	;RP1=0, select bank0
  5689  07B7  082A               	movf	ISR@dummy,w
  5690  07B8  3E01               	addlw	1
  5691  07B9  00D0               	movwf	_hour
  5692  07BA  082B               	movf	ISR@dummy+1,w
  5693  07BB  1803               	skipnc
  5694  07BC  3E01               	addlw	1
  5695  07BD  3E00               	addlw	0
  5696  07BE  00D1               	movwf	_hour+1
  5697  07BF  2FC4               	goto	i1l2443
  5698  07C0                     i1l2441:
  5699  07C0  1283               	bcf	3,5	;RP0=0, select bank0
  5700  07C1  1303               	bcf	3,6	;RP1=0, select bank0
  5701  07C2  01D0               	clrf	_hour
  5702  07C3  01D1               	clrf	_hour+1
  5703  07C4                     i1l2443:
  5704                           
  5705                           ;main.c: 125:     if(TMR1IF==1){
  5706  07C4  1283               	bcf	3,5	;RP0=0, select bank0
  5707  07C5  1303               	bcf	3,6	;RP1=0, select bank0
  5708  07C6  1C0C               	btfss	12,0	;volatile
  5709  07C7  2FC9               	goto	u170_21
  5710  07C8  2FCA               	goto	u170_20
  5711  07C9                     u170_21:
  5712  07C9  2FE4               	goto	i1l2451
  5713  07CA                     u170_20:
  5714  07CA                     i1l2445:
  5715                           
  5716                           ;main.c: 126:         if(min<=58)min++;
  5717  07CA  0853               	movf	_min+1,w
  5718  07CB  3A80               	xorlw	128
  5719  07CC  00FF               	movwf	btemp+1
  5720  07CD  3080               	movlw	128
  5721  07CE  027F               	subwf	btemp+1,w
  5722  07CF  1D03               	skipz
  5723  07D0  2FD3               	goto	u171_25
  5724  07D1  303B               	movlw	59
  5725  07D2  0252               	subwf	_min,w
  5726  07D3                     u171_25:
  5727  07D3  1803               	skipnc
  5728  07D4  2FD6               	goto	u171_21
  5729  07D5  2FD7               	goto	u171_20
  5730  07D6                     u171_21:
  5731  07D6  2FE0               	goto	i1l2449
  5732  07D7                     u171_20:
  5733  07D7                     i1l2447:
  5734  07D7  3001               	movlw	1
  5735  07D8  1283               	bcf	3,5	;RP0=0, select bank0
  5736  07D9  1303               	bcf	3,6	;RP1=0, select bank0
  5737  07DA  07D2               	addwf	_min,f
  5738  07DB  1803               	skipnc
  5739  07DC  0AD3               	incf	_min+1,f
  5740  07DD  3000               	movlw	0
  5741  07DE  07D3               	addwf	_min+1,f
  5742  07DF  2FE4               	goto	i1l2451
  5743  07E0                     i1l2449:
  5744  07E0  1283               	bcf	3,5	;RP0=0, select bank0
  5745  07E1  1303               	bcf	3,6	;RP1=0, select bank0
  5746  07E2  01D2               	clrf	_min
  5747  07E3  01D3               	clrf	_min+1
  5748  07E4                     i1l2451:
  5749                           
  5750                           ;main.c: 129:     TMR0IF=0;
  5751  07E4  110B               	bcf	11,2	;volatile
  5752  07E5                     i1l2453:
  5753                           
  5754                           ;main.c: 130:     TMR1IF=0;
  5755  07E5  100C               	bcf	12,0	;volatile
  5756  07E6                     i1l2455:
  5757                           
  5758                           ;main.c: 131:     TMR0=255;
  5759  07E6  30FF               	movlw	255
  5760  07E7  0081               	movwf	1	;volatile
  5761  07E8                     i1l2457:
  5762                           
  5763                           ;main.c: 132:     TMR1=65535;
  5764  07E8  30FF               	movlw	255
  5765  07E9  008F               	movwf	15	;volatile
  5766  07EA  30FF               	movlw	255
  5767  07EB  008E               	movwf	14	;volatile
  5768  07EC  0064               	clrwdt	;# 
  5769  07ED                     i1l2459:
  5770                           
  5771                           ;main.c: 134:     Set_Time_Date();
  5772  07ED  120A  118A  26FE  120A  118A  	fcall	i1_Set_Time_Date
  5773  07F2  0064               	clrwdt	;# 
  5774  07F3                     i1l2461:
  5775                           
  5776                           ;main.c: 136:     RD5=0;
  5777  07F3  1283               	bcf	3,5	;RP0=0, select bank0
  5778  07F4  1303               	bcf	3,6	;RP1=0, select bank0
  5779  07F5  1288               	bcf	8,5	;volatile
  5780  07F6                     i1l251:
  5781  07F6  0829               	movf	??_ISR+5,w
  5782  07F7  00FF               	movwf	btemp+1
  5783  07F8  0828               	movf	??_ISR+4,w
  5784  07F9  008A               	movwf	10
  5785  07FA  0E27               	swapf	??_ISR+3,w
  5786  07FB  0083               	movwf	3
  5787  07FC  0EFE               	swapf	btemp,f
  5788  07FD  0E7E               	swapf	btemp,w
  5789  07FE  0009               	retfie
  5790  07FF                     __end_of_ISR:
  5791                           
  5792                           	psect	intentry
  5793  0004                     __pintentry:	
  5794                           ;incstack = 0
  5795                           ; Regs used in _ISR: [wreg+status,2+status,0+btemp+1+pclath+cstack]
  5796                           
  5797  0004                     interrupt_function:
  5798  007E                     saved_w	set	btemp
  5799  0004  00FE               	movwf	btemp
  5800  0005  0E03               	swapf	3,w
  5801  0006  1283               	bcf	3,5	;RP0=0, select bank0
  5802  0007  1303               	bcf	3,6	;RP1=0, select bank0
  5803  0008  00A7               	movwf	??_ISR+3
  5804  0009  080A               	movf	10,w
  5805  000A  00A8               	movwf	??_ISR+4
  5806  000B  087F               	movf	btemp+1,w
  5807  000C  00A9               	movwf	??_ISR+5
  5808  000D  120A  118A  2F8C   	ljmp	_ISR
  5809                           
  5810                           	psect	text30
  5811  06FE                     __ptext30:	
  5812 ;; *************** function i1_Set_Time_Date *****************
  5813 ;; Defined at:
  5814 ;;		line 28 in file "./PIC16F877a_DS3231.h"
  5815 ;; Parameters:    Size  Location     Type
  5816 ;;		None
  5817 ;; Auto vars:     Size  Location     Type
  5818 ;;		None
  5819 ;; Return value:  Size  Location     Type
  5820 ;;                  1    wreg      void 
  5821 ;; Registers used:
  5822 ;;		wreg, status,2, status,0, pclath, cstack
  5823 ;; Tracked objects:
  5824 ;;		On entry : 0/0
  5825 ;;		On exit  : 0/0
  5826 ;;		Unchanged: 0/0
  5827 ;; Data sizes:     COMMON   BANK0   BANK1   BANK3   BANK2
  5828 ;;      Params:         0       0       0       0       0
  5829 ;;      Locals:         0       0       0       0       0
  5830 ;;      Temps:          0       0       0       0       0
  5831 ;;      Totals:         0       0       0       0       0
  5832 ;;Total ram usage:        0 bytes
  5833 ;; Hardware stack levels used: 1
  5834 ;; Hardware stack levels required when called: 2
  5835 ;; This function calls:
  5836 ;;		i1_DEC_2_BCD
  5837 ;;		i1_I2C_Begin
  5838 ;;		i1_I2C_End
  5839 ;;		i1_I2C_Write
  5840 ;; This function is called by:
  5841 ;;		_ISR
  5842 ;; This function uses a non-reentrant model
  5843 ;;
  5844                           
  5845                           
  5846                           ;psect for function i1_Set_Time_Date
  5847  06FE                     i1_Set_Time_Date:
  5848  06FE                     i1l2387:	
  5849                           ;incstack = 0
  5850                           ; Regs used in i1_Set_Time_Date: [wreg+status,2+status,0+pclath+cstack]
  5851                           
  5852                           
  5853                           ;./PIC16F877a_DS3231.h: 30:    I2C_Begin();
  5854  06FE  120A  158A  2213  120A  118A  	fcall	i1_I2C_Begin
  5855                           
  5856                           ;./PIC16F877a_DS3231.h: 31:    I2C_Write(0xD0);
  5857  0703  30D0               	movlw	208
  5858  0704  1283               	bcf	3,5	;RP0=0, select bank0
  5859  0705  1303               	bcf	3,6	;RP1=0, select bank0
  5860  0706  00A2               	movwf	i1I2C_Write@data
  5861  0707  3000               	movlw	0
  5862  0708  00A3               	movwf	i1I2C_Write@data+1
  5863  0709  120A  158A  227E  120A  118A  	fcall	i1_I2C_Write
  5864                           
  5865                           ;./PIC16F877a_DS3231.h: 32:    I2C_Write(0);
  5866  070E  3000               	movlw	0
  5867  070F  1283               	bcf	3,5	;RP0=0, select bank0
  5868  0710  1303               	bcf	3,6	;RP1=0, select bank0
  5869  0711  00A2               	movwf	i1I2C_Write@data
  5870  0712  00A3               	movwf	i1I2C_Write@data+1
  5871  0713  120A  158A  227E  120A  118A  	fcall	i1_I2C_Write
  5872                           
  5873                           ;./PIC16F877a_DS3231.h: 33:    I2C_Write(DEC_2_BCD(sec));
  5874  0718  1283               	bcf	3,5	;RP0=0, select bank0
  5875  0719  1303               	bcf	3,6	;RP1=0, select bank0
  5876  071A  0855               	movf	_sec+1,w
  5877  071B  00FA               	movwf	i1DEC_2_BCD@num+1
  5878  071C  0854               	movf	_sec,w
  5879  071D  00F9               	movwf	i1DEC_2_BCD@num
  5880  071E  120A  158A  23AF  120A  118A  	fcall	i1_DEC_2_BCD
  5881  0723  087A               	movf	?i1_DEC_2_BCD+1,w
  5882  0724  1283               	bcf	3,5	;RP0=0, select bank0
  5883  0725  1303               	bcf	3,6	;RP1=0, select bank0
  5884  0726  00A3               	movwf	i1I2C_Write@data+1
  5885  0727  0879               	movf	?i1_DEC_2_BCD,w
  5886  0728  00A2               	movwf	i1I2C_Write@data
  5887  0729  120A  158A  227E  120A  118A  	fcall	i1_I2C_Write
  5888                           
  5889                           ;./PIC16F877a_DS3231.h: 34:    I2C_Write(DEC_2_BCD(min));
  5890  072E  1283               	bcf	3,5	;RP0=0, select bank0
  5891  072F  1303               	bcf	3,6	;RP1=0, select bank0
  5892  0730  0853               	movf	_min+1,w
  5893  0731  00FA               	movwf	i1DEC_2_BCD@num+1
  5894  0732  0852               	movf	_min,w
  5895  0733  00F9               	movwf	i1DEC_2_BCD@num
  5896  0734  120A  158A  23AF  120A  118A  	fcall	i1_DEC_2_BCD
  5897  0739  087A               	movf	?i1_DEC_2_BCD+1,w
  5898  073A  1283               	bcf	3,5	;RP0=0, select bank0
  5899  073B  1303               	bcf	3,6	;RP1=0, select bank0
  5900  073C  00A3               	movwf	i1I2C_Write@data+1
  5901  073D  0879               	movf	?i1_DEC_2_BCD,w
  5902  073E  00A2               	movwf	i1I2C_Write@data
  5903  073F  120A  158A  227E  120A  118A  	fcall	i1_I2C_Write
  5904                           
  5905                           ;./PIC16F877a_DS3231.h: 35:    I2C_Write(DEC_2_BCD(hour));
  5906  0744  1283               	bcf	3,5	;RP0=0, select bank0
  5907  0745  1303               	bcf	3,6	;RP1=0, select bank0
  5908  0746  0851               	movf	_hour+1,w
  5909  0747  00FA               	movwf	i1DEC_2_BCD@num+1
  5910  0748  0850               	movf	_hour,w
  5911  0749  00F9               	movwf	i1DEC_2_BCD@num
  5912  074A  120A  158A  23AF  120A  118A  	fcall	i1_DEC_2_BCD
  5913  074F  087A               	movf	?i1_DEC_2_BCD+1,w
  5914  0750  1283               	bcf	3,5	;RP0=0, select bank0
  5915  0751  1303               	bcf	3,6	;RP1=0, select bank0
  5916  0752  00A3               	movwf	i1I2C_Write@data+1
  5917  0753  0879               	movf	?i1_DEC_2_BCD,w
  5918  0754  00A2               	movwf	i1I2C_Write@data
  5919  0755  120A  158A  227E  120A  118A  	fcall	i1_I2C_Write
  5920                           
  5921                           ;./PIC16F877a_DS3231.h: 36:    I2C_Write(1);
  5922  075A  3001               	movlw	1
  5923  075B  1283               	bcf	3,5	;RP0=0, select bank0
  5924  075C  1303               	bcf	3,6	;RP1=0, select bank0
  5925  075D  00A2               	movwf	i1I2C_Write@data
  5926  075E  3000               	movlw	0
  5927  075F  00A3               	movwf	i1I2C_Write@data+1
  5928  0760  120A  158A  227E  120A  118A  	fcall	i1_I2C_Write
  5929                           
  5930                           ;./PIC16F877a_DS3231.h: 37:    I2C_Write(1);
  5931  0765  3001               	movlw	1
  5932  0766  1283               	bcf	3,5	;RP0=0, select bank0
  5933  0767  1303               	bcf	3,6	;RP1=0, select bank0
  5934  0768  00A2               	movwf	i1I2C_Write@data
  5935  0769  3000               	movlw	0
  5936  076A  00A3               	movwf	i1I2C_Write@data+1
  5937  076B  120A  158A  227E  120A  118A  	fcall	i1_I2C_Write
  5938                           
  5939                           ;./PIC16F877a_DS3231.h: 38:    I2C_Write(1);
  5940  0770  3001               	movlw	1
  5941  0771  1283               	bcf	3,5	;RP0=0, select bank0
  5942  0772  1303               	bcf	3,6	;RP1=0, select bank0
  5943  0773  00A2               	movwf	i1I2C_Write@data
  5944  0774  3000               	movlw	0
  5945  0775  00A3               	movwf	i1I2C_Write@data+1
  5946  0776  120A  158A  227E  120A  118A  	fcall	i1_I2C_Write
  5947                           
  5948                           ;./PIC16F877a_DS3231.h: 39:    I2C_Write(1);
  5949  077B  3001               	movlw	1
  5950  077C  1283               	bcf	3,5	;RP0=0, select bank0
  5951  077D  1303               	bcf	3,6	;RP1=0, select bank0
  5952  077E  00A2               	movwf	i1I2C_Write@data
  5953  077F  3000               	movlw	0
  5954  0780  00A3               	movwf	i1I2C_Write@data+1
  5955  0781  120A  158A  227E  120A  118A  	fcall	i1_I2C_Write
  5956                           
  5957                           ;./PIC16F877a_DS3231.h: 40:    I2C_End();
  5958  0786  120A  158A  221C  120A  118A  	fcall	i1_I2C_End
  5959  078B                     i1l145:
  5960  078B  0008               	return
  5961  078C                     __end_ofi1_Set_Time_Date:
  5962                           
  5963                           	psect	text31
  5964  0A7E                     __ptext31:	
  5965 ;; *************** function i1_I2C_Write *****************
  5966 ;; Defined at:
  5967 ;;		line 42 in file "./PIC16F877a_I2C.h"
  5968 ;; Parameters:    Size  Location     Type
  5969 ;;  data            2    2[BANK0 ] unsigned short 
  5970 ;; Auto vars:     Size  Location     Type
  5971 ;;		None
  5972 ;; Return value:  Size  Location     Type
  5973 ;;                  2    2[BANK0 ] unsigned short 
  5974 ;; Registers used:
  5975 ;;		wreg, status,2, status,0, pclath, cstack
  5976 ;; Tracked objects:
  5977 ;;		On entry : 0/0
  5978 ;;		On exit  : 0/0
  5979 ;;		Unchanged: 0/0
  5980 ;; Data sizes:     COMMON   BANK0   BANK1   BANK3   BANK2
  5981 ;;      Params:         0       2       0       0       0
  5982 ;;      Locals:         0       0       0       0       0
  5983 ;;      Temps:          0       0       0       0       0
  5984 ;;      Totals:         0       2       0       0       0
  5985 ;;Total ram usage:        2 bytes
  5986 ;; Hardware stack levels used: 1
  5987 ;; Hardware stack levels required when called: 1
  5988 ;; This function calls:
  5989 ;;		i1_I2C_Hold
  5990 ;; This function is called by:
  5991 ;;		i1_Set_Time_Date
  5992 ;; This function uses a non-reentrant model
  5993 ;;
  5994                           
  5995                           
  5996                           ;psect for function i1_I2C_Write
  5997  0A7E                     i1_I2C_Write:
  5998  0A7E                     i1l2187:	
  5999                           ;incstack = 0
  6000                           ; Regs used in i1_I2C_Write: [wreg+status,2+status,0+pclath+cstack]
  6001                           
  6002                           
  6003                           ;./PIC16F877a_I2C.h: 42: unsigned short I2C_Write(unsigned short data);./PIC16F877a_I2C.
      +                          h: 43: {;./PIC16F877a_I2C.h: 44:     I2C_Hold();
  6004  0A7E  120A  158A  2264  120A  158A  	fcall	i1_I2C_Hold
  6005  0A83                     i1l2189:
  6006                           
  6007                           ;./PIC16F877a_I2C.h: 45:     SSPBUF = data;
  6008  0A83  1283               	bcf	3,5	;RP0=0, select bank0
  6009  0A84  1303               	bcf	3,6	;RP1=0, select bank0
  6010  0A85  0822               	movf	i1I2C_Write@data,w
  6011  0A86  0093               	movwf	19	;volatile
  6012  0A87                     i1l2191:
  6013                           
  6014                           ;./PIC16F877a_I2C.h: 46:     I2C_Hold();
  6015  0A87  120A  158A  2264  120A  158A  	fcall	i1_I2C_Hold
  6016  0A8C                     i1l2193:
  6017  0A8C                     i1l127:	
  6018                           ;./PIC16F877a_I2C.h: 47:     return ACKSTAT;;	Return value of i1_I2C_Write is never used
  6019                           
  6020  0A8C  0008               	return
  6021  0A8D                     __end_ofi1_I2C_Write:
  6022                           
  6023                           	psect	text32
  6024  0A1C                     __ptext32:	
  6025 ;; *************** function i1_I2C_End *****************
  6026 ;; Defined at:
  6027 ;;		line 35 in file "./PIC16F877a_I2C.h"
  6028 ;; Parameters:    Size  Location     Type
  6029 ;;		None
  6030 ;; Auto vars:     Size  Location     Type
  6031 ;;		None
  6032 ;; Return value:  Size  Location     Type
  6033 ;;                  1    wreg      void 
  6034 ;; Registers used:
  6035 ;;		wreg, status,2, status,0, pclath, cstack
  6036 ;; Tracked objects:
  6037 ;;		On entry : 0/0
  6038 ;;		On exit  : 0/0
  6039 ;;		Unchanged: 0/0
  6040 ;; Data sizes:     COMMON   BANK0   BANK1   BANK3   BANK2
  6041 ;;      Params:         0       0       0       0       0
  6042 ;;      Locals:         0       0       0       0       0
  6043 ;;      Temps:          0       0       0       0       0
  6044 ;;      Totals:         0       0       0       0       0
  6045 ;;Total ram usage:        0 bytes
  6046 ;; Hardware stack levels used: 1
  6047 ;; Hardware stack levels required when called: 1
  6048 ;; This function calls:
  6049 ;;		i1_I2C_Hold
  6050 ;; This function is called by:
  6051 ;;		i1_Set_Time_Date
  6052 ;; This function uses a non-reentrant model
  6053 ;;
  6054                           
  6055                           
  6056                           ;psect for function i1_I2C_End
  6057  0A1C                     i1_I2C_End:
  6058  0A1C                     i1l2183:	
  6059                           ;incstack = 0
  6060                           ; Regs used in i1_I2C_End: [wreg+status,2+status,0+pclath+cstack]
  6061                           
  6062                           
  6063                           ;./PIC16F877a_I2C.h: 37:   I2C_Hold();
  6064  0A1C  120A  158A  2264  120A  158A  	fcall	i1_I2C_Hold
  6065  0A21                     i1l2185:
  6066                           
  6067                           ;./PIC16F877a_I2C.h: 38:   PEN = 1;
  6068  0A21  1683               	bsf	3,5	;RP0=1, select bank1
  6069  0A22  1303               	bcf	3,6	;RP1=0, select bank1
  6070  0A23  1511               	bsf	17,2	;volatile
  6071  0A24                     i1l124:
  6072  0A24  0008               	return
  6073  0A25                     __end_ofi1_I2C_End:
  6074                           
  6075                           	psect	text33
  6076  0A13                     __ptext33:	
  6077 ;; *************** function i1_I2C_Begin *****************
  6078 ;; Defined at:
  6079 ;;		line 24 in file "./PIC16F877a_I2C.h"
  6080 ;; Parameters:    Size  Location     Type
  6081 ;;		None
  6082 ;; Auto vars:     Size  Location     Type
  6083 ;;		None
  6084 ;; Return value:  Size  Location     Type
  6085 ;;                  1    wreg      void 
  6086 ;; Registers used:
  6087 ;;		wreg, status,2, status,0, pclath, cstack
  6088 ;; Tracked objects:
  6089 ;;		On entry : 0/0
  6090 ;;		On exit  : 0/0
  6091 ;;		Unchanged: 0/0
  6092 ;; Data sizes:     COMMON   BANK0   BANK1   BANK3   BANK2
  6093 ;;      Params:         0       0       0       0       0
  6094 ;;      Locals:         0       0       0       0       0
  6095 ;;      Temps:          0       0       0       0       0
  6096 ;;      Totals:         0       0       0       0       0
  6097 ;;Total ram usage:        0 bytes
  6098 ;; Hardware stack levels used: 1
  6099 ;; Hardware stack levels required when called: 1
  6100 ;; This function calls:
  6101 ;;		i1_I2C_Hold
  6102 ;; This function is called by:
  6103 ;;		i1_Set_Time_Date
  6104 ;; This function uses a non-reentrant model
  6105 ;;
  6106                           
  6107                           
  6108                           ;psect for function i1_I2C_Begin
  6109  0A13                     i1_I2C_Begin:
  6110  0A13                     i1l2179:	
  6111                           ;incstack = 0
  6112                           ; Regs used in i1_I2C_Begin: [wreg+status,2+status,0+pclath+cstack]
  6113                           
  6114                           
  6115                           ;./PIC16F877a_I2C.h: 26:   I2C_Hold();
  6116  0A13  120A  158A  2264  120A  158A  	fcall	i1_I2C_Hold
  6117  0A18                     i1l2181:
  6118                           
  6119                           ;./PIC16F877a_I2C.h: 27:   SEN = 1;
  6120  0A18  1683               	bsf	3,5	;RP0=1, select bank1
  6121  0A19  1303               	bcf	3,6	;RP1=0, select bank1
  6122  0A1A  1411               	bsf	17,0	;volatile
  6123  0A1B                     i1l118:
  6124  0A1B  0008               	return
  6125  0A1C                     __end_ofi1_I2C_Begin:
  6126                           
  6127                           	psect	text34
  6128  0A64                     __ptext34:	
  6129 ;; *************** function i1_I2C_Hold *****************
  6130 ;; Defined at:
  6131 ;;		line 19 in file "./PIC16F877a_I2C.h"
  6132 ;; Parameters:    Size  Location     Type
  6133 ;;		None
  6134 ;; Auto vars:     Size  Location     Type
  6135 ;;		None
  6136 ;; Return value:  Size  Location     Type
  6137 ;;                  1    wreg      void 
  6138 ;; Registers used:
  6139 ;;		wreg, status,2
  6140 ;; Tracked objects:
  6141 ;;		On entry : 0/0
  6142 ;;		On exit  : 0/0
  6143 ;;		Unchanged: 0/0
  6144 ;; Data sizes:     COMMON   BANK0   BANK1   BANK3   BANK2
  6145 ;;      Params:         0       0       0       0       0
  6146 ;;      Locals:         0       0       0       0       0
  6147 ;;      Temps:          0       0       0       0       0
  6148 ;;      Totals:         0       0       0       0       0
  6149 ;;Total ram usage:        0 bytes
  6150 ;; Hardware stack levels used: 1
  6151 ;; This function calls:
  6152 ;;		Nothing
  6153 ;; This function is called by:
  6154 ;;		i1_I2C_Begin
  6155 ;;		i1_I2C_End
  6156 ;;		i1_I2C_Write
  6157 ;; This function uses a non-reentrant model
  6158 ;;
  6159                           
  6160                           
  6161                           ;psect for function i1_I2C_Hold
  6162  0A64                     i1_I2C_Hold:
  6163  0A64                     i1l1961:	
  6164                           ;incstack = 0
  6165                           ; Regs used in i1_I2C_Hold: [wreg+status,2]
  6166                           
  6167  0A64                     i1l1963:	
  6168                           ;./PIC16F877a_I2C.h: 21:     while ( (SSPCON2 & 0b00011111) || (SSPSTAT & 0b00000100) ) 
      +                          ;
  6169                           
  6170  0A64  1683               	bsf	3,5	;RP0=1, select bank1
  6171  0A65  1303               	bcf	3,6	;RP1=0, select bank1
  6172  0A66  0811               	movf	17,w	;volatile
  6173  0A67  391F               	andlw	31
  6174  0A68  1D03               	btfss	3,2
  6175  0A69  2A6B               	goto	u125_21
  6176  0A6A  2A6C               	goto	u125_20
  6177  0A6B                     u125_21:
  6178  0A6B  2A64               	goto	i1l1963
  6179  0A6C                     u125_20:
  6180  0A6C                     i1l1965:
  6181  0A6C  1914               	btfsc	20,2	;volatile
  6182  0A6D  2A6F               	goto	u126_21
  6183  0A6E  2A70               	goto	u126_20
  6184  0A6F                     u126_21:
  6185  0A6F  2A64               	goto	i1l1963
  6186  0A70                     u126_20:
  6187  0A70                     i1l115:
  6188  0A70  0008               	return
  6189  0A71                     __end_ofi1_I2C_Hold:
  6190                           
  6191                           	psect	text35
  6192  0BAF                     __ptext35:	
  6193 ;; *************** function i1_DEC_2_BCD *****************
  6194 ;; Defined at:
  6195 ;;		line 22 in file "./PIC16F877a_DS3231.h"
  6196 ;; Parameters:    Size  Location     Type
  6197 ;;  num             2    9[COMMON] int 
  6198 ;; Auto vars:     Size  Location     Type
  6199 ;;  data            2    0[BANK0 ] int 
  6200 ;; Return value:  Size  Location     Type
  6201 ;;                  2    9[COMMON] int 
  6202 ;; Registers used:
  6203 ;;		wreg, status,2, status,0, pclath, cstack
  6204 ;; Tracked objects:
  6205 ;;		On entry : 0/0
  6206 ;;		On exit  : 0/0
  6207 ;;		Unchanged: 0/0
  6208 ;; Data sizes:     COMMON   BANK0   BANK1   BANK3   BANK2
  6209 ;;      Params:         2       0       0       0       0
  6210 ;;      Locals:         0       2       0       0       0
  6211 ;;      Temps:          2       0       0       0       0
  6212 ;;      Totals:         4       2       0       0       0
  6213 ;;Total ram usage:        6 bytes
  6214 ;; Hardware stack levels used: 1
  6215 ;; Hardware stack levels required when called: 1
  6216 ;; This function calls:
  6217 ;;		i1___awdiv
  6218 ;;		i1___awmod
  6219 ;; This function is called by:
  6220 ;;		i1_Set_Time_Date
  6221 ;; This function uses a non-reentrant model
  6222 ;;
  6223                           
  6224                           
  6225                           ;psect for function i1_DEC_2_BCD
  6226  0BAF                     i1_DEC_2_BCD:
  6227  0BAF                     i1l2197:	
  6228                           ;incstack = 0
  6229                           ; Regs used in i1_DEC_2_BCD: [wreg+status,2+status,0+pclath+cstack]
  6230                           
  6231                           
  6232                           ;./PIC16F877a_DS3231.h: 22: int DEC_2_BCD (int num);./PIC16F877a_DS3231.h: 23: {;./PIC16
      +                          F877a_DS3231.h: 24:     int data=((num/10)<<4)+(num%10);
  6233  0BAF  300A               	movlw	10
  6234  0BB0  00F0               	movwf	i1___awdiv@divisor
  6235  0BB1  3000               	movlw	0
  6236  0BB2  00F1               	movwf	i1___awdiv@divisor+1
  6237  0BB3  087A               	movf	i1DEC_2_BCD@num+1,w
  6238  0BB4  00F3               	movwf	i1___awdiv@dividend+1
  6239  0BB5  0879               	movf	i1DEC_2_BCD@num,w
  6240  0BB6  00F2               	movwf	i1___awdiv@dividend
  6241  0BB7  120A  158A  265F  120A  158A  	fcall	i1___awdiv
  6242  0BBC  0870               	movf	?i1___awdiv,w
  6243  0BBD  00FB               	movwf	??i1_DEC_2_BCD
  6244  0BBE  0871               	movf	?i1___awdiv+1,w
  6245  0BBF  00FC               	movwf	??i1_DEC_2_BCD+1
  6246  0BC0  0EFB               	swapf	??i1_DEC_2_BCD,f
  6247  0BC1  0EFC               	swapf	??i1_DEC_2_BCD+1,f
  6248  0BC2  30F0               	movlw	240
  6249  0BC3  05FC               	andwf	??i1_DEC_2_BCD+1,f
  6250  0BC4  087B               	movf	??i1_DEC_2_BCD,w
  6251  0BC5  390F               	andlw	15
  6252  0BC6  04FC               	iorwf	??i1_DEC_2_BCD+1,f
  6253  0BC7  30F0               	movlw	240
  6254  0BC8  05FB               	andwf	??i1_DEC_2_BCD,f
  6255  0BC9  300A               	movlw	10
  6256  0BCA  00F0               	movwf	i1___awmod@divisor
  6257  0BCB  3000               	movlw	0
  6258  0BCC  00F1               	movwf	i1___awmod@divisor+1
  6259  0BCD  087A               	movf	i1DEC_2_BCD@num+1,w
  6260  0BCE  00F3               	movwf	i1___awmod@dividend+1
  6261  0BCF  0879               	movf	i1DEC_2_BCD@num,w
  6262  0BD0  00F2               	movwf	i1___awmod@dividend
  6263  0BD1  120A  158A  25AB  120A  158A  	fcall	i1___awmod
  6264  0BD6  0870               	movf	?i1___awmod,w
  6265  0BD7  077B               	addwf	??i1_DEC_2_BCD,w
  6266  0BD8  1283               	bcf	3,5	;RP0=0, select bank0
  6267  0BD9  1303               	bcf	3,6	;RP1=0, select bank0
  6268  0BDA  00A0               	movwf	i1DEC_2_BCD@data
  6269  0BDB  0871               	movf	?i1___awmod+1,w
  6270  0BDC  1803               	skipnc
  6271  0BDD  0A71               	incf	?i1___awmod+1,w
  6272  0BDE  077C               	addwf	??i1_DEC_2_BCD+1,w
  6273  0BDF  00A1               	movwf	i1DEC_2_BCD@data+1
  6274  0BE0                     i1l2199:
  6275                           
  6276                           ;./PIC16F877a_DS3231.h: 25:     return data;
  6277  0BE0  0821               	movf	i1DEC_2_BCD@data+1,w
  6278  0BE1  00FA               	movwf	?i1_DEC_2_BCD+1
  6279  0BE2  0820               	movf	i1DEC_2_BCD@data,w
  6280  0BE3  00F9               	movwf	?i1_DEC_2_BCD
  6281  0BE4                     i1l142:
  6282  0BE4  0008               	return
  6283  0BE5                     __end_ofi1_DEC_2_BCD:
  6284                           
  6285                           	psect	text36
  6286  0DAB                     __ptext36:	
  6287 ;; *************** function i1___awmod *****************
  6288 ;; Defined at:
  6289 ;;		line 5 in file "C:\Program Files\Microchip\xc8\v2.32\pic\sources\c90\common\awmod.c"
  6290 ;; Parameters:    Size  Location     Type
  6291 ;;  divisor         2    0[COMMON] int 
  6292 ;;  dividend        2    2[COMMON] int 
  6293 ;; Auto vars:     Size  Location     Type
  6294 ;;  sign            1    6[COMMON] unsigned char 
  6295 ;;  counter         1    5[COMMON] unsigned char 
  6296 ;; Return value:  Size  Location     Type
  6297 ;;                  2    0[COMMON] int 
  6298 ;; Registers used:
  6299 ;;		wreg, status,2, status,0
  6300 ;; Tracked objects:
  6301 ;;		On entry : 0/0
  6302 ;;		On exit  : 0/0
  6303 ;;		Unchanged: 0/0
  6304 ;; Data sizes:     COMMON   BANK0   BANK1   BANK3   BANK2
  6305 ;;      Params:         4       0       0       0       0
  6306 ;;      Locals:         2       0       0       0       0
  6307 ;;      Temps:          1       0       0       0       0
  6308 ;;      Totals:         7       0       0       0       0
  6309 ;;Total ram usage:        7 bytes
  6310 ;; Hardware stack levels used: 1
  6311 ;; This function calls:
  6312 ;;		Nothing
  6313 ;; This function is called by:
  6314 ;;		i1_DEC_2_BCD
  6315 ;; This function uses a non-reentrant model
  6316 ;;
  6317                           
  6318                           
  6319                           ;psect for function i1___awmod
  6320  0DAB                     i1___awmod:
  6321  0DAB                     i1l2011:	
  6322                           ;incstack = 0
  6323                           ; Regs used in i1___awmod: [wreg+status,2+status,0]
  6324                           
  6325  0DAB  01F6               	clrf	i1___awmod@sign
  6326  0DAC                     i1l2013:
  6327  0DAC  1FF3               	btfss	i1___awmod@dividend+1,7
  6328  0DAD  2DAF               	goto	u137_21
  6329  0DAE  2DB0               	goto	u137_20
  6330  0DAF                     u137_21:
  6331  0DAF  2DB7               	goto	i1l2019
  6332  0DB0                     u137_20:
  6333  0DB0                     i1l2015:
  6334  0DB0  09F2               	comf	i1___awmod@dividend,f
  6335  0DB1  09F3               	comf	i1___awmod@dividend+1,f
  6336  0DB2  0AF2               	incf	i1___awmod@dividend,f
  6337  0DB3  1903               	skipnz
  6338  0DB4  0AF3               	incf	i1___awmod@dividend+1,f
  6339  0DB5                     i1l2017:
  6340  0DB5  01F6               	clrf	i1___awmod@sign
  6341  0DB6  0AF6               	incf	i1___awmod@sign,f
  6342  0DB7                     i1l2019:
  6343  0DB7  1FF1               	btfss	i1___awmod@divisor+1,7
  6344  0DB8  2DBA               	goto	u138_21
  6345  0DB9  2DBB               	goto	u138_20
  6346  0DBA                     u138_21:
  6347  0DBA  2DC0               	goto	i1l2023
  6348  0DBB                     u138_20:
  6349  0DBB                     i1l2021:
  6350  0DBB  09F0               	comf	i1___awmod@divisor,f
  6351  0DBC  09F1               	comf	i1___awmod@divisor+1,f
  6352  0DBD  0AF0               	incf	i1___awmod@divisor,f
  6353  0DBE  1903               	skipnz
  6354  0DBF  0AF1               	incf	i1___awmod@divisor+1,f
  6355  0DC0                     i1l2023:
  6356  0DC0  0870               	movf	i1___awmod@divisor,w
  6357  0DC1  0471               	iorwf	i1___awmod@divisor+1,w
  6358  0DC2  1903               	btfsc	3,2
  6359  0DC3  2DC5               	goto	u139_21
  6360  0DC4  2DC6               	goto	u139_20
  6361  0DC5                     u139_21:
  6362  0DC5  2DF5               	goto	i1l2041
  6363  0DC6                     u139_20:
  6364  0DC6                     i1l2025:
  6365  0DC6  01F5               	clrf	i1___awmod@counter
  6366  0DC7  0AF5               	incf	i1___awmod@counter,f
  6367  0DC8  2DD4               	goto	i1l2031
  6368  0DC9                     i1l2027:
  6369  0DC9  3001               	movlw	1
  6370  0DCA                     u140_25:
  6371  0DCA  1003               	clrc
  6372  0DCB  0DF0               	rlf	i1___awmod@divisor,f
  6373  0DCC  0DF1               	rlf	i1___awmod@divisor+1,f
  6374  0DCD  3EFF               	addlw	-1
  6375  0DCE  1D03               	skipz
  6376  0DCF  2DCA               	goto	u140_25
  6377  0DD0                     i1l2029:
  6378  0DD0  3001               	movlw	1
  6379  0DD1  00F4               	movwf	??i1___awmod
  6380  0DD2  0874               	movf	??i1___awmod,w
  6381  0DD3  07F5               	addwf	i1___awmod@counter,f
  6382  0DD4                     i1l2031:
  6383  0DD4  1FF1               	btfss	i1___awmod@divisor+1,7
  6384  0DD5  2DD7               	goto	u141_21
  6385  0DD6  2DD8               	goto	u141_20
  6386  0DD7                     u141_21:
  6387  0DD7  2DC9               	goto	i1l2027
  6388  0DD8                     u141_20:
  6389  0DD8                     i1l2033:
  6390  0DD8  0871               	movf	i1___awmod@divisor+1,w
  6391  0DD9  0273               	subwf	i1___awmod@dividend+1,w
  6392  0DDA  1D03               	skipz
  6393  0DDB  2DDE               	goto	u142_25
  6394  0DDC  0870               	movf	i1___awmod@divisor,w
  6395  0DDD  0272               	subwf	i1___awmod@dividend,w
  6396  0DDE                     u142_25:
  6397  0DDE  1C03               	skipc
  6398  0DDF  2DE1               	goto	u142_21
  6399  0DE0  2DE2               	goto	u142_20
  6400  0DE1                     u142_21:
  6401  0DE1  2DE8               	goto	i1l2037
  6402  0DE2                     u142_20:
  6403  0DE2                     i1l2035:
  6404  0DE2  0870               	movf	i1___awmod@divisor,w
  6405  0DE3  02F2               	subwf	i1___awmod@dividend,f
  6406  0DE4  0871               	movf	i1___awmod@divisor+1,w
  6407  0DE5  1C03               	skipc
  6408  0DE6  03F3               	decf	i1___awmod@dividend+1,f
  6409  0DE7  02F3               	subwf	i1___awmod@dividend+1,f
  6410  0DE8                     i1l2037:
  6411  0DE8  3001               	movlw	1
  6412  0DE9                     u143_25:
  6413  0DE9  1003               	clrc
  6414  0DEA  0CF1               	rrf	i1___awmod@divisor+1,f
  6415  0DEB  0CF0               	rrf	i1___awmod@divisor,f
  6416  0DEC  3EFF               	addlw	-1
  6417  0DED  1D03               	skipz
  6418  0DEE  2DE9               	goto	u143_25
  6419  0DEF                     i1l2039:
  6420  0DEF  3001               	movlw	1
  6421  0DF0  02F5               	subwf	i1___awmod@counter,f
  6422  0DF1  1D03               	btfss	3,2
  6423  0DF2  2DF4               	goto	u144_21
  6424  0DF3  2DF5               	goto	u144_20
  6425  0DF4                     u144_21:
  6426  0DF4  2DD8               	goto	i1l2033
  6427  0DF5                     u144_20:
  6428  0DF5                     i1l2041:
  6429  0DF5  0876               	movf	i1___awmod@sign,w
  6430  0DF6  1903               	btfsc	3,2
  6431  0DF7  2DF9               	goto	u145_21
  6432  0DF8  2DFA               	goto	u145_20
  6433  0DF9                     u145_21:
  6434  0DF9  2DFF               	goto	i1l2045
  6435  0DFA                     u145_20:
  6436  0DFA                     i1l2043:
  6437  0DFA  09F2               	comf	i1___awmod@dividend,f
  6438  0DFB  09F3               	comf	i1___awmod@dividend+1,f
  6439  0DFC  0AF2               	incf	i1___awmod@dividend,f
  6440  0DFD  1903               	skipnz
  6441  0DFE  0AF3               	incf	i1___awmod@dividend+1,f
  6442  0DFF                     i1l2045:
  6443  0DFF  0873               	movf	i1___awmod@dividend+1,w
  6444  0E00  00F1               	movwf	?i1___awmod+1
  6445  0E01  0872               	movf	i1___awmod@dividend,w
  6446  0E02  00F0               	movwf	?i1___awmod
  6447  0E03                     i1l560:
  6448  0E03  0008               	return
  6449  0E04                     __end_ofi1___awmod:
  6450                           
  6451                           	psect	text37
  6452  0E5F                     __ptext37:	
  6453 ;; *************** function i1___awdiv *****************
  6454 ;; Defined at:
  6455 ;;		line 5 in file "C:\Program Files\Microchip\xc8\v2.32\pic\sources\c90\common\awdiv.c"
  6456 ;; Parameters:    Size  Location     Type
  6457 ;;  divisor         2    0[COMMON] int 
  6458 ;;  dividend        2    2[COMMON] int 
  6459 ;; Auto vars:     Size  Location     Type
  6460 ;;  quotient        2    7[COMMON] int 
  6461 ;;  sign            1    6[COMMON] unsigned char 
  6462 ;;  counter         1    5[COMMON] unsigned char 
  6463 ;; Return value:  Size  Location     Type
  6464 ;;                  2    0[COMMON] int 
  6465 ;; Registers used:
  6466 ;;		wreg, status,2, status,0
  6467 ;; Tracked objects:
  6468 ;;		On entry : 0/0
  6469 ;;		On exit  : 0/0
  6470 ;;		Unchanged: 0/0
  6471 ;; Data sizes:     COMMON   BANK0   BANK1   BANK3   BANK2
  6472 ;;      Params:         4       0       0       0       0
  6473 ;;      Locals:         4       0       0       0       0
  6474 ;;      Temps:          1       0       0       0       0
  6475 ;;      Totals:         9       0       0       0       0
  6476 ;;Total ram usage:        9 bytes
  6477 ;; Hardware stack levels used: 1
  6478 ;; This function calls:
  6479 ;;		Nothing
  6480 ;; This function is called by:
  6481 ;;		i1_DEC_2_BCD
  6482 ;; This function uses a non-reentrant model
  6483 ;;
  6484                           
  6485                           
  6486                           ;psect for function i1___awdiv
  6487  0E5F                     i1___awdiv:
  6488  0E5F                     i1l1967:	
  6489                           ;incstack = 0
  6490                           ; Regs used in i1___awdiv: [wreg+status,2+status,0]
  6491                           
  6492  0E5F  01F6               	clrf	i1___awdiv@sign
  6493  0E60                     i1l1969:
  6494  0E60  1FF1               	btfss	i1___awdiv@divisor+1,7
  6495  0E61  2E63               	goto	u127_21
  6496  0E62  2E64               	goto	u127_20
  6497  0E63                     u127_21:
  6498  0E63  2E6B               	goto	i1l1975
  6499  0E64                     u127_20:
  6500  0E64                     i1l1971:
  6501  0E64  09F0               	comf	i1___awdiv@divisor,f
  6502  0E65  09F1               	comf	i1___awdiv@divisor+1,f
  6503  0E66  0AF0               	incf	i1___awdiv@divisor,f
  6504  0E67  1903               	skipnz
  6505  0E68  0AF1               	incf	i1___awdiv@divisor+1,f
  6506  0E69                     i1l1973:
  6507  0E69  01F6               	clrf	i1___awdiv@sign
  6508  0E6A  0AF6               	incf	i1___awdiv@sign,f
  6509  0E6B                     i1l1975:
  6510  0E6B  1FF3               	btfss	i1___awdiv@dividend+1,7
  6511  0E6C  2E6E               	goto	u128_21
  6512  0E6D  2E6F               	goto	u128_20
  6513  0E6E                     u128_21:
  6514  0E6E  2E78               	goto	i1l1981
  6515  0E6F                     u128_20:
  6516  0E6F                     i1l1977:
  6517  0E6F  09F2               	comf	i1___awdiv@dividend,f
  6518  0E70  09F3               	comf	i1___awdiv@dividend+1,f
  6519  0E71  0AF2               	incf	i1___awdiv@dividend,f
  6520  0E72  1903               	skipnz
  6521  0E73  0AF3               	incf	i1___awdiv@dividend+1,f
  6522  0E74                     i1l1979:
  6523  0E74  3001               	movlw	1
  6524  0E75  00F4               	movwf	??i1___awdiv
  6525  0E76  0874               	movf	??i1___awdiv,w
  6526  0E77  06F6               	xorwf	i1___awdiv@sign,f
  6527  0E78                     i1l1981:
  6528  0E78  01F7               	clrf	i1___awdiv@quotient
  6529  0E79  01F8               	clrf	i1___awdiv@quotient+1
  6530  0E7A                     i1l1983:
  6531  0E7A  0870               	movf	i1___awdiv@divisor,w
  6532  0E7B  0471               	iorwf	i1___awdiv@divisor+1,w
  6533  0E7C  1903               	btfsc	3,2
  6534  0E7D  2E7F               	goto	u129_21
  6535  0E7E  2E80               	goto	u129_20
  6536  0E7F                     u129_21:
  6537  0E7F  2EB7               	goto	i1l2003
  6538  0E80                     u129_20:
  6539  0E80                     i1l1985:
  6540  0E80  01F5               	clrf	i1___awdiv@counter
  6541  0E81  0AF5               	incf	i1___awdiv@counter,f
  6542  0E82  2E8E               	goto	i1l1991
  6543  0E83                     i1l1987:
  6544  0E83  3001               	movlw	1
  6545  0E84                     u130_25:
  6546  0E84  1003               	clrc
  6547  0E85  0DF0               	rlf	i1___awdiv@divisor,f
  6548  0E86  0DF1               	rlf	i1___awdiv@divisor+1,f
  6549  0E87  3EFF               	addlw	-1
  6550  0E88  1D03               	skipz
  6551  0E89  2E84               	goto	u130_25
  6552  0E8A                     i1l1989:
  6553  0E8A  3001               	movlw	1
  6554  0E8B  00F4               	movwf	??i1___awdiv
  6555  0E8C  0874               	movf	??i1___awdiv,w
  6556  0E8D  07F5               	addwf	i1___awdiv@counter,f
  6557  0E8E                     i1l1991:
  6558  0E8E  1FF1               	btfss	i1___awdiv@divisor+1,7
  6559  0E8F  2E91               	goto	u131_21
  6560  0E90  2E92               	goto	u131_20
  6561  0E91                     u131_21:
  6562  0E91  2E83               	goto	i1l1987
  6563  0E92                     u131_20:
  6564  0E92                     i1l1993:
  6565  0E92  3001               	movlw	1
  6566  0E93                     u132_25:
  6567  0E93  1003               	clrc
  6568  0E94  0DF7               	rlf	i1___awdiv@quotient,f
  6569  0E95  0DF8               	rlf	i1___awdiv@quotient+1,f
  6570  0E96  3EFF               	addlw	-1
  6571  0E97  1D03               	skipz
  6572  0E98  2E93               	goto	u132_25
  6573  0E99  0871               	movf	i1___awdiv@divisor+1,w
  6574  0E9A  0273               	subwf	i1___awdiv@dividend+1,w
  6575  0E9B  1D03               	skipz
  6576  0E9C  2E9F               	goto	u133_25
  6577  0E9D  0870               	movf	i1___awdiv@divisor,w
  6578  0E9E  0272               	subwf	i1___awdiv@dividend,w
  6579  0E9F                     u133_25:
  6580  0E9F  1C03               	skipc
  6581  0EA0  2EA2               	goto	u133_21
  6582  0EA1  2EA3               	goto	u133_20
  6583  0EA2                     u133_21:
  6584  0EA2  2EAA               	goto	i1l1999
  6585  0EA3                     u133_20:
  6586  0EA3                     i1l1995:
  6587  0EA3  0870               	movf	i1___awdiv@divisor,w
  6588  0EA4  02F2               	subwf	i1___awdiv@dividend,f
  6589  0EA5  0871               	movf	i1___awdiv@divisor+1,w
  6590  0EA6  1C03               	skipc
  6591  0EA7  03F3               	decf	i1___awdiv@dividend+1,f
  6592  0EA8  02F3               	subwf	i1___awdiv@dividend+1,f
  6593  0EA9                     i1l1997:
  6594  0EA9  1477               	bsf	i1___awdiv@quotient,0
  6595  0EAA                     i1l1999:
  6596  0EAA  3001               	movlw	1
  6597  0EAB                     u134_25:
  6598  0EAB  1003               	clrc
  6599  0EAC  0CF1               	rrf	i1___awdiv@divisor+1,f
  6600  0EAD  0CF0               	rrf	i1___awdiv@divisor,f
  6601  0EAE  3EFF               	addlw	-1
  6602  0EAF  1D03               	skipz
  6603  0EB0  2EAB               	goto	u134_25
  6604  0EB1                     i1l2001:
  6605  0EB1  3001               	movlw	1
  6606  0EB2  02F5               	subwf	i1___awdiv@counter,f
  6607  0EB3  1D03               	btfss	3,2
  6608  0EB4  2EB6               	goto	u135_21
  6609  0EB5  2EB7               	goto	u135_20
  6610  0EB6                     u135_21:
  6611  0EB6  2E92               	goto	i1l1993
  6612  0EB7                     u135_20:
  6613  0EB7                     i1l2003:
  6614  0EB7  0876               	movf	i1___awdiv@sign,w
  6615  0EB8  1903               	btfsc	3,2
  6616  0EB9  2EBB               	goto	u136_21
  6617  0EBA  2EBC               	goto	u136_20
  6618  0EBB                     u136_21:
  6619  0EBB  2EC1               	goto	i1l2007
  6620  0EBC                     u136_20:
  6621  0EBC                     i1l2005:
  6622  0EBC  09F7               	comf	i1___awdiv@quotient,f
  6623  0EBD  09F8               	comf	i1___awdiv@quotient+1,f
  6624  0EBE  0AF7               	incf	i1___awdiv@quotient,f
  6625  0EBF  1903               	skipnz
  6626  0EC0  0AF8               	incf	i1___awdiv@quotient+1,f
  6627  0EC1                     i1l2007:
  6628  0EC1  0878               	movf	i1___awdiv@quotient+1,w
  6629  0EC2  00F1               	movwf	?i1___awdiv+1
  6630  0EC3  0877               	movf	i1___awdiv@quotient,w
  6631  0EC4  00F0               	movwf	?i1___awdiv
  6632  0EC5                     i1l547:
  6633  0EC5  0008               	return
  6634  0EC6                     __end_ofi1___awdiv:
  6635  007E                     btemp	set	126	;btemp
  6636  007E                     wtemp0	set	126
  6637                           
  6638                           	psect	config
  6639                           
  6640                           ;Config register CONFIG @ 0x2007
  6641                           ;	Oscillator Selection bits
  6642                           ;	FOSC = HS, HS oscillator
  6643                           ;	Watchdog Timer Enable bit
  6644                           ;	WDTE = OFF, WDT disabled
  6645                           ;	Power-up Timer Enable bit
  6646                           ;	PWRTE = OFF, PWRT disabled
  6647                           ;	Brown-out Reset Enable bit
  6648                           ;	BOREN = OFF, BOR disabled
  6649                           ;	Low-Voltage (Single-Supply) In-Circuit Serial Programming Enable bit
  6650                           ;	LVP = OFF, RB3 is digital I/O, HV on MCLR must be used for programming
  6651                           ;	Data EEPROM Memory Code Protection bit
  6652                           ;	CPD = OFF, Data EEPROM code protection off
  6653                           ;	Flash Program Memory Write Enable bits
  6654                           ;	WRT = OFF, Write protection off; all program memory may be written to by EECON control
  6655                           ;	In-Circuit Debugger Mode bit
  6656                           ;	DEBUG = 0x1, unprogrammed default
  6657                           ;	Flash Program Memory Code Protection bit
  6658                           ;	CP = OFF, Code protection off
  6659  2007                     	org	8199
  6660  2007  3F3A               	dw	16186

Data Sizes:
    Strings     99
    Constant    76
    Data        14
    BSS         23
    Persistent  0
    Stack       0

Auto Spaces:
    Space          Size  Autos    Used
    COMMON           14     13      13
    BANK0            80     36      57
    BANK1            80     22      38
    BANK3            96      0       0
    BANK2            96      0       0

Pointer List with Targets:

    LCDWRITE@P	PTR const unsigned char  size(1) Largest target is 15
		 -> STR_13(CODE[6]), STR_12(CODE[7]), STR_11(CODE[14]), STR_10(CODE[14]), 
		 -> STR_9(CODE[14]), STR_8(CODE[14]), STR_7(CODE[2]), STR_6(CODE[2]), 
		 -> STR_5(CODE[15]), STR_4(CODE[13]), STR_3(CODE[13]), STR_2(CODE[13]), 
		 -> STR_1(CODE[13]), 


Critical Paths under _main in COMMON

    None.

Critical Paths under _ISR in COMMON

    i1_Set_Time_Date->i1_DEC_2_BCD
    i1_I2C_Write->i1_DEC_2_BCD
    i1_DEC_2_BCD->i1___awdiv

Critical Paths under _main in BANK0

    _main->_I2C_Initialize
    _config->_delay1
    _WIND->_LCDWRITE
    _Update_Current_Date_Time->_I2C_Write
    _BCD_2_DEC->_I2C_Read
    _BCD_2_DEC->___wmul
    _Set_Time_Date->_I2C_Write
    _I2C_Write->_DEC_2_BCD
    _DEC_2_BCD->___awdiv
    _SOLAR->_LCDWRITE
    _PHCN->_LCDWRITE
    _LCDNUM->___awdiv
    _I2C_Initialize->___lldiv
    _CLRDISP->_delay1
    _BIOGAS->_LCDWRITE
    _CLOCK->_delay2

Critical Paths under _ISR in BANK0

    i1_Set_Time_Date->i1_I2C_Write
    i1_I2C_Write->i1_DEC_2_BCD

Critical Paths under _main in BANK1

    None.

Critical Paths under _ISR in BANK1

    None.

Critical Paths under _main in BANK3

    None.

Critical Paths under _ISR in BANK3

    None.

Critical Paths under _main in BANK2

    None.

Critical Paths under _ISR in BANK2

    None.

Call Graph Tables:

 ---------------------------------------------------------------------------------
 (Depth) Function   	        Calls       Base Space   Used Autos Params    Refs
 ---------------------------------------------------------------------------------
 (0) _main                                                24    24      0   15292
                                             34 BANK0      2     2      0
                                              0 BANK1     22    22      0
                             _BIOGAS
                            _CLRDISP
                             _CURSOR
                     _I2C_Initialize
                             _LCDNUM
                           _LCDWRITE
                               _PHCN
                              _SOLAR
                      _Set_Time_Date
           _Update_Current_Date_Time
                               _WIND
                             _config
 ---------------------------------------------------------------------------------
 (1) _config                                               0     0      0       0
                              _CLOCK
                             _delay1
 ---------------------------------------------------------------------------------
 (1) _WIND                                                 3     3      0    1339
                                             20 BANK0      3     3      0
                             _CURSOR
                           _LCDWRITE
 ---------------------------------------------------------------------------------
 (1) _Update_Current_Date_Time                             0     0      0    2202
                          _BCD_2_DEC
                          _I2C_Begin
                            _I2C_End
                           _I2C_Read
                        _I2C_Restart
                          _I2C_Write
 ---------------------------------------------------------------------------------
 (2) _I2C_Restart                                          0     0      0       0
                           _I2C_Hold
 ---------------------------------------------------------------------------------
 (2) _I2C_Read                                             6     4      2     577
                                             12 BANK0      6     4      2
                           _I2C_Hold
 ---------------------------------------------------------------------------------
 (2) _BCD_2_DEC                                            6     4      2     691
                                             18 BANK0      6     4      2
                           _I2C_Read (ARG)
                             ___wmul
 ---------------------------------------------------------------------------------
 (1) _Set_Time_Date                                        0     0      0    3041
                          _DEC_2_BCD
                          _I2C_Begin
                            _I2C_End
                          _I2C_Write
 ---------------------------------------------------------------------------------
 (2) _I2C_Write                                            2     0      2     934
                                             27 BANK0      2     0      2
                          _DEC_2_BCD (ARG)
                           _I2C_Hold
 ---------------------------------------------------------------------------------
 (2) _I2C_End                                              0     0      0       0
                           _I2C_Hold
 ---------------------------------------------------------------------------------
 (2) _I2C_Begin                                            0     0      0       0
                           _I2C_Hold
 ---------------------------------------------------------------------------------
 (3) _I2C_Hold                                             0     0      0       0
 ---------------------------------------------------------------------------------
 (2) _DEC_2_BCD                                            6     4      2    2107
                                             21 BANK0      6     4      2
                            ___awdiv
                            ___awmod
 ---------------------------------------------------------------------------------
 (1) _SOLAR                                                3     3      0    1339
                                             20 BANK0      3     3      0
                             _CURSOR
                           _LCDWRITE
 ---------------------------------------------------------------------------------
 (1) _PHCN                                                 3     3      0    1339
                                             20 BANK0      3     3      0
                             _CURSOR
                           _LCDWRITE
 ---------------------------------------------------------------------------------
 (1) _LCDNUM                                              10     8      2    2908
                                             21 BANK0     10     8      2
                            _LCDCHAR
                            ___awdiv
                            ___awmod
                             ___wmul
 ---------------------------------------------------------------------------------
 (3) ___wmul                                               6     2      4     396
                                             12 BANK0      6     2      4
 ---------------------------------------------------------------------------------
 (3) ___awmod                                              7     3      4     752
                                             12 BANK0      7     3      4
 ---------------------------------------------------------------------------------
 (3) ___awdiv                                              9     5      4    1060
                                             12 BANK0      9     5      4
 ---------------------------------------------------------------------------------
 (2) _LCDCHAR                                              5     5      0      90
                                             14 BANK0      5     5      0
                              _CLOCK
 ---------------------------------------------------------------------------------
 (1) _I2C_Initialize                                       8     4      4     412
                                             26 BANK0      8     4      4
                            ___lldiv
 ---------------------------------------------------------------------------------
 (2) ___lldiv                                             14     6      8     314
                                             12 BANK0     14     6      8
 ---------------------------------------------------------------------------------
 (1) _CLRDISP                                              0     0      0       0
                              _CLOCK
                             _delay1
 ---------------------------------------------------------------------------------
 (2) _delay1                                               2     2      0       0
                                             12 BANK0      2     2      0
 ---------------------------------------------------------------------------------
 (1) _BIOGAS                                               3     3      0    1339
                                             20 BANK0      3     3      0
                             _CURSOR
                           _LCDWRITE
 ---------------------------------------------------------------------------------
 (2) _LCDWRITE                                             6     6      0     609
                                             14 BANK0      6     6      0
                              _CLOCK
 ---------------------------------------------------------------------------------
 (2) _CURSOR                                               4     3      1     730
                                             14 BANK0      4     3      1
                              _CLOCK
 ---------------------------------------------------------------------------------
 (2) _CLOCK                                                0     0      0       0
                             _delay2
 ---------------------------------------------------------------------------------
 (3) _delay2                                               2     2      0       0
                                             12 BANK0      2     2      0
 ---------------------------------------------------------------------------------
 Estimated maximum stack depth 3
 ---------------------------------------------------------------------------------
 (Depth) Function   	        Calls       Base Space   Used Autos Params    Refs
 ---------------------------------------------------------------------------------
 (5) _ISR                                                  8     8      0    1124
                                              4 BANK0      8     8      0
                    i1_Set_Time_Date
 ---------------------------------------------------------------------------------
 (6) i1_Set_Time_Date                                      0     0      0    1101
                        i1_DEC_2_BCD
                        i1_I2C_Begin
                          i1_I2C_End
                        i1_I2C_Write
 ---------------------------------------------------------------------------------
 (7) i1_I2C_Write                                          2     0      2     256
                                              2 BANK0      2     0      2
                        i1_DEC_2_BCD (ARG)
                         i1_I2C_Hold
 ---------------------------------------------------------------------------------
 (7) i1_I2C_End                                            0     0      0       0
                         i1_I2C_Hold
 ---------------------------------------------------------------------------------
 (7) i1_I2C_Begin                                          0     0      0       0
                         i1_I2C_Hold
 ---------------------------------------------------------------------------------
 (8) i1_I2C_Hold                                           0     0      0       0
 ---------------------------------------------------------------------------------
 (7) i1_DEC_2_BCD                                          6     4      2     845
                                              9 COMMON     4     2      2
                                              0 BANK0      2     2      0
                          i1___awdiv
                          i1___awmod
 ---------------------------------------------------------------------------------
 (8) i1___awmod                                            7     3      4     348
                                              0 COMMON     7     3      4
 ---------------------------------------------------------------------------------
 (8) i1___awdiv                                            9     5      4     352
                                              0 COMMON     9     5      4
 ---------------------------------------------------------------------------------
 Estimated maximum stack depth 8
 ---------------------------------------------------------------------------------

 Call Graph Graphs:

 _main (ROOT)
   _BIOGAS
     _CURSOR
       _CLOCK
         _delay2
     _LCDWRITE
       _CLOCK
   _CLRDISP
     _CLOCK
     _delay1
   _CURSOR
   _I2C_Initialize
     ___lldiv
   _LCDNUM
     _LCDCHAR
       _CLOCK
     ___awdiv
     ___awmod
     ___wmul
   _LCDWRITE
   _PHCN
     _CURSOR
     _LCDWRITE
   _SOLAR
     _CURSOR
     _LCDWRITE
   _Set_Time_Date
     _DEC_2_BCD
       ___awdiv
       ___awmod
     _I2C_Begin
       _I2C_Hold
     _I2C_End
       _I2C_Hold
     _I2C_Write
       _DEC_2_BCD (ARG)
       _I2C_Hold (ARG)
   _Update_Current_Date_Time
     _BCD_2_DEC
       _I2C_Read (ARG)
         _I2C_Hold
       ___wmul (ARG)
     _I2C_Begin
     _I2C_End
     _I2C_Read
     _I2C_Restart
       _I2C_Hold
     _I2C_Write
   _WIND
     _CURSOR
     _LCDWRITE
   _config
     _CLOCK
     _delay1

 _ISR (ROOT)
   i1_Set_Time_Date
     i1_DEC_2_BCD
       i1___awdiv
       i1___awmod
     i1_I2C_Begin
       i1_I2C_Hold
     i1_I2C_End
       i1_I2C_Hold
     i1_I2C_Write
       i1_DEC_2_BCD (ARG)
       i1_I2C_Hold (ARG)

 Address spaces:
Name               Size   Autos  Total    Cost      Usage
BANK3               60      0       0       9        0.0%
BITBANK3            60      0       0       8        0.0%
SFR3                 0      0       0       4        0.0%
BITSFR3              0      0       0       4        0.0%
BANK2               60      0       0      11        0.0%
BITBANK2            60      0       0      10        0.0%
SFR2                 0      0       0       5        0.0%
BITSFR2              0      0       0       5        0.0%
BANK1               50     16      26       7       47.5%
BITBANK1            50      0       0       6        0.0%
SFR1                 0      0       0       2        0.0%
BITSFR1              0      0       0       2        0.0%
BANK0               50     24      39       5       71.2%
BITBANK0            50      0       0       4        0.0%
SFR0                 0      0       0       1        0.0%
BITSFR0              0      0       0       1        0.0%
COMMON               E      D       D       1       92.9%
BITCOMMON            E      0       0       0        0.0%
CODE                 0      0       0       0        0.0%
DATA                 0      0      6C      12        0.0%
ABS                  0      0      6C       3        0.0%
NULL                 0      0       0       0        0.0%
STACK                0      0       0       2        0.0%
EEDATA             100      0       0       0        0.0%


Microchip Technology PIC Macro Assembler V2.32 build 20210201212658 
Symbol Table                                                                                   Sat Jul 24 10:58:19 2021

               __size_of_I2C_Begin 0009                                  pc 0002  
               __size_of_I2C_Write 000F                       ___awdiv@sign 0032  
               __size_of_DEC_2_BCD 003A                                 fsr 0004  
              ___wmul@multiplicand 002E                        ?i1_I2C_Hold 0070  
                  i1DEC_2_BCD@data 0020                                l121 0A3F  
                              l130 0BAE                                l115 0A7D  
                              l124 0A36                                l204 0FFF  
                              l109 0C1E                                l230 0D1B  
                              l142 0C58                                l118 0A2D  
                              l127 0A9B                                l223 0D23  
                              l240 0CDA                                l161 0AAC  
                              l233 0C60                                l145 06FD  
                              l225 0D5C                                l235 0C99  
                              l155 0A57                                l171 0516  
                              l139 0B7F                                l164 0B52  
                              l228 0CE2                                l148 066F  
                              l261 0150                                l158 0A4B  
                              l430 0F2D                                l238 0CA1  
                              l264 0173                                l177 0DAA  
                              l273 0215                                l257 0215  
                              l258 012D                                l195 0B00  
                              l267 0196                                l198 0ADC  
                              l560 0E5E                                l394 0B0F  
                              l547 0F96                                l396 0B27  
                              _GIE 005F                                _RB4 0034  
                              _RD0 0040                                _RD1 0041  
                              _RB6 0036                                _RD2 0042  
                              _RC4 003C                                _RD3 0043  
                              _RC5 003D                                _RD4 0044  
                              _RC6 003E                                _RD5 0045  
                              _RC7 003F                                _PEN 048A  
                              _ISR 078C                                _SEN 0488  
                              _NUM 00C2                    __end_of_I2C_End 0A37  
                              _min 0052                                _sec 0054  
                              fsr0 0004                                indf 0000  
                     ___awmod@sign 0032                    __end_of_CLRDISP 0ADD  
                  __end_of_LCDCHAR 0B53                       ?i1_I2C_Begin 0070  
             __size_of_I2C_Restart 0009                               ?_ISR 0070  
                     ?i1_I2C_Write 0022                               l2101 0B2B  
                             l2111 0B47                               l2103 0B38  
                             l2121 0D83                               l2113 0B4D  
                             l2105 0B3D                               l2123 0D87  
                             l2131 0D9D                               l2115 0D60  
                             l2211 0C1C                               l2203 0BE5  
                             l2107 0B3E                               l2051 0A2A  
                             l2141 0AF5                               l2133 0AE0  
                             l2125 0D8C                               l2117 0D62  
                             l2213 0C1D                               l2205 0BE9  
                             l2109 0B42                               l2221 043C  
                             l2061 0A8D                               l2053 0A37  
                             l2301 0D40                               l2143 0AFB  
                             l2127 0D92                               l2119 0D82  
                             l2207 0BEC                               l2231 04AE  
                             l2223 0478                               l2063 0A92  
                             l2215 0670                               l2071 0B80  
                             l2055 0A3C                               l2311 0D5A  
                             l2303 0D46                               l2137 0AE2  
                             l2129 0D97                               l2241 0AC0  
                             l2161 0EE8                               l2209 0BED  
                             l2233 04B6                               l2225 0480  
                             l2321 0CEA                               l2049 0A25  
                             l2057 0A2E                               l2065 0A96  
                             l2081 0BA7                               l2073 0B85  
                             l2217 05CC                               l2313 0D5B  
                             l2305 0D47                               l2139 0AF0  
                             l2243 0AC4                               l2171 0F16  
                             l2163 0EEC                               l2155 0EC6  
                             l2227 0494                               l2235 04BF  
                             l2219 042D                               l2331 0D15  
                             l2323 0CF0                               l2315 0CDB  
                             l2091 0C1F                               l2059 0A33  
                             l2067 0A9B                               l2075 0B8D  
                             l2307 0D56                               l2251 0F97  
                             l2245 0AC7                               l2173 0F1F  
                             l2165 0EF5                               l2157 0ED8  
                             l2237 04CE                               l2229 04A8  
                             l2333 0D18                               l2325 0CFF  
                             l2093 0C54                               l2085 0B53  
                             l2077 0B96                               l2309 0D59  
                             l2261 0FB2                               l2253 0F9D  
                             l2351 0C83                               l2343 0C61  
                             l2247 0ACC                               l2167 0F07  
                             l2159 0EDB                               l2175 0F25  
                             l2239 0507                               l2335 0D19  
                             l2327 0D05                               l2319 0CE3  
                             l2087 0B7B                               l2079 0B9B  
                             l2271 0FD3                               l2263 0FBB  
                             l2255 0F9F                               l2361 0C98  
                             l2353 0C84                               l2345 0C68  
                             l2097 0A4C                               l2169 0F15  
                             l2337 0D1A                               l2329 0D06  
                             l2281 0FE9                               l2273 0FD6  
                             l2265 0FC0                               l2257 0FA4  
                             l2355 0C93                               l2347 0C6E  
                             l2339 0C59                               l2371 0CAF  
                             l2363 0C9A                               l2291 0D1C  
                             l2283 0FF1                               l2275 0FDB  
                             l2267 0FC9                               l2259 0FAD  
                             l2357 0C96                               l2349 0C7D  
                             l1901 0F5B                               l2381 0CD7  
                             l2373 0CBE                               l2285 0FF5  
                             l2277 0FDF                               l2269 0FCE  
                             l2359 0C97                               l1911 0F7B  
                             l1903 0F5F                               l2383 0CD8  
                             l2375 0CC4                               l2367 0CA2  
                             l2295 0D24                               l2287 0FFA  
                             l2279 0FE4                               l2711 003F  
                             l1913 0F82                               l1905 0F63  
                             l2385 0CD9                               l2377 0CC5  
                             l2369 0CA9                               l2297 0D2B  
                             l2801 0163                               l2721 0056  
                             l2713 0045                               l1907 0F74  
                             l1915 0F88                               l1931 0E12  
                             l1923 0E04                               l2379 0CD4  
                             l1851 0A71                               l2299 0D31  
                             l2811 018C                               l2803 0169  
                             l2731 0062                               l2723 0058  
                             l2715 0049                               l1861 0AA4  
                             l1917 0F8D                               l1909 0F7A  
                             l1941 0E2B                               l1933 0E16  
                             l1925 0E07                               l1853 0A71  
                             l2901 0365                               l2821 01B4  
                             l2813 0193                               l2805 0170  
                             l2741 006C                               l2733 0066  
                             l2725 0059                               l2717 004D  
                             l1847 0A40                               l1919 0F92  
                             l1951 0E4A                               l1943 0E2F  
                             l1935 0E1B                               l1927 0E0B  
                             l1871 0B16                               l1855 0A79  
                             l2911 03F8                               l2903 036A  
                             l2831 01ED                               l2823 01C1  
                             l2815 019A                               l2807 0177  
                             l2751 0085                               l2743 006F  
                             l2735 0069                               l2727 005D  
                             l2719 0051                               l1857 0A9C  
                             l1881 0F31                               l1945 0E33  
                             l1937 0E21                               l1953 0E50  
                             l1929 0E10                               l1873 0B1D  
                             l1865 0B01                               l2913 03FF  
                             l2921 0414                               l2905 0373  
                             l2841 0237                               l2833 01FC  
                             l2825 01CA                               l2817 01A9  
                             l2809 0186                               l2761 00A8  
                             l2753 008A                               l2745 007C  
                             l2737 006A                               l2729 005E  
                             l1859 0A9F                               l1891 0F45  
                             l1883 0F35                               l1955 0E55  
                             l1947 0E3D                               l1939 0E24  
                             l1875 0B23                               l1867 0B05  
                             l2915 0406                               l2907 03EA  
                             l2851 0297                               l2843 024E  
                             l2835 0205                               l2827 01D9  
                             l2819 01AE                               l2771 00C9  
                             l2763 00AE                               l2755 008F  
                             l2747 0081                               l2739 006B  
                             l1893 0F49                               l1885 0F3A  
                             l1957 0E5A                               l1949 0E43  
                             l1869 0B09                               l2917 040D  
                             l2909 03F1                               l2861 02C7  
                             l2853 029D                               l2845 0268  
                             l2829 01E8                               l2781 00F2  
                             l2773 00CF                               l2765 00AF  
                             l2757 0094                               l2749 0082  
                             l1895 0F4B                               l1887 0F3C  
                             l1879 0F2E                               l2871 02E8  
                             l2855 02AC                               l2863 02CC  
                             l2847 0285                               l2839 0221  
                             l2791 0131                               l2783 0111  
                             l2775 00DA                               l2767 00B0  
                             l2759 00A2                               l1897 0F51  
                             l1889 0F40                               l2873 02F7  
                             l2881 0317                               l2857 02B2  
                             l2849 028A                               l2865 02CF  
                             l2793 0140                               l2785 011F  
                             l2777 00E0                               l2769 00BE  
                             l1899 0F54                               l2891 0342  
                             l2875 02FD                               l2867 02D5  
                             l2883 031A                               l2859 02C1  
                             l2795 0146                               l2787 0123  
                             l2779 00EB                               l2893 0348  
                             l2885 0320                               l2877 030C  
                             l2869 02E2                               l2797 014D  
                             l2789 012A                               l2959 0419  
                             l2895 0357                               l2887 032D  
                             l2879 0312                               l2799 0154  
                             l2897 035D                               l2889 0333  
                             l2899 0362                               STR_1 05B0  
                     ?i1_DEC_2_BCD 0079                               STR_2 05B0  
                             STR_3 05B0                               STR_4 05B0  
                             STR_5 0569                               STR_6 05CA  
                             STR_7 05CA                               STR_8 0578  
                             STR_9 0586                               u1000 0A79  
                             u1001 0A78                               u1010 0A7D  
                             u1011 0A7C                               u1100 0F63  
                             u1020 0B09                               u1101 0F62  
                             u1021 0B08                               u1120 0F74  
                             u1200 0E33                               u2000 00FA  
                             u1121 0F73                               u1201 0E32  
                             u2001 00F6                               u1210 0E3D  
                             u1050 0B23                               u2010 0104  
                             u1115 0F64                               u1211 0E3C  
                             u1051 0B22                               u1035 0B10  
                             u2011 0100                               u1140 0F88  
                             u1060 0F35                               u2100 01D9  
                             u2020 010E                               u1141 0F87  
                             u1125 0F70                               u1061 0F34  
                             u1045 0B17                               u2101 01D8  
                             u2021 010A                               u1150 0F8D  
                             u1070 0F40                               u1230 0E50  
                             u2110 01E8                               u2014 00FD  
                             u1151 0F8C                               u1135 0F7C  
                             u1071 0F3F                               u1231 0E4F  
                             u1215 0E39                               u2111 01E7  
                             u1080 0F51                               u1240 0E55  
                             u1160 0E0B                               u2200 02F7  
                             u2120 01FC                               u2040 0131  
                             u2024 0107                               u1081 0F50  
                             u1241 0E54                               u1225 0E44  
                             u1161 0E0A                               u2201 02F6  
                             u2121 01FB                               u2105 01D5  
                             u2041 0130                               u1170 0E16  
                             u2210 030C                               u2130 0214  
                             u2050 0154                               u2034 0111  
                             u1171 0E15                               u2211 030B  
                             u2131 0213                               u2115 01E4  
                             u2051 0153                               u1500 0DAA  
                             u1180 0E21                               u2220 0320  
                             u2140 028A                               u2060 0177  
                             u1501 0DA9                               u1181 0E20  
                             u2221 031F                               u2205 02F3  
                             u2141 0289                               u2125 01F8  
                             u2061 0176                               u2230 032D  
                             u2150 0297                               u2070 019A  
                             u1095 0F55                               u2231 032C  
                             u2215 0308                               u2151 0296  
                             u2135 0210                               u2071 0199  
                             u1520 0ED8                               u1600 043C  
                             u2240 0342                               u2160 02AC  
                             u2080 01B4                               u1521 0ED7  
                             u1601 043B                               u2241 0341  
                             u2161 02AB                               u2081 01B3  
                             u1610 04CE                               u2250 0357  
                             u2170 02C1                               u2090 01C1  
                             u1515 0AE9                               u1195 0E25  
                             u1611 04CD                               u2251 0356  
                             u2235 0329                               u2171 02C0  
                             u2155 0293                               u2091 01C0  
                             u2307 0160                               u1540 0EEC  
                             u1460 0BA4                               u1620 0D22  
                             u2180 02D5                               u1541 0EEB  
                             u1605 0438                               u1461 0BA0  
                             u1621 0D21                               u2245 033E  
                             u2181 02D4                               u2165 02A8  
                             u2317 016D                               u1630 0CE1  
                             u2190 02E2                               u1535 0EDD  
                             u1615 04CA                               u2407 0CB7  
                             u1631 0CE0                               u2255 0353  
                             u2191 02E1                               u2175 02BD  
                             u2095 01BD                               u2327 0183  
                             u1640 0C5F                               u1560 0F07  
                             u1641 0C5E                               u1561 0F06  
                             u2417 0CCD                               u2337 0190  
                             u1650 0CA0                               u1474 0BA7  
                             u2427 0A52                               u1555 0EEE  
                             u1651 0C9F                               u2195 02DE  
                             u2347 01A6                               u2267 0119  
                             u1580 0F25                               u2437 0C76  
                             u1581 0F24                               u1565 0F03  
                             u1485 0B2E                               u2357 021C  
                             u2277 0127                               u1590 0BFD  
                             u1495 0D6C                               u2447 0C8C  
                             u1575 0F17                               u2367 0D39  
                             u2287 013D                               u2457 0A46  
                             u2377 0D4F                               u2297 014A  
                             u1595 0BF8                               u2387 0CF8  
                             u2397 0D0E                               _PEIE 005E  
                             u1990 00F2                               u1991 00F1  
                             _RCEN 048B                               _PHCN 0C9A  
                             _TMR0 0001                               _TMR1 000E  
                             _RSEN 0489                               _WIND 0D1C  
                             _main 003F                               _hour 0050  
                             _logo 00B6                   __end_of_I2C_Hold 0A7E  
                 __end_of_I2C_Read 0BAF                               btemp 007E  
                             start 0010                 __size_ofi1_I2C_End 0009  
                            ??_ISR 0024                   __end_of_LCDWRITE 0DAB  
                            ?_PHCN 0070                              ?_WIND 0070  
                            ?_main 0070                     i1___awdiv@sign 0076  
                            _ACKEN 048C                              _ACKDT 048D  
                  __end_of___awdiv 0F97                              STR_10 0594  
                            STR_11 05A2                              STR_12 05BD  
                            STR_13 05C4                    __end_of___awmod 0E5F  
                            _CLOCK 0A9C                    __end_of___lldiv 0F2E  
                  ___awdiv@divisor 002C                              _T1CON 0010  
                            i1l115 0A70                              i1l124 0A24  
                            i1l142 0BE4                              i1l118 0A1B  
                            i1l127 0A8C                              i1l145 078B  
                            i1l251 07F6                              i1l560 0E03  
                            i1l547 0EC5                    ___awdiv@counter 0031  
                            _PORTB 0006                              _PORTD 0008  
                            _SOLAR 0CDB                              _TRISA 0085  
                            _TRISB 0086                              _TRISD 0088  
                            _SSPIE 0463                     i1___awmod@sign 0076  
                __end_of_BCD_2_DEC 0B80                              _combo 0046  
                __end_of_I2C_Begin 0A2E                              _errno 0044  
                __end_of_I2C_Write 0A9C                              pclath 000A  
                __end_of_DEC_2_BCD 0C59                              status 0003  
                            wtemp0 007E                 __size_ofi1___awdiv 0067  
               __size_ofi1___awmod 0059                __size_ofi1_I2C_Hold 000D  
                     __end_of_PHCN 0CDB                       __end_of_WIND 0D5D  
                  __initialization 0013                       __end_of_main 042D  
                           ??_PHCN 0034                          ??_I2C_End 002C  
                           ??_WIND 0034                             ??_main 00A0  
                        ??_CLRDISP 002E                          ??_LCDCHAR 002E  
                           ?_CLOCK 0070                             ?_SOLAR 0070  
                __end_ofi1_I2C_End 0A25                             _ADCON0 001F  
                           _ADCON1 009F                             _ADRESH 001E  
                           _ADRESL 009E                   ___awdiv@dividend 002E  
                           _BIOGAS 0C59                             _LCDNUM 042D  
                           i1l2001 0EB1                             i1l2003 0EB7  
                           i1l2011 0DAB                             i1l2005 0EBC  
                           i1l2021 0DBB                             i1l2013 0DAC  
                           i1l2007 0EC1                             i1l2031 0DD4  
                           i1l2023 0DC0                             i1l2015 0DB0  
                           i1l2033 0DD8                             i1l2025 0DC6  
                           i1l2041 0DF5                             i1l2017 0DB5  
                           i1l2043 0DFA                             i1l2035 0DE2  
                           i1l2027 0DC9                             i1l2019 0DB7  
                           i1l2045 0DFF                             i1l2037 0DE8  
                           i1l2029 0DD0                             i1l2039 0DEF  
                           i1l2181 0A18                             i1l2183 0A1C  
                           i1l2191 0A87                             i1l2431 0790  
                           i1l2185 0A21                             i1l2193 0A8C  
                           i1l2441 07C0                             i1l2433 079E  
                           i1l2179 0A13                             i1l2187 0A7E  
                           i1l2451 07E4                             i1l2435 07A2  
                           i1l2443 07C4                             i1l2197 0BAF  
                           i1l2189 0A83                             i1l2461 07F3  
                           i1l2453 07E5                             i1l2445 07CA  
                           i1l2437 07A8                             i1l2429 078C  
                           i1l2199 0BE0                             i1l2455 07E6  
                           i1l2447 07D7                             i1l2439 07B5  
                           i1l2457 07E8                             i1l2449 07E0  
                           i1l2387 06FE                             i1l2459 07ED  
                           u130_25 0E84                             u131_20 0E92  
                           u131_21 0E91                             i1l1961 0A64  
                           i1l1971 0E64                             i1l1963 0A64  
                           i1l1981 0E78                             i1l1973 0E69  
                           i1l1965 0A6C                             i1l1991 0E8E  
                           i1l1983 0E7A                             i1l1975 0E6B  
                           i1l1967 0E5F                             i1l1993 0E92  
                           i1l1985 0E80                             i1l1977 0E6F  
                           i1l1969 0E60                             i1l1995 0EA3  
                           i1l1987 0E83                             i1l1979 0E74  
                           i1l1997 0EA9                             u132_25 0E93  
                           i1l1989 0E8A                             u140_25 0DCA  
                           i1l1999 0EAA                             u133_20 0EA3  
                           u141_20 0DD8                             u125_20 0A6C  
                           u133_21 0EA2                             u141_21 0DD7  
                           u125_21 0A6B                             _CURSOR 0ADD  
                           u133_25 0E9F                             u142_20 0DE2  
                           u126_20 0A70                             u142_21 0DE1  
                           u126_21 0A6F                             u134_25 0EAB  
                           u142_25 0DDE                             u135_20 0EB7  
                           u127_20 0E64                             u135_21 0EB6  
                           u127_21 0E63                             u143_25 0DE9  
                           u136_20 0EBC                             u128_20 0E6F  
                           u144_20 0DF5                             u136_21 0EBB  
                           u128_21 0E6E                             u144_21 0DF4  
                           u129_20 0E80                             u145_20 0DFA  
                           u137_20 0DB0                             u129_21 0E7F  
                           u145_21 0DF9                             u137_21 0DAF  
                           u138_20 0DBB                             u170_20 07CA  
                           u138_21 0DBA                             u170_21 07C9  
                           u139_20 0DC6                             u171_20 07D7  
                           u139_21 0DC5                             u171_21 07D6  
                           u171_25 07D3                             u246_27 0798  
                           u168_20 07A2                             u168_21 07A1  
                           u169_20 07B5                             u169_21 07B4  
                           u169_25 07B1                             _TMR0IE 005D  
                           _TMR0IF 005A                             _TMR1IE 0460  
                           _TMR1IF 0060                             _TMR1ON 0080  
                           _SSPADD 0093                             _TRISC0 0438  
                           _TRISC3 043B                             _TRISC4 043C  
                           _SSPCON 0014                             _SSPBUF 0013  
                           ___wmul 0B01                          ??___awdiv 0030  
                        ??___awmod 0030                             _delay1 0A4C  
                           _delay2 0A40                          ??___lldiv 0034  
                           _config 0F97                   ___awdiv@quotient 0033  
                  ___awmod@divisor 002C                    ___awmod@counter 0031  
          __size_of_I2C_Initialize 003A                             _thresh 0057  
         __size_ofi1_Set_Time_Date 008E   __end_of_Update_Current_Date_Time 0670  
                __end_ofi1___awdiv 0EC6                  __end_ofi1___awmod 0E04  
                        ?_I2C_Hold 0070                          ?_I2C_Read 002C  
                           saved_w 007E               __size_ofi1_I2C_Begin 0009  
                        LCDWRITE@P 0033                          LCDWRITE@i 0032  
                        LCDWRITE@j 0030                          LCDWRITE@k 0031  
                        ?_LCDWRITE 0070                   __end_ofexp@coeff 0545  
                 __end_oflog@coeff 0569            __end_of__initialization 003B  
             __size_ofi1_I2C_Write 000F               __size_ofi1_DEC_2_BCD 0036  
                     BCD_2_DEC@num 0032                      __end_of_CLOCK 0AAD  
                    __end_of_SOLAR 0D1C                     __pcstackCOMMON 0070  
                     __pidataBANK0 0A09                       __pidataBANK1 0A58  
                     ??i1_I2C_Hold 0070                            ??_CLOCK 002E  
                          ??_SOLAR 0034                         ??_I2C_Hold 002C  
                       ??_I2C_Read 002E                            ?_BIOGAS 0070  
                          LCDNUM@h 0038                            LCDNUM@r 003D  
                          LCDNUM@t 0039                            LCDNUM@u 003A  
                          ?_LCDNUM 0035                         __pbssBANK0 0044  
                       __pbssBANK1 00C2                         ??_LCDWRITE 002E  
                          ?_CURSOR 002E                            CURSOR@a 0031  
                          CURSOR@b 002E                 __end_ofi1_I2C_Hold 0A71  
                       __pmaintext 003F                       I2C_Read@data 0030  
                       _biogas_val 004A                            ?___wmul 002C  
                          ?_delay1 0070                            ?_delay2 0070  
                       __pintentry 0004                            ?_config 0070  
                          _I2C_End 0A2E                            _ACKSTAT 048E  
                          _CLRDISP 0AC0                            _LCDCHAR 0B28  
                    ??_I2C_Restart 002C                 i1___awdiv@dividend 0072  
         _Update_Current_Date_Time 05CC             __size_of_Set_Time_Date 008E  
                ??i1_Set_Time_Date 007D                            _SSPCON2 0091  
                          _SSPSTAT 0094                         __stringtab 0517  
                  __size_of_BIOGAS 0041                    __size_of_LCDNUM 00EA  
                        _BCD_2_DEC 0B53                    __size_of_CURSOR 0024  
                        _I2C_Begin 0A25                          _I2C_Write 0A8D  
                        _DEC_2_BCD 0C1F                 i1___awdiv@quotient 0077  
                          ___awdiv 0F2E                            ___awmod 0E04  
                          ___lldiv 0EC6                    __size_of___wmul 0027  
                  __size_of_delay1 000C                    __size_of_delay2 000C  
                  __size_of_config 0069                     _I2C_Initialize 0BE5  
                          __ptext1 0F97                            __ptext2 0D1C  
                          __ptext3 05CC                            __ptext4 0A37  
                          __ptext5 0B80                            __ptext6 0B53  
                          __ptext7 0670                            __ptext8 0A8D  
                          __ptext9 0A2E                       __size_of_ISR 0073  
                 ___awmod@dividend 002E                       DEC_2_BCD@num 0035  
                          clrloop0 0A0C                            main@out 0042  
              __end_of_I2C_Restart 0A40                          i1_I2C_End 0A1C  
             end_of_initialization 003B                         ?_BCD_2_DEC 0032  
                       ?_I2C_Begin 0070                         ?_I2C_Write 003B  
                       ?_DEC_2_BCD 0035                    ___lldiv@divisor 002C  
                  ___lldiv@counter 0039                      _Set_Time_Date 0670  
           __end_of_I2C_Initialize 0C1F                          _PORTBbits 0006  
                        _TRISBbits 0086                          i1___awdiv 0E5F  
                __size_of_I2C_Hold 000D                  __size_of_I2C_Read 002F  
                        i1___awmod 0DAB                      BCD_2_DEC@data 0036  
                       ?i1_I2C_End 0070                     i1DEC_2_BCD@num 0079  
                   __end_of_BIOGAS 0C9A                     __end_of_LCDNUM 0517  
                   __end_of_CURSOR 0B01                  __size_of_LCDWRITE 004E  
                   ?_Set_Time_Date 0070                    ?_I2C_Initialize 003A  
                   __end_of___wmul 0B28                     __end_of_delay1 0A58  
                   __end_of_delay2 0A4C                     __end_of_config 1000  
                      _I2C_Restart 0A37                start_initialization 0013  
                      __end_of_ISR 07FF                      ??i1_I2C_Begin 0070  
                       ?i1___awdiv 0070                         ?i1___awmod 0070  
                    ??i1_I2C_Write 007D                           ??_BIOGAS 0034  
                    ??i1_DEC_2_BCD 007B                           ??_LCDNUM 0037  
                         ??_CURSOR 002F                        ??_BCD_2_DEC 0034  
                      ??_I2C_Begin 002C                        ??_I2C_Write 003D  
                      ??_DEC_2_BCD 0037                           ??___wmul 0030  
                       init_fetch0 0AAD                           ??_delay1 002C  
                         ??_delay2 002C                           LCDCHAR@j 0031  
                         LCDCHAR@k 0030                           ??_config 002E  
                      __pdataBANK0 0057                        __pdataBANK1 00B6  
               i1___awmod@dividend 0072                           ?_I2C_End 0070  
       ??_Update_Current_Date_Time 003D                    i1_Set_Time_Date 06FE  
                         ?_CLRDISP 0070                           ?_LCDCHAR 0070  
                        ___latbits 0002                      __pcstackBANK0 0020  
                    __pcstackBANK1 00A0                        ??i1_I2C_End 0070  
              __end_ofi1_I2C_Begin 0A1C                    ??_Set_Time_Date 003D  
              __end_ofi1_I2C_Write 0A8D                __end_ofi1_DEC_2_BCD 0BE5  
                         ISR@dummy 002A                        I2C_Read@ack 002C  
                         ?___awdiv 002C                           ?___awmod 002C  
                         ?___lldiv 002C                  i1___awdiv@divisor 0070  
                i1___awdiv@counter 0075                          __pstrings 0517  
                   __size_of_CLOCK 0011                           _I2C_Hold 0A71  
                         _I2C_Read 0B80                     __size_of_SOLAR 0041  
                      ??i1___awdiv 0074                        ??i1___awmod 0074  
                         _LCDWRITE 0D5D                  interrupt_function 0004  
                   ___wmul@product 0030                          _nextState 0056  
                        clear_ram0 0A0B            __end_ofi1_Set_Time_Date 078C  
                        _solar_val 004C                   __size_of_I2C_End 0009  
                       _ADCON0bits 001F                        __stringbase 051C  
                ___wmul@multiplier 002C                   __size_of_CLRDISP 001D  
                 __size_of_LCDCHAR 002B                        i1_I2C_Begin 0A13  
                      i1_I2C_Write 0A7E                        i1_DEC_2_BCD 0BAF  
                 ??_I2C_Initialize 003E                  i1___awmod@divisor 0070  
                    I2C_Write@data 003B                  i1___awmod@counter 0075  
                 __size_of___awdiv 0069                   __size_of___awmod 005B  
                 __size_of___lldiv 0068                 __end_of__stringtab 051D  
                     ?_I2C_Restart 0070                           __ptext10 0A25  
                         __ptext11 0A71                           __ptext20 0BE5  
                         __ptext12 0C1F                           __ptext21 0EC6  
                         __ptext13 0CDB                           __ptext30 06FE  
                         __ptext22 0AC0                           __ptext14 0C9A  
                         __ptext31 0A7E                           __ptext23 0A4C  
                         __ptext15 042D                           __ptext32 0A1C  
                         __ptext24 0C59                           __ptext16 0B01  
                         __ptext33 0A13                           __ptext25 0D5D  
                         __ptext17 0E04                           __ptext34 0A64  
                         __ptext26 0ADD                           __ptext18 0F2E  
                         __ptext35 0BAF                           __ptext27 0A9C  
                         __ptext19 0B28                           __ptext36 0DAB  
                         __ptext28 0A40                           __ptext37 0E5F  
                         __ptext29 078C                      __size_of_PHCN 0041  
                    __size_of_WIND 0041                      __size_of_main 03EE  
                         _phcn_val 0048                I2C_Initialize@feq_K 003A  
                 ?i1_Set_Time_Date 0070                      DEC_2_BCD@data 0039  
                         _wind_val 004E                         i1_I2C_Hold 0A64  
                         exp@coeff 051D                           log@coeff 0545  
                         init_ram0 0AB1                           intlevel1 0000  
                 ___lldiv@dividend 0030                          stringcode 0517  
                     LCDNUM@number 0035                         _OPTION_REG 0081  
                  i1I2C_Write@data 0022                        LCDNUM@t_233 003B  
                      LCDNUM@u_234 003C                   ___lldiv@quotient 0035  
                         stringdir 0517                           stringtab 0517  
__size_of_Update_Current_Date_Time 00A4          ?_Update_Current_Date_Time 0070  
                 LCDCHAR@character 0032              __end_of_Set_Time_Date 06FE  
               __size_of_BCD_2_DEC 002D  
