

Microchip MPLAB XC8 Assembler V2.10 build 88905656 
                                                                                               Sat Feb 06 14:29:00 2021

Microchip MPLAB XC8 C Compiler v2.10 (Free license) build 20190730164152 Og1 
     1                           	processor	16F877A
     2                           	opt	pw 120
     3                           	opt	flic
     4                           	psect	idataBANK0,global,class=CODE,delta=2
     5                           	psect	strings,global,class=STRING,delta=2
     6                           	psect	cinit,global,class=CODE,merge=1,delta=2
     7                           	psect	bssBANK0,global,class=BANK0,space=1,delta=1
     8                           	psect	dataBANK0,global,class=BANK0,space=1,delta=1
     9                           	psect	inittext,global,class=CODE,delta=2
    10                           	psect	clrtext,global,class=CODE,delta=2
    11                           	psect	cstackBANK1,global,class=BANK1,space=1,delta=1
    12                           	psect	cstackCOMMON,global,class=COMMON,space=1,delta=1
    13                           	psect	cstackBANK0,global,class=BANK0,space=1,delta=1
    14                           	psect	maintext,global,class=CODE,split=1,delta=2
    15                           	psect	text1,local,class=CODE,merge=1,delta=2
    16                           	psect	text2,local,class=CODE,merge=1,delta=2
    17                           	psect	text3,local,class=CODE,merge=1,delta=2
    18                           	psect	text4,local,class=CODE,merge=1,delta=2
    19                           	psect	text5,local,class=CODE,merge=1,delta=2
    20                           	psect	text6,local,class=CODE,merge=1,delta=2
    21                           	psect	text7,local,class=CODE,merge=1,delta=2
    22                           	psect	text8,local,class=CODE,merge=1,delta=2
    23                           	psect	text9,local,class=CODE,merge=1,delta=2,group=1
    24                           	psect	text10,local,class=CODE,merge=1,delta=2
    25                           	psect	text11,local,class=CODE,merge=1,delta=2
    26                           	psect	text12,local,class=CODE,merge=1,delta=2,group=1
    27                           	psect	text13,local,class=CODE,merge=1,delta=2,group=1
    28                           	psect	text14,local,class=CODE,merge=1,delta=2
    29                           	psect	text15,local,class=CODE,merge=1,delta=2
    30                           	psect	text16,local,class=CODE,merge=1,delta=2
    31                           	psect	text17,local,class=CODE,merge=1,delta=2
    32                           	psect	text18,local,class=CODE,merge=1,delta=2
    33                           	psect	text19,local,class=CODE,merge=1,delta=2
    34                           	psect	intentry,global,class=CODE,delta=2
    35                           	psect	text20,local,class=CODE,merge=1,delta=2
    36                           	psect	text21,local,class=CODE,merge=1,delta=2
    37                           	psect	text22,local,class=CODE,merge=1,delta=2
    38                           	psect	text23,local,class=CODE,merge=1,delta=2
    39                           	psect	text24,local,class=CODE,merge=1,delta=2
    40                           	psect	text25,local,class=CODE,merge=1,delta=2
    41                           	psect	text26,local,class=CODE,merge=1,delta=2,group=1
    42                           	psect	text27,local,class=CODE,merge=1,delta=2,group=1
    43                           	dabs	1,0x7E,2
    44  0000                     
    45                           ; Version 2.10
    46                           ; Generated 31/07/2019 GMT
    47                           ; 
    48                           ; Copyright © 2019, Microchip Technology Inc. and its subsidiaries ("Microchip")
    49                           ; All rights reserved.
    50                           ; 
    51                           ; This software is developed by Microchip Technology Inc. and its subsidiaries ("Microch
      +                          ip").
    52                           ; 
    53                           ; Redistribution and use in source and binary forms, with or without modification, are
    54                           ; permitted provided that the following conditions are met:
    55                           ; 
    56                           ;     1. Redistributions of source code must retain the above copyright notice, this lis
      +                          t of
    57                           ;        conditions and the following disclaimer.
    58                           ; 
    59                           ;     2. Redistributions in binary form must reproduce the above copyright notice, this 
      +                          list
    60                           ;        of conditions and the following disclaimer in the documentation and/or other
    61                           ;        materials provided with the distribution.
    62                           ; 
    63                           ;     3. Microchip's name may not be used to endorse or promote products derived from th
      +                          is
    64                           ;        software without specific prior written permission.
    65                           ; 
    66                           ; THIS SOFTWARE IS PROVIDED BY MICROCHIP "AS IS" AND ANY EXPRESS OR IMPLIED WARRANTIES,
    67                           ; INCLUDING, BUT NOT LIMITED TO, THE IMPLIED WARRANTIES OF MERCHANTABILITY AND FITNESS F
      +                          OR
    68                           ; PURPOSE ARE DISCLAIMED.  IN NO EVENT SHALL MICROCHIP BE LIABLE FOR ANY DIRECT, INDIREC
      +                          T,
    69                           ; INCIDENTAL, SPECIAL, EXEMPLARY, OR CONSEQUENTIAL DAMAGES (INCLUDING BUT NOT LIMITED TO
    70                           ; PROCUREMENT OF SUBSTITUTE GOODS OR SERVICES; LOSS OF USE, DATA OR PROFITS; OR BUSINESS
    71                           ; INTERRUPTION) HOWSOEVER CAUSED AND ON ANY THEORY OF LIABILITY, WHETHER IN CONTRACT, ST
      +                          RICT
    72                           ; LIABILITY, OR TORT (INCLUDING NEGLIGENCE OR OTHERWISE) ARISING IN ANY WAY OUT OF THE U
      +                          SE OF
    73                           ; THIS SOFTWARE, EVEN IF ADVISED OF THE POSSIBILITY OF SUCH DAMAGE.
    74                           ; 
    75                           ; 
    76                           ; Code-generator required, PIC16F877A Definitions
    77                           ; 
    78                           ; SFR Addresses
    79  0000                     	;# 
    80  0001                     	;# 
    81  0002                     	;# 
    82  0003                     	;# 
    83  0004                     	;# 
    84  0005                     	;# 
    85  0006                     	;# 
    86  0007                     	;# 
    87  0008                     	;# 
    88  0009                     	;# 
    89  000A                     	;# 
    90  000B                     	;# 
    91  000C                     	;# 
    92  000D                     	;# 
    93  000E                     	;# 
    94  000E                     	;# 
    95  000F                     	;# 
    96  0010                     	;# 
    97  0011                     	;# 
    98  0012                     	;# 
    99  0013                     	;# 
   100  0014                     	;# 
   101  0015                     	;# 
   102  0015                     	;# 
   103  0016                     	;# 
   104  0017                     	;# 
   105  0018                     	;# 
   106  0019                     	;# 
   107  001A                     	;# 
   108  001B                     	;# 
   109  001B                     	;# 
   110  001C                     	;# 
   111  001D                     	;# 
   112  001E                     	;# 
   113  001F                     	;# 
   114  0081                     	;# 
   115  0085                     	;# 
   116  0086                     	;# 
   117  0087                     	;# 
   118  0088                     	;# 
   119  0089                     	;# 
   120  008C                     	;# 
   121  008D                     	;# 
   122  008E                     	;# 
   123  0091                     	;# 
   124  0092                     	;# 
   125  0093                     	;# 
   126  0094                     	;# 
   127  0098                     	;# 
   128  0099                     	;# 
   129  009C                     	;# 
   130  009D                     	;# 
   131  009E                     	;# 
   132  009F                     	;# 
   133  010C                     	;# 
   134  010D                     	;# 
   135  010E                     	;# 
   136  010F                     	;# 
   137  018C                     	;# 
   138  018D                     	;# 
   139  0000                     	;# 
   140  0001                     	;# 
   141  0002                     	;# 
   142  0003                     	;# 
   143  0004                     	;# 
   144  0005                     	;# 
   145  0006                     	;# 
   146  0007                     	;# 
   147  0008                     	;# 
   148  0009                     	;# 
   149  000A                     	;# 
   150  000B                     	;# 
   151  000C                     	;# 
   152  000D                     	;# 
   153  000E                     	;# 
   154  000E                     	;# 
   155  000F                     	;# 
   156  0010                     	;# 
   157  0011                     	;# 
   158  0012                     	;# 
   159  0013                     	;# 
   160  0014                     	;# 
   161  0015                     	;# 
   162  0015                     	;# 
   163  0016                     	;# 
   164  0017                     	;# 
   165  0018                     	;# 
   166  0019                     	;# 
   167  001A                     	;# 
   168  001B                     	;# 
   169  001B                     	;# 
   170  001C                     	;# 
   171  001D                     	;# 
   172  001E                     	;# 
   173  001F                     	;# 
   174  0081                     	;# 
   175  0085                     	;# 
   176  0086                     	;# 
   177  0087                     	;# 
   178  0088                     	;# 
   179  0089                     	;# 
   180  008C                     	;# 
   181  008D                     	;# 
   182  008E                     	;# 
   183  0091                     	;# 
   184  0092                     	;# 
   185  0093                     	;# 
   186  0094                     	;# 
   187  0098                     	;# 
   188  0099                     	;# 
   189  009C                     	;# 
   190  009D                     	;# 
   191  009E                     	;# 
   192  009F                     	;# 
   193  010C                     	;# 
   194  010D                     	;# 
   195  010E                     	;# 
   196  010F                     	;# 
   197  018C                     	;# 
   198  018D                     	;# 
   199                           
   200                           	psect	idataBANK0
   201  0F8D                     __pidataBANK0:	
   202                           
   203                           ;initializer for _logo
   204  0F8D  3445               	retlw	69
   205  0F8E  344C               	retlw	76
   206  0F8F  3445               	retlw	69
   207  0F90  3443               	retlw	67
   208  0F91  3454               	retlw	84
   209  0F92  3452               	retlw	82
   210  0F93  344F               	retlw	79
   211  0F94  344E               	retlw	78
   212  0F95  3449               	retlw	73
   213  0F96  3443               	retlw	67
   214  0F97  3453               	retlw	83
   215  0F98  3400               	retlw	0
   216                           
   217                           ;initializer for _thresh
   218  0F99  346E               	retlw	110
   219  0F9A  3403               	retlw	3
   220                           
   221                           	psect	strings
   222  054A                     __pstrings:	
   223  054A                     stringtab:	
   224  054A                     __stringtab:	
   225  054A                     stringcode:	
   226                           ;	String table - string pointers are 1 byte each
   227                           
   228  054A                     stringdir:	
   229  054A  3005               	movlw	high stringdir
   230  054B  008A               	movwf	10
   231  054C  0804               	movf	4,w
   232  054D  0A84               	incf	4,f
   233  054E  0782               	addwf	2,f
   234  054F                     __stringbase:	
   235  054F  3400               	retlw	0
   236  0550                     __end_of__stringtab:	
   237  0550                     exp@coeff:	
   238  0550  3400               	retlw	0
   239  0551  3400               	retlw	0
   240  0552  3480               	retlw	128
   241  0553  343F               	retlw	63
   242  0554  3418               	retlw	24
   243  0555  3472               	retlw	114
   244  0556  3431               	retlw	49
   245  0557  343F               	retlw	63
   246  0558  34F0               	retlw	240
   247  0559  34FD               	retlw	253
   248  055A  3475               	retlw	117
   249  055B  343E               	retlw	62
   250  055C  3447               	retlw	71
   251  055D  3458               	retlw	88
   252  055E  3463               	retlw	99
   253  055F  343D               	retlw	61
   254  0560  3458               	retlw	88
   255  0561  3495               	retlw	149
   256  0562  341D               	retlw	29
   257  0563  343C               	retlw	60
   258  0564  3482               	retlw	130
   259  0565  34C4               	retlw	196
   260  0566  34AE               	retlw	174
   261  0567  343A               	retlw	58
   262  0568  34A8               	retlw	168
   263  0569  3478               	retlw	120
   264  056A  3421               	retlw	33
   265  056B  3439               	retlw	57
   266  056C  34EF               	retlw	239
   267  056D  3493               	retlw	147
   268  056E  3480               	retlw	128
   269  056F  3437               	retlw	55
   270  0570  34A0               	retlw	160
   271  0571  3492               	retlw	146
   272  0572  34A7               	retlw	167
   273  0573  3435               	retlw	53
   274  0574  3446               	retlw	70
   275  0575  3456               	retlw	86
   276  0576  3415               	retlw	21
   277  0577  3434               	retlw	52
   278  0578                     __end_ofexp@coeff:	
   279  0578                     log@coeff:	
   280  0578  3400               	retlw	0
   281  0579  3400               	retlw	0
   282  057A  3400               	retlw	0
   283  057B  3400               	retlw	0
   284  057C  34C4               	retlw	196
   285  057D  34FF               	retlw	255
   286  057E  347F               	retlw	127
   287  057F  343F               	retlw	63
   288  0580  3480               	retlw	128
   289  0581  34EF               	retlw	239
   290  0582  34FF               	retlw	255
   291  0583  34BE               	retlw	190
   292  0584  3490               	retlw	144
   293  0585  34E1               	retlw	225
   294  0586  34A9               	retlw	169
   295  0587  343E               	retlw	62
   296  0588  34EC               	retlw	236
   297  0589  3482               	retlw	130
   298  058A  3476               	retlw	118
   299  058B  34BE               	retlw	190
   300  058C  3482               	retlw	130
   301  058D  34AD               	retlw	173
   302  058E  342B               	retlw	43
   303  058F  343E               	retlw	62
   304  0590  340E               	retlw	14
   305  0591  343C               	retlw	60
   306  0592  34C3               	retlw	195
   307  0593  34BD               	retlw	189
   308  0594  3487               	retlw	135
   309  0595  34D1               	retlw	209
   310  0596  3413               	retlw	19
   311  0597  343D               	retlw	61
   312  0598  3441               	retlw	65
   313  0599  3478               	retlw	120
   314  059A  34D3               	retlw	211
   315  059B  34BB               	retlw	187
   316  059C                     __end_oflog@coeff:	
   317  000E                     _TMR1	set	14
   318  001E                     _ADRESH	set	30
   319  001F                     _ADCON0bits	set	31
   320  0010                     _T1CON	set	16
   321  0008                     _PORTD	set	8
   322  001F                     _ADCON0	set	31
   323  0001                     _TMR0	set	1
   324  0006                     _PORTBbits	set	6
   325  0013                     _SSPBUF	set	19
   326  0014                     _SSPCON	set	20
   327  0006                     _PORTB	set	6
   328  0043                     _RD3	set	67
   329  0042                     _RD2	set	66
   330  0041                     _RD1	set	65
   331  0040                     _RD0	set	64
   332  003C                     _RC4	set	60
   333  003D                     _RC5	set	61
   334  003E                     _RC6	set	62
   335  003F                     _RC7	set	63
   336  0080                     _TMR1ON	set	128
   337  005F                     _GIE	set	95
   338  005E                     _PEIE	set	94
   339  005D                     _TMR0IE	set	93
   340  0060                     _TMR1IF	set	96
   341  005A                     _TMR0IF	set	90
   342  0044                     _RD4	set	68
   343  0045                     _RD5	set	69
   344  0035                     _RB5	set	53
   345  0034                     _RB4	set	52
   346  009E                     _ADRESL	set	158
   347  0081                     _OPTION_REG	set	129
   348  0088                     _TRISD	set	136
   349  009F                     _ADCON1	set	159
   350  0085                     _TRISA	set	133
   351  0086                     _TRISB	set	134
   352  0094                     _SSPSTAT	set	148
   353  0093                     _SSPADD	set	147
   354  0091                     _SSPCON2	set	145
   355  042B                     _TRISA3	set	1067
   356  042A                     _TRISA2	set	1066
   357  0429                     _TRISA1	set	1065
   358  0428                     _TRISA0	set	1064
   359  0460                     _TMR1IE	set	1120
   360  0438                     _TRISC0	set	1080
   361  048C                     _ACKEN	set	1164
   362  048D                     _ACKDT	set	1165
   363  048B                     _RCEN	set	1163
   364  048A                     _PEN	set	1162
   365  0488                     _SEN	set	1160
   366  043C                     _TRISC4	set	1084
   367  043B                     _TRISC3	set	1083
   368  059C                     STR_1:	
   369  059C  3450               	retlw	80	;'P'
   370  059D  344F               	retlw	79	;'O'
   371  059E  3457               	retlw	87	;'W'
   372  059F  3445               	retlw	69	;'E'
   373  05A0  3452               	retlw	82	;'R'
   374  05A1  3420               	retlw	32	;' '
   375  05A2  3453               	retlw	83	;'S'
   376  05A3  3445               	retlw	69	;'E'
   377  05A4  344C               	retlw	76	;'L'
   378  05A5  3445               	retlw	69	;'E'
   379  05A6  3443               	retlw	67	;'C'
   380  05A7  3454               	retlw	84	;'T'
   381  05A8  344F               	retlw	79	;'O'
   382  05A9  3452               	retlw	82	;'R'
   383  05AA  3400               	retlw	0
   384  05AB                     STR_2:	
   385  05AB  343A               	retlw	58	;':'
   386  05AC  3400               	retlw	0
   387                           
   388                           ; #config settings
   389  0000                     
   390                           	psect	cinit
   391  0013                     start_initialization:	
   392  0013                     __initialization:	
   393                           
   394                           ; Initialize objects allocated to BANK0
   395  0013  1383               	bcf	3,7	;select IRP bank0
   396  0014  306B               	movlw	low (__pdataBANK0+14)
   397  0015  00FD               	movwf	btemp+-1
   398  0016  300F               	movlw	high __pidataBANK0
   399  0017  00FE               	movwf	btemp
   400  0018  308D               	movlw	low __pidataBANK0
   401  0019  00FF               	movwf	btemp+1
   402  001A  305D               	movlw	low __pdataBANK0
   403  001B  0084               	movwf	4
   404  001C  120A  158A  27B0  120A  118A  	fcall	init_ram0
   405                           
   406                           ; Clear objects allocated to BANK0
   407  0021  3048               	movlw	low __pbssBANK0
   408  0022  0084               	movwf	4
   409  0023  305D               	movlw	low (__pbssBANK0+21)
   410  0024  120A  158A  271B  120A  118A  	fcall	clear_ram0
   411  0029                     end_of_initialization:	
   412                           ;End of C runtime variable initialization code
   413                           
   414  0029                     __end_of__initialization:	
   415  0029  0183               	clrf	3
   416  002A  120A  118A  282D   	ljmp	_main	;jump to C main() function
   417                           
   418                           	psect	bssBANK0
   419  0048                     __pbssBANK0:	
   420  0048                     _NUM:	
   421  0048                     	ds	4
   422  004C                     _errno:	
   423  004C                     	ds	2
   424  004E                     _phcn_val:	
   425  004E                     	ds	2
   426  0050                     _biogas_val:	
   427  0050                     	ds	2
   428  0052                     _solar_val:	
   429  0052                     	ds	2
   430  0054                     _wind_val:	
   431  0054                     	ds	2
   432  0056                     _hour:	
   433  0056                     	ds	2
   434  0058                     _min:	
   435  0058                     	ds	2
   436  005A                     _sec:	
   437  005A                     	ds	2
   438  005C                     _nextState:	
   439  005C                     	ds	1
   440                           
   441                           	psect	dataBANK0
   442  005D                     __pdataBANK0:	
   443  005D                     _logo:	
   444  005D                     	ds	12
   445  0069                     _thresh:	
   446  0069                     	ds	2
   447                           
   448                           	psect	inittext
   449  0FAC                     init_fetch0:	
   450                           ;	Called with low address in FSR and high address in W
   451                           
   452  0FAC  087E               	movf	btemp,w
   453  0FAD  008A               	movwf	10
   454  0FAE  087F               	movf	btemp+1,w
   455  0FAF  0082               	movwf	2
   456  0FB0                     init_ram0:	
   457                           ;Called with:
   458                           ;	high address of idata address in btemp 
   459                           ;	low address of idata address in btemp+1 
   460                           ;	low address of data in FSR
   461                           ;	high address + 1 of data in btemp-1
   462                           
   463  0FB0  120A  158A  27AC  120A  158A  	fcall	init_fetch0
   464  0FB5  0080               	movwf	0
   465  0FB6  0A84               	incf	4,f
   466  0FB7  0804               	movf	4,w
   467  0FB8  067D               	xorwf	btemp+-1,w
   468  0FB9  1903               	btfsc	3,2
   469  0FBA  3400               	retlw	0
   470  0FBB  0AFF               	incf	btemp+1,f
   471  0FBC  1903               	btfsc	3,2
   472  0FBD  0AFE               	incf	btemp,f
   473  0FBE  2FB0               	goto	init_ram0
   474                           
   475                           	psect	clrtext
   476  0F1B                     clear_ram0:	
   477                           ;	Called with FSR containing the base address, and
   478                           ;	W with the last address+1
   479                           
   480  0F1B  0064               	clrwdt	;clear the watchdog before getting into this loop
   481  0F1C                     clrloop0:	
   482  0F1C  0180               	clrf	0	;clear RAM location pointed to by FSR
   483  0F1D  0A84               	incf	4,f	;increment pointer
   484  0F1E  0604               	xorwf	4,w	;XOR with final address
   485  0F1F  1903               	btfsc	3,2	;have we reached the end yet?
   486  0F20  3400               	retlw	0	;all done for this memory range, return
   487  0F21  0604               	xorwf	4,w	;XOR again to restore value
   488  0F22  2F1C               	goto	clrloop0	;do the next byte
   489                           
   490                           	psect	cstackBANK1
   491  00A0                     __pcstackBANK1:	
   492  00A0                     ??_main:	
   493                           
   494                           ; 1 bytes @ 0x0
   495  00A0                     	ds	3
   496                           
   497                           	psect	cstackCOMMON
   498  0070                     __pcstackCOMMON:	
   499  0070                     ?_I2C_Hold:	
   500  0070                     ?_I2C_Begin:	
   501                           ; 1 bytes @ 0x0
   502                           
   503  0070                     ?_I2C_End:	
   504                           ; 1 bytes @ 0x0
   505                           
   506  0070                     ?_Set_Time_Date:	
   507                           ; 1 bytes @ 0x0
   508                           
   509  0070                     ?_Update_Current_Date_Time:	
   510                           ; 1 bytes @ 0x0
   511                           
   512  0070                     ?_delay1:	
   513                           ; 1 bytes @ 0x0
   514                           
   515  0070                     ?_delay2:	
   516                           ; 1 bytes @ 0x0
   517                           
   518  0070                     ?_CLOCK:	
   519                           ; 1 bytes @ 0x0
   520                           
   521  0070                     ?_LCDWRITE:	
   522                           ; 1 bytes @ 0x0
   523                           
   524  0070                     ?_CLRDISP:	
   525                           ; 1 bytes @ 0x0
   526                           
   527  0070                     ?_config:	
   528                           ; 1 bytes @ 0x0
   529                           
   530  0070                     ?_ISR:	
   531                           ; 1 bytes @ 0x0
   532                           
   533  0070                     ?_main:	
   534                           ; 1 bytes @ 0x0
   535                           
   536  0070                     ?i1_I2C_Hold:	
   537                           ; 1 bytes @ 0x0
   538                           
   539  0070                     ??i1_I2C_Hold:	
   540                           ; 1 bytes @ 0x0
   541                           
   542  0070                     ?i1_I2C_Begin:	
   543                           ; 1 bytes @ 0x0
   544                           
   545  0070                     ??i1_I2C_Begin:	
   546                           ; 1 bytes @ 0x0
   547                           
   548  0070                     ?i1_I2C_End:	
   549                           ; 1 bytes @ 0x0
   550                           
   551  0070                     ??i1_I2C_End:	
   552                           ; 1 bytes @ 0x0
   553                           
   554  0070                     ?___awdiv:	
   555                           ; 1 bytes @ 0x0
   556                           
   557  0070                     ?___awmod:	
   558                           ; 2 bytes @ 0x0
   559                           
   560  0070                     ___awdiv@divisor:	
   561                           ; 2 bytes @ 0x0
   562                           
   563  0070                     ___awmod@divisor:	
   564                           ; 2 bytes @ 0x0
   565                           
   566                           
   567                           ; 2 bytes @ 0x0
   568  0070                     	ds	2
   569  0072                     ___awdiv@dividend:	
   570  0072                     ___awmod@dividend:	
   571                           ; 2 bytes @ 0x2
   572                           
   573                           
   574                           ; 2 bytes @ 0x2
   575  0072                     	ds	2
   576  0074                     ??___awdiv:	
   577  0074                     ??___awmod:	
   578                           ; 1 bytes @ 0x4
   579                           
   580                           
   581                           ; 1 bytes @ 0x4
   582  0074                     	ds	1
   583  0075                     ___awdiv@counter:	
   584  0075                     ___awmod@counter:	
   585                           ; 1 bytes @ 0x5
   586                           
   587                           
   588                           ; 1 bytes @ 0x5
   589  0075                     	ds	1
   590  0076                     ___awdiv@sign:	
   591  0076                     ___awmod@sign:	
   592                           ; 1 bytes @ 0x6
   593                           
   594                           
   595                           ; 1 bytes @ 0x6
   596  0076                     	ds	1
   597  0077                     ___awdiv@quotient:	
   598                           
   599                           ; 2 bytes @ 0x7
   600  0077                     	ds	2
   601  0079                     ?_DEC_2_BCD:	
   602  0079                     DEC_2_BCD@to_convert:	
   603                           ; 2 bytes @ 0x9
   604                           
   605                           
   606                           ; 2 bytes @ 0x9
   607  0079                     	ds	2
   608  007B                     ??_DEC_2_BCD:	
   609                           
   610                           ; 1 bytes @ 0xB
   611  007B                     	ds	2
   612  007D                     ??_Set_Time_Date:	
   613  007D                     ??i1_I2C_Write:	
   614                           ; 1 bytes @ 0xD
   615                           
   616                           
   617                           	psect	cstackBANK0
   618  0020                     __pcstackBANK0:	
   619                           ; 1 bytes @ 0xD
   620                           
   621  0020                     ?i1_I2C_Write:	
   622  0020                     i1I2C_Write@data:	
   623                           ; 1 bytes @ 0x0
   624                           
   625                           
   626                           ; 2 bytes @ 0x0
   627  0020                     	ds	2
   628  0022                     ??_ISR:	
   629                           
   630                           ; 1 bytes @ 0x2
   631  0022                     	ds	3
   632  0025                     ??_I2C_Hold:	
   633  0025                     ??_I2C_Begin:	
   634                           ; 1 bytes @ 0x5
   635                           
   636  0025                     ??_I2C_End:	
   637                           ; 1 bytes @ 0x5
   638                           
   639  0025                     ?_I2C_Write:	
   640                           ; 1 bytes @ 0x5
   641                           
   642  0025                     ??_delay1:	
   643                           ; 1 bytes @ 0x5
   644                           
   645  0025                     ??_delay2:	
   646                           ; 1 bytes @ 0x5
   647                           
   648  0025                     ?_I2C_Read:	
   649                           ; 1 bytes @ 0x5
   650                           
   651  0025                     ?___wmul:	
   652                           ; 2 bytes @ 0x5
   653                           
   654  0025                     ?___lmul:	
   655                           ; 2 bytes @ 0x5
   656                           
   657  0025                     I2C_Write@data:	
   658                           ; 4 bytes @ 0x5
   659                           
   660  0025                     I2C_Read@ack:	
   661                           ; 2 bytes @ 0x5
   662                           
   663  0025                     ___wmul@multiplier:	
   664                           ; 2 bytes @ 0x5
   665                           
   666  0025                     ___lmul@multiplier:	
   667                           ; 2 bytes @ 0x5
   668                           
   669                           
   670                           ; 4 bytes @ 0x5
   671  0025                     	ds	2
   672  0027                     ??_I2C_Write:	
   673  0027                     ??_I2C_Read:	
   674                           ; 1 bytes @ 0x7
   675                           
   676  0027                     ??_CLOCK:	
   677                           ; 1 bytes @ 0x7
   678                           
   679  0027                     ??_LCDWRITE:	
   680                           ; 1 bytes @ 0x7
   681                           
   682  0027                     ?_CURSOR:	
   683                           ; 1 bytes @ 0x7
   684                           
   685  0027                     ??_CLRDISP:	
   686                           ; 1 bytes @ 0x7
   687                           
   688  0027                     ??_config:	
   689                           ; 1 bytes @ 0x7
   690                           
   691  0027                     CURSOR@b:	
   692                           ; 1 bytes @ 0x7
   693                           
   694  0027                     ___wmul@multiplicand:	
   695                           ; 1 bytes @ 0x7
   696                           
   697                           
   698                           ; 2 bytes @ 0x7
   699  0027                     	ds	1
   700  0028                     ??_CURSOR:	
   701                           
   702                           ; 1 bytes @ 0x8
   703  0028                     	ds	1
   704  0029                     ??___wmul:	
   705  0029                     LCDWRITE@j:	
   706                           ; 1 bytes @ 0x9
   707                           
   708  0029                     I2C_Read@incoming:	
   709                           ; 1 bytes @ 0x9
   710                           
   711  0029                     ___wmul@product:	
   712                           ; 2 bytes @ 0x9
   713                           
   714  0029                     ___lmul@multiplicand:	
   715                           ; 2 bytes @ 0x9
   716                           
   717                           
   718                           ; 4 bytes @ 0x9
   719  0029                     	ds	1
   720  002A                     LCDWRITE@k:	
   721  002A                     CURSOR@a:	
   722                           ; 1 bytes @ 0xA
   723                           
   724                           
   725                           ; 1 bytes @ 0xA
   726  002A                     	ds	1
   727  002B                     ?_BCD_2_DEC:	
   728  002B                     LCDWRITE@i:	
   729                           ; 2 bytes @ 0xB
   730                           
   731  002B                     BCD_2_DEC@to_convert:	
   732                           ; 1 bytes @ 0xB
   733                           
   734                           
   735                           ; 2 bytes @ 0xB
   736  002B                     	ds	1
   737  002C                     LCDWRITE@P:	
   738                           
   739                           ; 1 bytes @ 0xC
   740  002C                     	ds	1
   741  002D                     ??_BCD_2_DEC:	
   742  002D                     ??___lmul:	
   743                           ; 1 bytes @ 0xD
   744                           
   745                           
   746                           ; 1 bytes @ 0xD
   747  002D                     	ds	1
   748  002E                     ___lmul@product:	
   749                           
   750                           ; 4 bytes @ 0xE
   751  002E                     	ds	1
   752  002F                     ??_Update_Current_Date_Time:	
   753                           
   754                           ; 1 bytes @ 0xF
   755  002F                     	ds	3
   756  0032                     ?___lldiv:	
   757  0032                     ___lldiv@divisor:	
   758                           ; 4 bytes @ 0x12
   759                           
   760                           
   761                           ; 4 bytes @ 0x12
   762  0032                     	ds	4
   763  0036                     ___lldiv@dividend:	
   764                           
   765                           ; 4 bytes @ 0x16
   766  0036                     	ds	4
   767  003A                     ??___lldiv:	
   768                           
   769                           ; 1 bytes @ 0x1A
   770  003A                     	ds	1
   771  003B                     ___lldiv@quotient:	
   772                           
   773                           ; 4 bytes @ 0x1B
   774  003B                     	ds	4
   775  003F                     ___lldiv@counter:	
   776                           
   777                           ; 1 bytes @ 0x1F
   778  003F                     	ds	1
   779  0040                     ?_I2C_Initialize:	
   780  0040                     I2C_Initialize@feq_K:	
   781                           ; 1 bytes @ 0x20
   782                           
   783                           
   784                           ; 4 bytes @ 0x20
   785  0040                     	ds	4
   786  0044                     ??_I2C_Initialize:	
   787                           
   788                           ; 1 bytes @ 0x24
   789  0044                     	ds	4
   790                           
   791                           	psect	maintext
   792  002D                     __pmaintext:	
   793 ;;
   794 ;;Main: autosize = 0, tempsize = 3, incstack = 0, save=0
   795 ;;
   796 ;; *************** function _main *****************
   797 ;; Defined at:
   798 ;;		line 72 in file "main.c"
   799 ;; Parameters:    Size  Location     Type
   800 ;;		None
   801 ;; Auto vars:     Size  Location     Type
   802 ;;		None
   803 ;; Return value:  Size  Location     Type
   804 ;;                  1    wreg      void 
   805 ;; Registers used:
   806 ;;		wreg, fsr0l, fsr0h, status,2, status,0, btemp+1, pclath, cstack
   807 ;; Tracked objects:
   808 ;;		On entry : B00/0
   809 ;;		On exit  : 0/0
   810 ;;		Unchanged: 0/0
   811 ;; Data sizes:     COMMON   BANK0   BANK1   BANK3   BANK2
   812 ;;      Params:         0       0       0       0       0
   813 ;;      Locals:         0       0       0       0       0
   814 ;;      Temps:          0       0       3       0       0
   815 ;;      Totals:         0       0       3       0       0
   816 ;;Total ram usage:        3 bytes
   817 ;; Hardware stack levels required when called:    7
   818 ;; This function calls:
   819 ;;		_CLRDISP
   820 ;;		_CURSOR
   821 ;;		_I2C_Initialize
   822 ;;		_LCDWRITE
   823 ;;		_Update_Current_Date_Time
   824 ;;		_config
   825 ;; This function is called by:
   826 ;;		Startup code after reset
   827 ;; This function uses a non-reentrant model
   828 ;;
   829                           
   830                           
   831                           ;psect for function _main
   832  002D                     _main:	
   833  002D                     l2229:	
   834                           ;incstack = 0
   835                           ; Regs used in _main: [wreg-fsr0h+status,2+status,0+btemp+1+pclath+cstack]
   836                           
   837                           
   838                           ;main.c: 73:     TRISB=0x00;
   839  002D  1683               	bsf	3,5	;RP0=1, select bank1
   840  002E  1303               	bcf	3,6	;RP1=0, select bank1
   841  002F  0186               	clrf	6	;volatile
   842                           
   843                           ;main.c: 74:     PORTB=0x00;
   844  0030  1283               	bcf	3,5	;RP0=0, select bank0
   845  0031  1303               	bcf	3,6	;RP1=0, select bank0
   846  0032  0186               	clrf	6	;volatile
   847  0033                     l2231:	
   848                           
   849                           ;main.c: 75:     TRISA=0xFF;
   850  0033  30FF               	movlw	255
   851  0034  1683               	bsf	3,5	;RP0=1, select bank1
   852  0035  1303               	bcf	3,6	;RP1=0, select bank1
   853  0036  0085               	movwf	5	;volatile
   854  0037                     l2233:	
   855                           
   856                           ;main.c: 76:     ADCON1=0x80;
   857  0037  3080               	movlw	128
   858  0038  009F               	movwf	31	;volatile
   859  0039                     l2235:	
   860                           
   861                           ;main.c: 77:     ADCON0=0x41;
   862  0039  3041               	movlw	65
   863  003A  1283               	bcf	3,5	;RP0=0, select bank0
   864  003B  1303               	bcf	3,6	;RP1=0, select bank0
   865  003C  009F               	movwf	31	;volatile
   866  003D                     l2237:	
   867                           
   868                           ;main.c: 78:     TRISD=0xC0;
   869  003D  30C0               	movlw	192
   870  003E  1683               	bsf	3,5	;RP0=1, select bank1
   871  003F  1303               	bcf	3,6	;RP1=0, select bank1
   872  0040  0088               	movwf	8	;volatile
   873                           
   874                           ;main.c: 79:     PORTD=0x00;
   875  0041  1283               	bcf	3,5	;RP0=0, select bank0
   876  0042  1303               	bcf	3,6	;RP1=0, select bank0
   877  0043  0188               	clrf	8	;volatile
   878  0044                     l2239:	
   879                           
   880                           ;main.c: 80:     I2C_Initialize(100000);
   881  0044  3000               	movlw	0
   882  0045  00C3               	movwf	I2C_Initialize@feq_K+3
   883  0046  3001               	movlw	1
   884  0047  00C2               	movwf	I2C_Initialize@feq_K+2
   885  0048  3086               	movlw	134
   886  0049  00C1               	movwf	I2C_Initialize@feq_K+1
   887  004A  30A0               	movlw	160
   888  004B  00C0               	movwf	I2C_Initialize@feq_K
   889  004C  120A  118A  265F  120A  118A  	fcall	_I2C_Initialize
   890  0051                     l2241:	
   891                           
   892                           ;main.c: 81:     TMR0=255;
   893  0051  30FF               	movlw	255
   894  0052  1283               	bcf	3,5	;RP0=0, select bank0
   895  0053  1303               	bcf	3,6	;RP1=0, select bank0
   896  0054  0081               	movwf	1	;volatile
   897  0055                     l2243:	
   898                           
   899                           ;main.c: 82:     TMR0IE=1;
   900  0055  168B               	bsf	11,5	;volatile
   901  0056                     l2245:	
   902                           
   903                           ;main.c: 83:     OPTION_REG=0xA8;
   904  0056  30A8               	movlw	168
   905  0057  1683               	bsf	3,5	;RP0=1, select bank1
   906  0058  1303               	bcf	3,6	;RP1=0, select bank1
   907  0059  0081               	movwf	1	;volatile
   908  005A                     l2247:	
   909                           
   910                           ;main.c: 84:     TRISC0=1;
   911  005A  1407               	bsf	7,0	;volatile
   912  005B                     l2249:	
   913                           
   914                           ;main.c: 85:     T1CON=0x06;
   915  005B  3006               	movlw	6
   916  005C  1283               	bcf	3,5	;RP0=0, select bank0
   917  005D  1303               	bcf	3,6	;RP1=0, select bank0
   918  005E  0090               	movwf	16	;volatile
   919  005F                     l2251:	
   920                           
   921                           ;main.c: 86:     TMR1=65535;
   922  005F  30FF               	movlw	255
   923  0060  008F               	movwf	15	;volatile
   924  0061  30FF               	movlw	255
   925  0062  008E               	movwf	14	;volatile
   926  0063                     l2253:	
   927                           
   928                           ;main.c: 87:     TMR1IE=1;
   929  0063  1683               	bsf	3,5	;RP0=1, select bank1
   930  0064  1303               	bcf	3,6	;RP1=0, select bank1
   931  0065  140C               	bsf	12,0	;volatile
   932  0066                     l2255:	
   933                           
   934                           ;main.c: 88:     PEIE=1;
   935  0066  170B               	bsf	11,6	;volatile
   936  0067                     l2257:	
   937                           
   938                           ;main.c: 89:     GIE=1;
   939  0067  178B               	bsf	11,7	;volatile
   940  0068                     l2259:	
   941                           
   942                           ;main.c: 90:     TMR1ON=1;
   943  0068  1283               	bcf	3,5	;RP0=0, select bank0
   944  0069  1303               	bcf	3,6	;RP1=0, select bank0
   945  006A  1410               	bsf	16,0	;volatile
   946  006B                     l2261:	
   947                           
   948                           ;main.c: 91:     TRISA0=1;
   949  006B  1683               	bsf	3,5	;RP0=1, select bank1
   950  006C  1303               	bcf	3,6	;RP1=0, select bank1
   951  006D  1405               	bsf	5,0	;volatile
   952  006E                     l2263:	
   953                           
   954                           ;main.c: 92:     TRISA1=1;
   955  006E  1485               	bsf	5,1	;volatile
   956  006F                     l2265:	
   957                           
   958                           ;main.c: 93:     TRISA2=1;
   959  006F  1505               	bsf	5,2	;volatile
   960  0070                     l2267:	
   961                           
   962                           ;main.c: 94:     TRISA3=1;
   963  0070  1585               	bsf	5,3	;volatile
   964  0071                     l2269:	
   965                           
   966                           ;main.c: 95:     config();
   967  0071  120A  118A  24E5  120A  118A  	fcall	_config
   968  0076                     l2271:	
   969                           
   970                           ;main.c: 96:     CLRDISP();
   971  0076  120A  158A  27BF  120A  118A  	fcall	_CLRDISP
   972  007B                     l2273:	
   973                           
   974                           ;main.c: 97:     CURSOR(0x80,4);
   975  007B  3004               	movlw	4
   976  007C  1683               	bsf	3,5	;RP0=1, select bank1
   977  007D  1303               	bcf	3,6	;RP1=0, select bank1
   978  007E  00A0               	movwf	??_main^(0+128)
   979  007F  0820               	movf	??_main^(0+128),w
   980  0080  1283               	bcf	3,5	;RP0=0, select bank0
   981  0081  1303               	bcf	3,6	;RP1=0, select bank0
   982  0082  00A7               	movwf	CURSOR@b
   983  0083  3080               	movlw	128
   984  0084  120A  158A  27DC  120A  118A  	fcall	_CURSOR
   985  0089                     l2275:	
   986                           
   987                           ;main.c: 98:     LCDWRITE("POWER SELECTOR");
   988  0089  304D               	movlw	(low ((STR_1-__stringbase)| (0+32768)))& (0+255)
   989  008A  120A  118A  26B2  120A  118A  	fcall	_LCDWRITE
   990  008F                     l2277:	
   991                           
   992                           ;main.c: 101:         if(nextState==initialState){
   993  008F  1283               	bcf	3,5	;RP0=0, select bank0
   994  0090  1303               	bcf	3,6	;RP1=0, select bank0
   995  0091  085C               	movf	_nextState,w
   996  0092  1D03               	btfss	3,2
   997  0093  2895               	goto	u1711
   998  0094  2896               	goto	u1710
   999  0095                     u1711:	
  1000  0095  29B1               	goto	l239
  1001  0096                     u1710:	
  1002  0096                     l2279:	
  1003                           
  1004                           ;main.c: 102:             RC7=RC6=RC5=RC4=1;
  1005  0096  1607               	bsf	7,4	;volatile
  1006  0097  1A07               	btfsc	7,4	;volatile
  1007  0098  289A               	goto	u1721
  1008  0099  289E               	goto	u1720
  1009  009A                     u1721:	
  1010  009A  1283               	bcf	3,5	;RP0=0, select bank0
  1011  009B  1303               	bcf	3,6	;RP1=0, select bank0
  1012  009C  1687               	bsf	7,5	;volatile
  1013  009D  28A1               	goto	u1734
  1014  009E                     u1720:	
  1015  009E  1283               	bcf	3,5	;RP0=0, select bank0
  1016  009F  1303               	bcf	3,6	;RP1=0, select bank0
  1017  00A0  1287               	bcf	7,5	;volatile
  1018  00A1                     u1734:	
  1019  00A1  1A87               	btfsc	7,5	;volatile
  1020  00A2  28A4               	goto	u1731
  1021  00A3  28A8               	goto	u1730
  1022  00A4                     u1731:	
  1023  00A4  1283               	bcf	3,5	;RP0=0, select bank0
  1024  00A5  1303               	bcf	3,6	;RP1=0, select bank0
  1025  00A6  1707               	bsf	7,6	;volatile
  1026  00A7  28AB               	goto	u1744
  1027  00A8                     u1730:	
  1028  00A8  1283               	bcf	3,5	;RP0=0, select bank0
  1029  00A9  1303               	bcf	3,6	;RP1=0, select bank0
  1030  00AA  1307               	bcf	7,6	;volatile
  1031  00AB                     u1744:	
  1032  00AB  1B07               	btfsc	7,6	;volatile
  1033  00AC  28AE               	goto	u1741
  1034  00AD  28B2               	goto	u1740
  1035  00AE                     u1741:	
  1036  00AE  1283               	bcf	3,5	;RP0=0, select bank0
  1037  00AF  1303               	bcf	3,6	;RP1=0, select bank0
  1038  00B0  1787               	bsf	7,7	;volatile
  1039  00B1  28B5               	goto	u1754
  1040  00B2                     u1740:	
  1041  00B2  1283               	bcf	3,5	;RP0=0, select bank0
  1042  00B3  1303               	bcf	3,6	;RP1=0, select bank0
  1043  00B4  1387               	bcf	7,7	;volatile
  1044  00B5                     u1754:	
  1045  00B5                     l2281:	
  1046                           
  1047                           ;main.c: 103:             _delay((unsigned long)((100)*(20000000/4000.0)));
  1048  00B5  3003               	movlw	3
  1049  00B6  1683               	bsf	3,5	;RP0=1, select bank1
  1050  00B7  1303               	bcf	3,6	;RP1=0, select bank1
  1051  00B8  00A2               	movwf	(??_main^(0+128)+2)
  1052  00B9  308A               	movlw	138
  1053  00BA  00A1               	movwf	(??_main^(0+128)+1)
  1054  00BB  3055               	movlw	85
  1055  00BC  00A0               	movwf	??_main^(0+128)
  1056  00BD                     u1987:	
  1057  00BD  0BA0               	decfsz	??_main^(0+128),f
  1058  00BE  28BD               	goto	u1987
  1059  00BF  0BA1               	decfsz	(??_main^(0+128)+1),f
  1060  00C0  28BD               	goto	u1987
  1061  00C1  0BA2               	decfsz	(??_main^(0+128)+2),f
  1062  00C2  28BD               	goto	u1987
  1063  00C3                     l2283:	
  1064                           
  1065                           ;main.c: 104:             ADCON0bits.CHS=0;
  1066  00C3  30C7               	movlw	-57
  1067  00C4  1283               	bcf	3,5	;RP0=0, select bank0
  1068  00C5  1303               	bcf	3,6	;RP1=0, select bank0
  1069  00C6  059F               	andwf	31,f	;volatile
  1070  00C7                     l2285:	
  1071                           
  1072                           ;main.c: 105:             ADCON0bits.GO_nDONE=1;
  1073  00C7  151F               	bsf	31,2	;volatile
  1074  00C8                     l240:	
  1075                           ;main.c: 106:             while(ADCON0bits.GO_nDONE);
  1076                           
  1077  00C8  191F               	btfsc	31,2	;volatile
  1078  00C9  28CB               	goto	u1761
  1079  00CA  28CC               	goto	u1760
  1080  00CB                     u1761:	
  1081  00CB  28C8               	goto	l240
  1082  00CC                     u1760:	
  1083  00CC                     l2287:	
  1084                           
  1085                           ;main.c: 107:             _delay((unsigned long)((20)*(20000000/4000000.0)));
  1086  00CC  3020               	movlw	32
  1087  00CD  1683               	bsf	3,5	;RP0=1, select bank1
  1088  00CE  1303               	bcf	3,6	;RP1=0, select bank1
  1089  00CF  00A0               	movwf	??_main^(0+128)
  1090  00D0                     u1997:	
  1091  00D0  0BA0               	decfsz	??_main^(0+128),f
  1092  00D1  28D0               	goto	u1997
  1093  00D2  0000               	nop
  1094                           
  1095                           ;main.c: 108:             wind_val=(ADRESH<<8)+ADRESL;
  1096  00D3  1283               	bcf	3,5	;RP0=0, select bank0
  1097  00D4  1303               	bcf	3,6	;RP1=0, select bank0
  1098  00D5  081E               	movf	30,w	;volatile
  1099  00D6  00D5               	movwf	_wind_val+1
  1100  00D7  1683               	bsf	3,5	;RP0=1, select bank1
  1101  00D8  1303               	bcf	3,6	;RP1=0, select bank1
  1102  00D9  081E               	movf	30,w	;volatile
  1103  00DA  1283               	bcf	3,5	;RP0=0, select bank0
  1104  00DB  1303               	bcf	3,6	;RP1=0, select bank0
  1105  00DC  00D4               	movwf	_wind_val
  1106  00DD                     l2289:	
  1107                           
  1108                           ;main.c: 109:             ADCON0bits.CHS=1;
  1109  00DD  081F               	movf	31,w	;volatile
  1110  00DE  39C7               	andlw	-57
  1111  00DF  3808               	iorlw	8
  1112  00E0  009F               	movwf	31	;volatile
  1113  00E1                     l2291:	
  1114                           
  1115                           ;main.c: 110:             ADCON0bits.GO_nDONE=1;
  1116  00E1  151F               	bsf	31,2	;volatile
  1117  00E2                     l243:	
  1118                           ;main.c: 111:             while(ADCON0bits.GO_nDONE);
  1119                           
  1120  00E2  191F               	btfsc	31,2	;volatile
  1121  00E3  28E5               	goto	u1771
  1122  00E4  28E6               	goto	u1770
  1123  00E5                     u1771:	
  1124  00E5  28E2               	goto	l243
  1125  00E6                     u1770:	
  1126  00E6                     l2293:	
  1127                           
  1128                           ;main.c: 112:             _delay((unsigned long)((20)*(20000000/4000000.0)));
  1129  00E6  3020               	movlw	32
  1130  00E7  1683               	bsf	3,5	;RP0=1, select bank1
  1131  00E8  1303               	bcf	3,6	;RP1=0, select bank1
  1132  00E9  00A0               	movwf	??_main^(0+128)
  1133  00EA                     u2007:	
  1134  00EA  0BA0               	decfsz	??_main^(0+128),f
  1135  00EB  28EA               	goto	u2007
  1136  00EC  0000               	nop
  1137                           
  1138                           ;main.c: 113:             solar_val=(ADRESH<<8)+ADRESL;
  1139  00ED  1283               	bcf	3,5	;RP0=0, select bank0
  1140  00EE  1303               	bcf	3,6	;RP1=0, select bank0
  1141  00EF  081E               	movf	30,w	;volatile
  1142  00F0  00D3               	movwf	_solar_val+1
  1143  00F1  1683               	bsf	3,5	;RP0=1, select bank1
  1144  00F2  1303               	bcf	3,6	;RP1=0, select bank1
  1145  00F3  081E               	movf	30,w	;volatile
  1146  00F4  1283               	bcf	3,5	;RP0=0, select bank0
  1147  00F5  1303               	bcf	3,6	;RP1=0, select bank0
  1148  00F6  00D2               	movwf	_solar_val
  1149  00F7                     l2295:	
  1150                           
  1151                           ;main.c: 114:             ADCON0bits.CHS=2;
  1152  00F7  081F               	movf	31,w	;volatile
  1153  00F8  39C7               	andlw	-57
  1154  00F9  3810               	iorlw	16
  1155  00FA  009F               	movwf	31	;volatile
  1156  00FB                     l2297:	
  1157                           
  1158                           ;main.c: 115:             ADCON0bits.GO_nDONE=1;
  1159  00FB  151F               	bsf	31,2	;volatile
  1160  00FC                     l246:	
  1161                           ;main.c: 116:             while(ADCON0bits.GO_nDONE);
  1162                           
  1163  00FC  191F               	btfsc	31,2	;volatile
  1164  00FD  28FF               	goto	u1781
  1165  00FE  2900               	goto	u1780
  1166  00FF                     u1781:	
  1167  00FF  28FC               	goto	l246
  1168  0100                     u1780:	
  1169  0100                     l2299:	
  1170                           
  1171                           ;main.c: 117:             _delay((unsigned long)((20)*(20000000/4000000.0)));
  1172  0100  3020               	movlw	32
  1173  0101  1683               	bsf	3,5	;RP0=1, select bank1
  1174  0102  1303               	bcf	3,6	;RP1=0, select bank1
  1175  0103  00A0               	movwf	??_main^(0+128)
  1176  0104                     u2017:	
  1177  0104  0BA0               	decfsz	??_main^(0+128),f
  1178  0105  2904               	goto	u2017
  1179  0106  0000               	nop
  1180                           
  1181                           ;main.c: 118:             biogas_val=(ADRESH<<8)+ADRESL;
  1182  0107  1283               	bcf	3,5	;RP0=0, select bank0
  1183  0108  1303               	bcf	3,6	;RP1=0, select bank0
  1184  0109  081E               	movf	30,w	;volatile
  1185  010A  00D1               	movwf	_biogas_val+1
  1186  010B  1683               	bsf	3,5	;RP0=1, select bank1
  1187  010C  1303               	bcf	3,6	;RP1=0, select bank1
  1188  010D  081E               	movf	30,w	;volatile
  1189  010E  1283               	bcf	3,5	;RP0=0, select bank0
  1190  010F  1303               	bcf	3,6	;RP1=0, select bank0
  1191  0110  00D0               	movwf	_biogas_val
  1192  0111                     l2301:	
  1193                           
  1194                           ;main.c: 119:             ADCON0bits.CHS=3;
  1195  0111  081F               	movf	31,w	;volatile
  1196  0112  39C7               	andlw	-57
  1197  0113  3818               	iorlw	24
  1198  0114  009F               	movwf	31	;volatile
  1199  0115                     l2303:	
  1200                           
  1201                           ;main.c: 120:             ADCON0bits.GO_nDONE=1;
  1202  0115  151F               	bsf	31,2	;volatile
  1203  0116                     l249:	
  1204                           ;main.c: 121:             while(ADCON0bits.GO_nDONE);
  1205                           
  1206  0116  191F               	btfsc	31,2	;volatile
  1207  0117  2919               	goto	u1791
  1208  0118  291A               	goto	u1790
  1209  0119                     u1791:	
  1210  0119  2916               	goto	l249
  1211  011A                     u1790:	
  1212  011A                     l2305:	
  1213                           
  1214                           ;main.c: 122:             _delay((unsigned long)((20)*(20000000/4000000.0)));
  1215  011A  3020               	movlw	32
  1216  011B  1683               	bsf	3,5	;RP0=1, select bank1
  1217  011C  1303               	bcf	3,6	;RP1=0, select bank1
  1218  011D  00A0               	movwf	??_main^(0+128)
  1219  011E                     u2027:	
  1220  011E  0BA0               	decfsz	??_main^(0+128),f
  1221  011F  291E               	goto	u2027
  1222  0120  0000               	nop
  1223                           
  1224                           ;main.c: 123:             phcn_val=(ADRESH<<8)+ADRESL;
  1225  0121  1283               	bcf	3,5	;RP0=0, select bank0
  1226  0122  1303               	bcf	3,6	;RP1=0, select bank0
  1227  0123  081E               	movf	30,w	;volatile
  1228  0124  00CF               	movwf	_phcn_val+1
  1229  0125  1683               	bsf	3,5	;RP0=1, select bank1
  1230  0126  1303               	bcf	3,6	;RP1=0, select bank1
  1231  0127  081E               	movf	30,w	;volatile
  1232  0128  1283               	bcf	3,5	;RP0=0, select bank0
  1233  0129  1303               	bcf	3,6	;RP1=0, select bank0
  1234  012A  00CE               	movwf	_phcn_val
  1235  012B                     l2307:	
  1236                           
  1237                           ;main.c: 124:             Update_Current_Date_Time();
  1238  012B  120A  118A  22B9  120A  118A  	fcall	_Update_Current_Date_Time
  1239  0130                     l2309:	
  1240                           
  1241                           ;main.c: 125:             CURSOR(0xC0,0);
  1242  0130  1283               	bcf	3,5	;RP0=0, select bank0
  1243  0131  1303               	bcf	3,6	;RP1=0, select bank0
  1244  0132  01A7               	clrf	CURSOR@b
  1245  0133  30C0               	movlw	192
  1246  0134  120A  158A  27DC  120A  118A  	fcall	_CURSOR
  1247  0139                     l2311:	
  1248                           
  1249                           ;main.c: 126:                               LCDWRITE(":");
  1250  0139  305C               	movlw	(low ((STR_2-__stringbase)| (0+32768)))& (0+255)
  1251  013A  120A  118A  26B2  120A  118A  	fcall	_LCDWRITE
  1252  013F                     l2313:	
  1253                           
  1254                           ;main.c: 130:             if((hour>0)&&(hour<=7))nextState=night;
  1255  013F  1283               	bcf	3,5	;RP0=0, select bank0
  1256  0140  1303               	bcf	3,6	;RP1=0, select bank0
  1257  0141  0857               	movf	_hour+1,w
  1258  0142  3A80               	xorlw	128
  1259  0143  00FF               	movwf	btemp+1
  1260  0144  3080               	movlw	128
  1261  0145  027F               	subwf	btemp+1,w
  1262  0146  1D03               	skipz
  1263  0147  294A               	goto	u1805
  1264  0148  3001               	movlw	1
  1265  0149  0256               	subwf	_hour,w
  1266  014A                     u1805:	
  1267  014A  1C03               	skipc
  1268  014B  294D               	goto	u1801
  1269  014C  294E               	goto	u1800
  1270  014D                     u1801:	
  1271  014D  2966               	goto	l2319
  1272  014E                     u1800:	
  1273  014E                     l2315:	
  1274  014E  1283               	bcf	3,5	;RP0=0, select bank0
  1275  014F  1303               	bcf	3,6	;RP1=0, select bank0
  1276  0150  0857               	movf	_hour+1,w
  1277  0151  3A80               	xorlw	128
  1278  0152  00FF               	movwf	btemp+1
  1279  0153  3080               	movlw	128
  1280  0154  027F               	subwf	btemp+1,w
  1281  0155  1D03               	skipz
  1282  0156  2959               	goto	u1815
  1283  0157  3008               	movlw	8
  1284  0158  0256               	subwf	_hour,w
  1285  0159                     u1815:	
  1286  0159  1803               	skipnc
  1287  015A  295C               	goto	u1811
  1288  015B  295D               	goto	u1810
  1289  015C                     u1811:	
  1290  015C  2966               	goto	l2319
  1291  015D                     u1810:	
  1292  015D                     l2317:	
  1293  015D  3003               	movlw	3
  1294  015E  1683               	bsf	3,5	;RP0=1, select bank1
  1295  015F  1303               	bcf	3,6	;RP1=0, select bank1
  1296  0160  00A0               	movwf	??_main^(0+128)
  1297  0161  0820               	movf	??_main^(0+128),w
  1298  0162  1283               	bcf	3,5	;RP0=0, select bank0
  1299  0163  1303               	bcf	3,6	;RP1=0, select bank0
  1300  0164  00DC               	movwf	_nextState
  1301  0165  29B1               	goto	l239
  1302  0166                     l2319:	
  1303  0166  1283               	bcf	3,5	;RP0=0, select bank0
  1304  0167  1303               	bcf	3,6	;RP1=0, select bank0
  1305  0168  0857               	movf	_hour+1,w
  1306  0169  3A80               	xorlw	128
  1307  016A  00FF               	movwf	btemp+1
  1308  016B  3080               	movlw	128
  1309  016C  027F               	subwf	btemp+1,w
  1310  016D  1D03               	skipz
  1311  016E  2971               	goto	u1825
  1312  016F  3008               	movlw	8
  1313  0170  0256               	subwf	_hour,w
  1314  0171                     u1825:	
  1315  0171  1C03               	skipc
  1316  0172  2974               	goto	u1821
  1317  0173  2975               	goto	u1820
  1318  0174                     u1821:	
  1319  0174  2989               	goto	l2325
  1320  0175                     u1820:	
  1321  0175                     l2321:	
  1322  0175  1283               	bcf	3,5	;RP0=0, select bank0
  1323  0176  1303               	bcf	3,6	;RP1=0, select bank0
  1324  0177  0857               	movf	_hour+1,w
  1325  0178  3A80               	xorlw	128
  1326  0179  00FF               	movwf	btemp+1
  1327  017A  3080               	movlw	128
  1328  017B  027F               	subwf	btemp+1,w
  1329  017C  1D03               	skipz
  1330  017D  2980               	goto	u1835
  1331  017E  300C               	movlw	12
  1332  017F  0256               	subwf	_hour,w
  1333  0180                     u1835:	
  1334  0180  1803               	skipnc
  1335  0181  2983               	goto	u1831
  1336  0182  2984               	goto	u1830
  1337  0183                     u1831:	
  1338  0183  2989               	goto	l2325
  1339  0184                     u1830:	
  1340  0184                     l2323:	
  1341  0184  1283               	bcf	3,5	;RP0=0, select bank0
  1342  0185  1303               	bcf	3,6	;RP1=0, select bank0
  1343  0186  01DC               	clrf	_nextState
  1344  0187  0ADC               	incf	_nextState,f
  1345  0188  29B1               	goto	l239
  1346  0189                     l2325:	
  1347  0189  1283               	bcf	3,5	;RP0=0, select bank0
  1348  018A  1303               	bcf	3,6	;RP1=0, select bank0
  1349  018B  0857               	movf	_hour+1,w
  1350  018C  3A80               	xorlw	128
  1351  018D  00FF               	movwf	btemp+1
  1352  018E  3080               	movlw	128
  1353  018F  027F               	subwf	btemp+1,w
  1354  0190  1D03               	skipz
  1355  0191  2994               	goto	u1845
  1356  0192  3012               	movlw	18
  1357  0193  0256               	subwf	_hour,w
  1358  0194                     u1845:	
  1359  0194  1803               	skipnc
  1360  0195  2997               	goto	u1841
  1361  0196  2998               	goto	u1840
  1362  0197                     u1841:	
  1363  0197  29A1               	goto	l2329
  1364  0198                     u1840:	
  1365  0198                     l2327:	
  1366  0198  3002               	movlw	2
  1367  0199  1683               	bsf	3,5	;RP0=1, select bank1
  1368  019A  1303               	bcf	3,6	;RP1=0, select bank1
  1369  019B  00A0               	movwf	??_main^(0+128)
  1370  019C  0820               	movf	??_main^(0+128),w
  1371  019D  1283               	bcf	3,5	;RP0=0, select bank0
  1372  019E  1303               	bcf	3,6	;RP1=0, select bank0
  1373  019F  00DC               	movwf	_nextState
  1374  01A0  29B1               	goto	l239
  1375  01A1                     l2329:	
  1376  01A1  1283               	bcf	3,5	;RP0=0, select bank0
  1377  01A2  1303               	bcf	3,6	;RP1=0, select bank0
  1378  01A3  0857               	movf	_hour+1,w
  1379  01A4  3A80               	xorlw	128
  1380  01A5  00FF               	movwf	btemp+1
  1381  01A6  3080               	movlw	128
  1382  01A7  027F               	subwf	btemp+1,w
  1383  01A8  1D03               	skipz
  1384  01A9  29AC               	goto	u1855
  1385  01AA  3017               	movlw	23
  1386  01AB  0256               	subwf	_hour,w
  1387  01AC                     u1855:	
  1388  01AC  1803               	skipnc
  1389  01AD  29AF               	goto	u1851
  1390  01AE  29B0               	goto	u1850
  1391  01AF                     u1851:	
  1392  01AF  29B1               	goto	l255
  1393  01B0                     u1850:	
  1394  01B0  295D               	goto	l2317
  1395  01B1                     l255:	
  1396  01B1                     l239:	
  1397                           ;main.c: 134:         }
  1398                           
  1399  01B1  0064               	clrwdt	;# 
  1400  01B2                     l2333:	
  1401                           
  1402                           ;main.c: 136:         RD4=1;
  1403  01B2  1283               	bcf	3,5	;RP0=0, select bank0
  1404  01B3  1303               	bcf	3,6	;RP1=0, select bank0
  1405  01B4  1608               	bsf	8,4	;volatile
  1406                           
  1407                           ;main.c: 137:         _delay((unsigned long)((10)*(20000000/4000.0)));
  1408  01B5  3041               	movlw	65
  1409  01B6  1683               	bsf	3,5	;RP0=1, select bank1
  1410  01B7  1303               	bcf	3,6	;RP1=0, select bank1
  1411  01B8  00A1               	movwf	(??_main^(0+128)+1)
  1412  01B9  30ED               	movlw	237
  1413  01BA  00A0               	movwf	??_main^(0+128)
  1414  01BB                     u2037:	
  1415  01BB  0BA0               	decfsz	??_main^(0+128),f
  1416  01BC  29BB               	goto	u2037
  1417  01BD  0BA1               	decfsz	(??_main^(0+128)+1),f
  1418  01BE  29BB               	goto	u2037
  1419  01BF  29C0               	nop2
  1420  01C0                     l2335:	
  1421                           
  1422                           ;main.c: 138:         if(nextState==morning){
  1423  01C0  1283               	bcf	3,5	;RP0=0, select bank0
  1424  01C1  1303               	bcf	3,6	;RP1=0, select bank0
  1425  01C2  035C               	decf	_nextState,w
  1426  01C3  1D03               	btfss	3,2
  1427  01C4  29C6               	goto	u1861
  1428  01C5  29C7               	goto	u1860
  1429  01C6                     u1861:	
  1430  01C6  2A0E               	goto	l2351
  1431  01C7                     u1860:	
  1432  01C7                     l2337:	
  1433                           
  1434                           ;main.c: 139:             if(solar_val<thresh){
  1435  01C7  0853               	movf	_solar_val+1,w
  1436  01C8  3A80               	xorlw	128
  1437  01C9  00FF               	movwf	btemp+1
  1438  01CA  3083               	movlw	131
  1439  01CB  027F               	subwf	btemp+1,w
  1440  01CC  1D03               	skipz
  1441  01CD  29D0               	goto	u1875
  1442  01CE  306E               	movlw	110
  1443  01CF  0252               	subwf	_solar_val,w
  1444  01D0                     u1875:	
  1445  01D0  1803               	skipnc
  1446  01D1  29D3               	goto	u1871
  1447  01D2  29D4               	goto	u1870
  1448  01D3                     u1871:	
  1449  01D3  29DB               	goto	l2341
  1450  01D4                     u1870:	
  1451  01D4                     l2339:	
  1452                           
  1453                           ;main.c: 140:                 RD0=0;RD1=1;RD2=0;RD3=0;
  1454  01D4  1283               	bcf	3,5	;RP0=0, select bank0
  1455  01D5  1303               	bcf	3,6	;RP1=0, select bank0
  1456  01D6  1008               	bcf	8,0	;volatile
  1457  01D7  1488               	bsf	8,1	;volatile
  1458  01D8  1108               	bcf	8,2	;volatile
  1459  01D9  1188               	bcf	8,3	;volatile
  1460                           
  1461                           ;main.c: 141:             }else if(wind_val<thresh){
  1462  01DA  2A0D               	goto	l2349
  1463  01DB                     l2341:	
  1464  01DB  1283               	bcf	3,5	;RP0=0, select bank0
  1465  01DC  1303               	bcf	3,6	;RP1=0, select bank0
  1466  01DD  0855               	movf	_wind_val+1,w
  1467  01DE  3A80               	xorlw	128
  1468  01DF  00FF               	movwf	btemp+1
  1469  01E0  3083               	movlw	131
  1470  01E1  027F               	subwf	btemp+1,w
  1471  01E2  1D03               	skipz
  1472  01E3  29E6               	goto	u1885
  1473  01E4  306E               	movlw	110
  1474  01E5  0254               	subwf	_wind_val,w
  1475  01E6                     u1885:	
  1476  01E6  1803               	skipnc
  1477  01E7  29E9               	goto	u1881
  1478  01E8  29EA               	goto	u1880
  1479  01E9                     u1881:	
  1480  01E9  29F1               	goto	l2345
  1481  01EA                     u1880:	
  1482  01EA                     l2343:	
  1483                           
  1484                           ;main.c: 142:                 RD0=1;RD1=0;RD2=0;RD3=0;
  1485  01EA  1283               	bcf	3,5	;RP0=0, select bank0
  1486  01EB  1303               	bcf	3,6	;RP1=0, select bank0
  1487  01EC  1408               	bsf	8,0	;volatile
  1488  01ED  1088               	bcf	8,1	;volatile
  1489  01EE  1108               	bcf	8,2	;volatile
  1490  01EF  1188               	bcf	8,3	;volatile
  1491                           
  1492                           ;main.c: 143:             }else if(phcn_val<thresh){
  1493  01F0  2A0D               	goto	l2349
  1494  01F1                     l2345:	
  1495  01F1  1283               	bcf	3,5	;RP0=0, select bank0
  1496  01F2  1303               	bcf	3,6	;RP1=0, select bank0
  1497  01F3  084F               	movf	_phcn_val+1,w
  1498  01F4  3A80               	xorlw	128
  1499  01F5  00FF               	movwf	btemp+1
  1500  01F6  3083               	movlw	131
  1501  01F7  027F               	subwf	btemp+1,w
  1502  01F8  1D03               	skipz
  1503  01F9  29FC               	goto	u1895
  1504  01FA  306E               	movlw	110
  1505  01FB  024E               	subwf	_phcn_val,w
  1506  01FC                     u1895:	
  1507  01FC  1803               	skipnc
  1508  01FD  29FF               	goto	u1891
  1509  01FE  2A00               	goto	u1890
  1510  01FF                     u1891:	
  1511  01FF  2A07               	goto	l264
  1512  0200                     u1890:	
  1513  0200                     l2347:	
  1514                           
  1515                           ;main.c: 144:                 RD0=0;RD1=0;RD2=0;RD3=1;
  1516  0200  1283               	bcf	3,5	;RP0=0, select bank0
  1517  0201  1303               	bcf	3,6	;RP1=0, select bank0
  1518  0202  1008               	bcf	8,0	;volatile
  1519  0203  1088               	bcf	8,1	;volatile
  1520  0204  1108               	bcf	8,2	;volatile
  1521  0205  1588               	bsf	8,3	;volatile
  1522                           
  1523                           ;main.c: 145:             }else{
  1524  0206  2A0D               	goto	l2349
  1525  0207                     l264:	
  1526                           
  1527                           ;main.c: 146:                 RD0=0;RD1=0;RD2=0;RD3=0;
  1528  0207  1283               	bcf	3,5	;RP0=0, select bank0
  1529  0208  1303               	bcf	3,6	;RP1=0, select bank0
  1530  0209  1008               	bcf	8,0	;volatile
  1531  020A  1088               	bcf	8,1	;volatile
  1532  020B  1108               	bcf	8,2	;volatile
  1533  020C  1188               	bcf	8,3	;volatile
  1534  020D                     l2349:	
  1535                           
  1536                           ;main.c: 148:             nextState=initialState;
  1537  020D  01DC               	clrf	_nextState
  1538  020E                     l2351:	
  1539                           
  1540                           ;main.c: 150:         if(nextState==afternoon){
  1541  020E  3002               	movlw	2
  1542  020F  065C               	xorwf	_nextState,w
  1543  0210  1D03               	btfss	3,2
  1544  0211  2A13               	goto	u1901
  1545  0212  2A14               	goto	u1900
  1546  0213                     u1901:	
  1547  0213  2A5B               	goto	l2367
  1548  0214                     u1900:	
  1549  0214                     l2353:	
  1550                           
  1551                           ;main.c: 151:             if(solar_val<thresh){
  1552  0214  0853               	movf	_solar_val+1,w
  1553  0215  3A80               	xorlw	128
  1554  0216  00FF               	movwf	btemp+1
  1555  0217  3083               	movlw	131
  1556  0218  027F               	subwf	btemp+1,w
  1557  0219  1D03               	skipz
  1558  021A  2A1D               	goto	u1915
  1559  021B  306E               	movlw	110
  1560  021C  0252               	subwf	_solar_val,w
  1561  021D                     u1915:	
  1562  021D  1803               	skipnc
  1563  021E  2A20               	goto	u1911
  1564  021F  2A21               	goto	u1910
  1565  0220                     u1911:	
  1566  0220  2A28               	goto	l2357
  1567  0221                     u1910:	
  1568  0221                     l2355:	
  1569                           
  1570                           ;main.c: 152:                 RD0=0;RD1=1;RD2=0;RD3=0;
  1571  0221  1283               	bcf	3,5	;RP0=0, select bank0
  1572  0222  1303               	bcf	3,6	;RP1=0, select bank0
  1573  0223  1008               	bcf	8,0	;volatile
  1574  0224  1488               	bsf	8,1	;volatile
  1575  0225  1108               	bcf	8,2	;volatile
  1576  0226  1188               	bcf	8,3	;volatile
  1577                           
  1578                           ;main.c: 153:             }else if(wind_val<thresh){
  1579  0227  2A5A               	goto	l2365
  1580  0228                     l2357:	
  1581  0228  1283               	bcf	3,5	;RP0=0, select bank0
  1582  0229  1303               	bcf	3,6	;RP1=0, select bank0
  1583  022A  0855               	movf	_wind_val+1,w
  1584  022B  3A80               	xorlw	128
  1585  022C  00FF               	movwf	btemp+1
  1586  022D  3083               	movlw	131
  1587  022E  027F               	subwf	btemp+1,w
  1588  022F  1D03               	skipz
  1589  0230  2A33               	goto	u1925
  1590  0231  306E               	movlw	110
  1591  0232  0254               	subwf	_wind_val,w
  1592  0233                     u1925:	
  1593  0233  1803               	skipnc
  1594  0234  2A36               	goto	u1921
  1595  0235  2A37               	goto	u1920
  1596  0236                     u1921:	
  1597  0236  2A3E               	goto	l2361
  1598  0237                     u1920:	
  1599  0237                     l2359:	
  1600                           
  1601                           ;main.c: 154:                 RD0=1;RD1=0;RD2=0;RD3=0;
  1602  0237  1283               	bcf	3,5	;RP0=0, select bank0
  1603  0238  1303               	bcf	3,6	;RP1=0, select bank0
  1604  0239  1408               	bsf	8,0	;volatile
  1605  023A  1088               	bcf	8,1	;volatile
  1606  023B  1108               	bcf	8,2	;volatile
  1607  023C  1188               	bcf	8,3	;volatile
  1608                           
  1609                           ;main.c: 155:             }else if(phcn_val<thresh){
  1610  023D  2A5A               	goto	l2365
  1611  023E                     l2361:	
  1612  023E  1283               	bcf	3,5	;RP0=0, select bank0
  1613  023F  1303               	bcf	3,6	;RP1=0, select bank0
  1614  0240  084F               	movf	_phcn_val+1,w
  1615  0241  3A80               	xorlw	128
  1616  0242  00FF               	movwf	btemp+1
  1617  0243  3083               	movlw	131
  1618  0244  027F               	subwf	btemp+1,w
  1619  0245  1D03               	skipz
  1620  0246  2A49               	goto	u1935
  1621  0247  306E               	movlw	110
  1622  0248  024E               	subwf	_phcn_val,w
  1623  0249                     u1935:	
  1624  0249  1803               	skipnc
  1625  024A  2A4C               	goto	u1931
  1626  024B  2A4D               	goto	u1930
  1627  024C                     u1931:	
  1628  024C  2A54               	goto	l271
  1629  024D                     u1930:	
  1630  024D                     l2363:	
  1631                           
  1632                           ;main.c: 156:                 RD0=0;RD1=0;RD2=0;RD3=1;
  1633  024D  1283               	bcf	3,5	;RP0=0, select bank0
  1634  024E  1303               	bcf	3,6	;RP1=0, select bank0
  1635  024F  1008               	bcf	8,0	;volatile
  1636  0250  1088               	bcf	8,1	;volatile
  1637  0251  1108               	bcf	8,2	;volatile
  1638  0252  1588               	bsf	8,3	;volatile
  1639                           
  1640                           ;main.c: 157:             }else{
  1641  0253  2A5A               	goto	l2365
  1642  0254                     l271:	
  1643                           
  1644                           ;main.c: 158:                 RD0=0;RD1=0;RD2=1;RD3=0;
  1645  0254  1283               	bcf	3,5	;RP0=0, select bank0
  1646  0255  1303               	bcf	3,6	;RP1=0, select bank0
  1647  0256  1008               	bcf	8,0	;volatile
  1648  0257  1088               	bcf	8,1	;volatile
  1649  0258  1508               	bsf	8,2	;volatile
  1650  0259  1188               	bcf	8,3	;volatile
  1651  025A                     l2365:	
  1652                           
  1653                           ;main.c: 160:             nextState=initialState;
  1654  025A  01DC               	clrf	_nextState
  1655  025B                     l2367:	
  1656                           
  1657                           ;main.c: 162:         if(nextState==night){
  1658  025B  3003               	movlw	3
  1659  025C  065C               	xorwf	_nextState,w
  1660  025D  1D03               	btfss	3,2
  1661  025E  2A60               	goto	u1941
  1662  025F  2A61               	goto	u1940
  1663  0260                     u1941:	
  1664  0260  2AA8               	goto	l2383
  1665  0261                     u1940:	
  1666  0261                     l2369:	
  1667                           
  1668                           ;main.c: 163:             if(biogas_val<thresh){
  1669  0261  0851               	movf	_biogas_val+1,w
  1670  0262  3A80               	xorlw	128
  1671  0263  00FF               	movwf	btemp+1
  1672  0264  3083               	movlw	131
  1673  0265  027F               	subwf	btemp+1,w
  1674  0266  1D03               	skipz
  1675  0267  2A6A               	goto	u1955
  1676  0268  306E               	movlw	110
  1677  0269  0250               	subwf	_biogas_val,w
  1678  026A                     u1955:	
  1679  026A  1803               	skipnc
  1680  026B  2A6D               	goto	u1951
  1681  026C  2A6E               	goto	u1950
  1682  026D                     u1951:	
  1683  026D  2A75               	goto	l2373
  1684  026E                     u1950:	
  1685  026E                     l2371:	
  1686                           
  1687                           ;main.c: 164:                 RD0=0;RD1=0;RD2=1;RD3=0;
  1688  026E  1283               	bcf	3,5	;RP0=0, select bank0
  1689  026F  1303               	bcf	3,6	;RP1=0, select bank0
  1690  0270  1008               	bcf	8,0	;volatile
  1691  0271  1088               	bcf	8,1	;volatile
  1692  0272  1508               	bsf	8,2	;volatile
  1693  0273  1188               	bcf	8,3	;volatile
  1694                           
  1695                           ;main.c: 165:             }else if(wind_val<thresh){
  1696  0274  2AA7               	goto	l2381
  1697  0275                     l2373:	
  1698  0275  1283               	bcf	3,5	;RP0=0, select bank0
  1699  0276  1303               	bcf	3,6	;RP1=0, select bank0
  1700  0277  0855               	movf	_wind_val+1,w
  1701  0278  3A80               	xorlw	128
  1702  0279  00FF               	movwf	btemp+1
  1703  027A  3083               	movlw	131
  1704  027B  027F               	subwf	btemp+1,w
  1705  027C  1D03               	skipz
  1706  027D  2A80               	goto	u1965
  1707  027E  306E               	movlw	110
  1708  027F  0254               	subwf	_wind_val,w
  1709  0280                     u1965:	
  1710  0280  1803               	skipnc
  1711  0281  2A83               	goto	u1961
  1712  0282  2A84               	goto	u1960
  1713  0283                     u1961:	
  1714  0283  2A8B               	goto	l2377
  1715  0284                     u1960:	
  1716  0284                     l2375:	
  1717                           
  1718                           ;main.c: 166:                 RD0=1;RD1=0;RD2=0;RD3=0;
  1719  0284  1283               	bcf	3,5	;RP0=0, select bank0
  1720  0285  1303               	bcf	3,6	;RP1=0, select bank0
  1721  0286  1408               	bsf	8,0	;volatile
  1722  0287  1088               	bcf	8,1	;volatile
  1723  0288  1108               	bcf	8,2	;volatile
  1724  0289  1188               	bcf	8,3	;volatile
  1725                           
  1726                           ;main.c: 167:             }else if(phcn_val<thresh){
  1727  028A  2AA7               	goto	l2381
  1728  028B                     l2377:	
  1729  028B  1283               	bcf	3,5	;RP0=0, select bank0
  1730  028C  1303               	bcf	3,6	;RP1=0, select bank0
  1731  028D  084F               	movf	_phcn_val+1,w
  1732  028E  3A80               	xorlw	128
  1733  028F  00FF               	movwf	btemp+1
  1734  0290  3083               	movlw	131
  1735  0291  027F               	subwf	btemp+1,w
  1736  0292  1D03               	skipz
  1737  0293  2A96               	goto	u1975
  1738  0294  306E               	movlw	110
  1739  0295  024E               	subwf	_phcn_val,w
  1740  0296                     u1975:	
  1741  0296  1803               	skipnc
  1742  0297  2A99               	goto	u1971
  1743  0298  2A9A               	goto	u1970
  1744  0299                     u1971:	
  1745  0299  2AA1               	goto	l278
  1746  029A                     u1970:	
  1747  029A                     l2379:	
  1748                           
  1749                           ;main.c: 168:                 RD0=0;RD1=0;RD2=0;RD3=1;
  1750  029A  1283               	bcf	3,5	;RP0=0, select bank0
  1751  029B  1303               	bcf	3,6	;RP1=0, select bank0
  1752  029C  1008               	bcf	8,0	;volatile
  1753  029D  1088               	bcf	8,1	;volatile
  1754  029E  1108               	bcf	8,2	;volatile
  1755  029F  1588               	bsf	8,3	;volatile
  1756                           
  1757                           ;main.c: 169:             }else{
  1758  02A0  2AA7               	goto	l2381
  1759  02A1                     l278:	
  1760                           
  1761                           ;main.c: 170:                 RD0=0;RD1=1;RD2=0;RD3=0;
  1762  02A1  1283               	bcf	3,5	;RP0=0, select bank0
  1763  02A2  1303               	bcf	3,6	;RP1=0, select bank0
  1764  02A3  1008               	bcf	8,0	;volatile
  1765  02A4  1488               	bsf	8,1	;volatile
  1766  02A5  1108               	bcf	8,2	;volatile
  1767  02A6  1188               	bcf	8,3	;volatile
  1768  02A7                     l2381:	
  1769                           
  1770                           ;main.c: 172:             nextState=initialState;
  1771  02A7  01DC               	clrf	_nextState
  1772  02A8                     l2383:	
  1773                           
  1774                           ;main.c: 174:         RD4=0;
  1775  02A8  1208               	bcf	8,4	;volatile
  1776  02A9                     l2385:	
  1777                           
  1778                           ;main.c: 180:         _delay((unsigned long)((10)*(20000000/4000.0)));
  1779  02A9  3041               	movlw	65
  1780  02AA  1683               	bsf	3,5	;RP0=1, select bank1
  1781  02AB  1303               	bcf	3,6	;RP1=0, select bank1
  1782  02AC  00A1               	movwf	(??_main^(0+128)+1)
  1783  02AD  30ED               	movlw	237
  1784  02AE  00A0               	movwf	??_main^(0+128)
  1785  02AF                     u2047:	
  1786  02AF  0BA0               	decfsz	??_main^(0+128),f
  1787  02B0  2AAF               	goto	u2047
  1788  02B1  0BA1               	decfsz	(??_main^(0+128)+1),f
  1789  02B2  2AAF               	goto	u2047
  1790  02B3  2AB4               	nop2
  1791  02B4  0064               	clrwdt	;# 
  1792  02B5  288F               	goto	l2277
  1793  02B6  120A  118A  2810   	ljmp	start
  1794  02B9                     __end_of_main:	
  1795                           
  1796                           	psect	text1
  1797  04E5                     __ptext1:	
  1798 ;; *************** function _config *****************
  1799 ;; Defined at:
  1800 ;;		line 240 in file "./LCDLIBRARY1.h"
  1801 ;; Parameters:    Size  Location     Type
  1802 ;;		None
  1803 ;; Auto vars:     Size  Location     Type
  1804 ;;		None
  1805 ;; Return value:  Size  Location     Type
  1806 ;;                  1    wreg      void 
  1807 ;; Registers used:
  1808 ;;		wreg, status,2, status,0, pclath, cstack
  1809 ;; Tracked objects:
  1810 ;;		On entry : 0/0
  1811 ;;		On exit  : 0/0
  1812 ;;		Unchanged: 0/0
  1813 ;; Data sizes:     COMMON   BANK0   BANK1   BANK3   BANK2
  1814 ;;      Params:         0       0       0       0       0
  1815 ;;      Locals:         0       0       0       0       0
  1816 ;;      Temps:          0       0       0       0       0
  1817 ;;      Totals:         0       0       0       0       0
  1818 ;;Total ram usage:        0 bytes
  1819 ;; Hardware stack levels used:    1
  1820 ;; Hardware stack levels required when called:    6
  1821 ;; This function calls:
  1822 ;;		_CLOCK
  1823 ;;		_delay1
  1824 ;; This function is called by:
  1825 ;;		_main
  1826 ;; This function uses a non-reentrant model
  1827 ;;
  1828                           
  1829                           
  1830                           ;psect for function _config
  1831  04E5                     _config:	
  1832  04E5                     l1867:	
  1833                           ;incstack = 0
  1834                           ; Regs used in _config: [wreg+status,2+status,0+pclath+cstack]
  1835                           
  1836                           
  1837                           ;./LCDLIBRARY1.h: 242:     PORTB= 3;
  1838  04E5  3003               	movlw	3
  1839  04E6  1283               	bcf	3,5	;RP0=0, select bank0
  1840  04E7  1303               	bcf	3,6	;RP1=0, select bank0
  1841  04E8  0086               	movwf	6	;volatile
  1842  04E9                     l1869:	
  1843                           
  1844                           ;./LCDLIBRARY1.h: 243:     CLOCK();
  1845  04E9  120A  158A  279B  120A  118A  	fcall	_CLOCK
  1846  04EE                     l1871:	
  1847                           
  1848                           ;./LCDLIBRARY1.h: 244:     delay1();
  1849  04EE  120A  158A  2767  120A  118A  	fcall	_delay1
  1850                           
  1851                           ;./LCDLIBRARY1.h: 246:     PORTB= 2;
  1852  04F3  3002               	movlw	2
  1853  04F4  1283               	bcf	3,5	;RP0=0, select bank0
  1854  04F5  1303               	bcf	3,6	;RP1=0, select bank0
  1855  04F6  0086               	movwf	6	;volatile
  1856  04F7                     l1873:	
  1857                           
  1858                           ;./LCDLIBRARY1.h: 247:     CLOCK();
  1859  04F7  120A  158A  279B  120A  118A  	fcall	_CLOCK
  1860  04FC                     l1875:	
  1861                           
  1862                           ;./LCDLIBRARY1.h: 248:     delay1();
  1863  04FC  120A  158A  2767  120A  118A  	fcall	_delay1
  1864                           
  1865                           ;./LCDLIBRARY1.h: 250:     PORTB= 2;
  1866  0501  3002               	movlw	2
  1867  0502  1283               	bcf	3,5	;RP0=0, select bank0
  1868  0503  1303               	bcf	3,6	;RP1=0, select bank0
  1869  0504  0086               	movwf	6	;volatile
  1870  0505                     l1877:	
  1871                           
  1872                           ;./LCDLIBRARY1.h: 251:     CLOCK();
  1873  0505  120A  158A  279B  120A  118A  	fcall	_CLOCK
  1874  050A                     l1879:	
  1875                           
  1876                           ;./LCDLIBRARY1.h: 252:     delay1();
  1877  050A  120A  158A  2767  120A  118A  	fcall	_delay1
  1878                           
  1879                           ;./LCDLIBRARY1.h: 254:     PORTB= 0x8;
  1880  050F  3008               	movlw	8
  1881  0510  1283               	bcf	3,5	;RP0=0, select bank0
  1882  0511  1303               	bcf	3,6	;RP1=0, select bank0
  1883  0512  0086               	movwf	6	;volatile
  1884  0513                     l1881:	
  1885                           
  1886                           ;./LCDLIBRARY1.h: 255:     CLOCK();
  1887  0513  120A  158A  279B  120A  118A  	fcall	_CLOCK
  1888  0518                     l1883:	
  1889                           
  1890                           ;./LCDLIBRARY1.h: 256:     delay1();
  1891  0518  120A  158A  2767  120A  118A  	fcall	_delay1
  1892  051D                     l1885:	
  1893                           
  1894                           ;./LCDLIBRARY1.h: 258:     PORTB= 0;
  1895  051D  1283               	bcf	3,5	;RP0=0, select bank0
  1896  051E  1303               	bcf	3,6	;RP1=0, select bank0
  1897  051F  0186               	clrf	6	;volatile
  1898  0520                     l1887:	
  1899                           
  1900                           ;./LCDLIBRARY1.h: 259:     CLOCK();
  1901  0520  120A  158A  279B  120A  118A  	fcall	_CLOCK
  1902  0525                     l1889:	
  1903                           
  1904                           ;./LCDLIBRARY1.h: 260:     PORTB= 0X0F;
  1905  0525  300F               	movlw	15
  1906  0526  1283               	bcf	3,5	;RP0=0, select bank0
  1907  0527  1303               	bcf	3,6	;RP1=0, select bank0
  1908  0528  0086               	movwf	6	;volatile
  1909  0529                     l1891:	
  1910                           
  1911                           ;./LCDLIBRARY1.h: 261:     CLOCK();
  1912  0529  120A  158A  279B  120A  118A  	fcall	_CLOCK
  1913  052E                     l1893:	
  1914                           
  1915                           ;./LCDLIBRARY1.h: 262:     delay1();
  1916  052E  120A  158A  2767  120A  118A  	fcall	_delay1
  1917  0533                     l1895:	
  1918                           
  1919                           ;./LCDLIBRARY1.h: 264:     PORTB= 0;
  1920  0533  1283               	bcf	3,5	;RP0=0, select bank0
  1921  0534  1303               	bcf	3,6	;RP1=0, select bank0
  1922  0535  0186               	clrf	6	;volatile
  1923                           
  1924                           ;./LCDLIBRARY1.h: 265:     CLOCK();
  1925  0536  120A  158A  279B  120A  118A  	fcall	_CLOCK
  1926  053B                     l1897:	
  1927                           
  1928                           ;./LCDLIBRARY1.h: 266:     PORTB= 6;
  1929  053B  3006               	movlw	6
  1930  053C  1283               	bcf	3,5	;RP0=0, select bank0
  1931  053D  1303               	bcf	3,6	;RP1=0, select bank0
  1932  053E  0086               	movwf	6	;volatile
  1933  053F                     l1899:	
  1934                           
  1935                           ;./LCDLIBRARY1.h: 267:     CLOCK();
  1936  053F  120A  158A  279B  120A  118A  	fcall	_CLOCK
  1937  0544                     l1901:	
  1938                           
  1939                           ;./LCDLIBRARY1.h: 268:     delay1();
  1940  0544  120A  158A  2767  120A  118A  	fcall	_delay1
  1941  0549                     l208:	
  1942  0549  0008               	return
  1943  054A                     __end_of_config:	
  1944                           
  1945                           	psect	text2
  1946  02B9                     __ptext2:	
  1947 ;; *************** function _Update_Current_Date_Time *****************
  1948 ;; Defined at:
  1949 ;;		line 41 in file "./PIC16F877a_DS3231.h"
  1950 ;; Parameters:    Size  Location     Type
  1951 ;;		None
  1952 ;; Auto vars:     Size  Location     Type
  1953 ;;		None
  1954 ;; Return value:  Size  Location     Type
  1955 ;;                  1    wreg      void 
  1956 ;; Registers used:
  1957 ;;		wreg, status,2, status,0, pclath, cstack
  1958 ;; Tracked objects:
  1959 ;;		On entry : 0/0
  1960 ;;		On exit  : 0/0
  1961 ;;		Unchanged: 0/0
  1962 ;; Data sizes:     COMMON   BANK0   BANK1   BANK3   BANK2
  1963 ;;      Params:         0       0       0       0       0
  1964 ;;      Locals:         0       0       0       0       0
  1965 ;;      Temps:          0       0       0       0       0
  1966 ;;      Totals:         0       0       0       0       0
  1967 ;;Total ram usage:        0 bytes
  1968 ;; Hardware stack levels used:    1
  1969 ;; Hardware stack levels required when called:    6
  1970 ;; This function calls:
  1971 ;;		_BCD_2_DEC
  1972 ;;		_I2C_Begin
  1973 ;;		_I2C_End
  1974 ;;		_I2C_Read
  1975 ;;		_I2C_Write
  1976 ;; This function is called by:
  1977 ;;		_main
  1978 ;; This function uses a non-reentrant model
  1979 ;;
  1980                           
  1981                           
  1982                           ;psect for function _Update_Current_Date_Time
  1983  02B9                     _Update_Current_Date_Time:	
  1984  02B9                     l1815:	
  1985                           ;incstack = 0
  1986                           ; Regs used in _Update_Current_Date_Time: [wreg+status,2+status,0+pclath+cstack]
  1987                           
  1988                           
  1989                           ;./PIC16F877a_DS3231.h: 44:    I2C_Begin();
  1990  02B9  120A  158A  2735  120A  118A  	fcall	_I2C_Begin
  1991                           
  1992                           ;./PIC16F877a_DS3231.h: 45:    I2C_Write(0xD0);
  1993  02BE  30D0               	movlw	208
  1994  02BF  1283               	bcf	3,5	;RP0=0, select bank0
  1995  02C0  1303               	bcf	3,6	;RP1=0, select bank0
  1996  02C1  00A5               	movwf	I2C_Write@data
  1997  02C2  3000               	movlw	0
  1998  02C3  00A6               	movwf	I2C_Write@data+1
  1999  02C4  120A  158A  2751  120A  118A  	fcall	_I2C_Write
  2000                           
  2001                           ;./PIC16F877a_DS3231.h: 46:    I2C_Write(0);
  2002  02C9  3000               	movlw	0
  2003  02CA  1283               	bcf	3,5	;RP0=0, select bank0
  2004  02CB  1303               	bcf	3,6	;RP1=0, select bank0
  2005  02CC  00A5               	movwf	I2C_Write@data
  2006  02CD  00A6               	movwf	I2C_Write@data+1
  2007  02CE  120A  158A  2751  120A  118A  	fcall	_I2C_Write
  2008                           
  2009                           ;./PIC16F877a_DS3231.h: 47:    I2C_End();
  2010  02D3  120A  158A  273E  120A  118A  	fcall	_I2C_End
  2011                           
  2012                           ;./PIC16F877a_DS3231.h: 50:    I2C_Begin();
  2013  02D8  120A  158A  2735  120A  118A  	fcall	_I2C_Begin
  2014                           
  2015                           ;./PIC16F877a_DS3231.h: 51:    I2C_Write(0xD1);
  2016  02DD  30D1               	movlw	209
  2017  02DE  1283               	bcf	3,5	;RP0=0, select bank0
  2018  02DF  1303               	bcf	3,6	;RP1=0, select bank0
  2019  02E0  00A5               	movwf	I2C_Write@data
  2020  02E1  3000               	movlw	0
  2021  02E2  00A6               	movwf	I2C_Write@data+1
  2022  02E3  120A  158A  2751  120A  118A  	fcall	_I2C_Write
  2023                           
  2024                           ;./PIC16F877a_DS3231.h: 52:    sec = BCD_2_DEC(I2C_Read(1));
  2025  02E8  3001               	movlw	1
  2026  02E9  1283               	bcf	3,5	;RP0=0, select bank0
  2027  02EA  1303               	bcf	3,6	;RP1=0, select bank0
  2028  02EB  00A5               	movwf	I2C_Read@ack
  2029  02EC  3000               	movlw	0
  2030  02ED  00A6               	movwf	I2C_Read@ack+1
  2031  02EE  120A  118A  2748  120A  118A  	fcall	_I2C_Read
  2032  02F3  1283               	bcf	3,5	;RP0=0, select bank0
  2033  02F4  1303               	bcf	3,6	;RP1=0, select bank0
  2034  02F5  0826               	movf	?_I2C_Read+1,w
  2035  02F6  00AC               	movwf	BCD_2_DEC@to_convert+1
  2036  02F7  0825               	movf	?_I2C_Read,w
  2037  02F8  00AB               	movwf	BCD_2_DEC@to_convert
  2038  02F9  120A  118A  27A9  120A  118A  	fcall	_BCD_2_DEC
  2039  02FE  1283               	bcf	3,5	;RP0=0, select bank0
  2040  02FF  1303               	bcf	3,6	;RP1=0, select bank0
  2041  0300  082C               	movf	?_BCD_2_DEC+1,w
  2042  0301  00DB               	movwf	_sec+1
  2043  0302  082B               	movf	?_BCD_2_DEC,w
  2044  0303  00DA               	movwf	_sec
  2045                           
  2046                           ;./PIC16F877a_DS3231.h: 53:    min = BCD_2_DEC(I2C_Read(1));
  2047  0304  3001               	movlw	1
  2048  0305  00A5               	movwf	I2C_Read@ack
  2049  0306  3000               	movlw	0
  2050  0307  00A6               	movwf	I2C_Read@ack+1
  2051  0308  120A  118A  2748  120A  118A  	fcall	_I2C_Read
  2052  030D  1283               	bcf	3,5	;RP0=0, select bank0
  2053  030E  1303               	bcf	3,6	;RP1=0, select bank0
  2054  030F  0826               	movf	?_I2C_Read+1,w
  2055  0310  00AC               	movwf	BCD_2_DEC@to_convert+1
  2056  0311  0825               	movf	?_I2C_Read,w
  2057  0312  00AB               	movwf	BCD_2_DEC@to_convert
  2058  0313  120A  118A  27A9  120A  118A  	fcall	_BCD_2_DEC
  2059  0318  1283               	bcf	3,5	;RP0=0, select bank0
  2060  0319  1303               	bcf	3,6	;RP1=0, select bank0
  2061  031A  082C               	movf	?_BCD_2_DEC+1,w
  2062  031B  00D9               	movwf	_min+1
  2063  031C  082B               	movf	?_BCD_2_DEC,w
  2064  031D  00D8               	movwf	_min
  2065                           
  2066                           ;./PIC16F877a_DS3231.h: 54:    hour = BCD_2_DEC(I2C_Read(1));
  2067  031E  3001               	movlw	1
  2068  031F  00A5               	movwf	I2C_Read@ack
  2069  0320  3000               	movlw	0
  2070  0321  00A6               	movwf	I2C_Read@ack+1
  2071  0322  120A  118A  2748  120A  118A  	fcall	_I2C_Read
  2072  0327  1283               	bcf	3,5	;RP0=0, select bank0
  2073  0328  1303               	bcf	3,6	;RP1=0, select bank0
  2074  0329  0826               	movf	?_I2C_Read+1,w
  2075  032A  00AC               	movwf	BCD_2_DEC@to_convert+1
  2076  032B  0825               	movf	?_I2C_Read,w
  2077  032C  00AB               	movwf	BCD_2_DEC@to_convert
  2078  032D  120A  118A  27A9  120A  118A  	fcall	_BCD_2_DEC
  2079  0332  1283               	bcf	3,5	;RP0=0, select bank0
  2080  0333  1303               	bcf	3,6	;RP1=0, select bank0
  2081  0334  082C               	movf	?_BCD_2_DEC+1,w
  2082  0335  00D7               	movwf	_hour+1
  2083  0336  082B               	movf	?_BCD_2_DEC,w
  2084  0337  00D6               	movwf	_hour
  2085                           
  2086                           ;./PIC16F877a_DS3231.h: 55:    I2C_Read(1);
  2087  0338  3001               	movlw	1
  2088  0339  00A5               	movwf	I2C_Read@ack
  2089  033A  3000               	movlw	0
  2090  033B  00A6               	movwf	I2C_Read@ack+1
  2091  033C  120A  118A  2748  120A  118A  	fcall	_I2C_Read
  2092                           
  2093                           ;./PIC16F877a_DS3231.h: 56:    I2C_Read(1);
  2094  0341  3001               	movlw	1
  2095  0342  1283               	bcf	3,5	;RP0=0, select bank0
  2096  0343  1303               	bcf	3,6	;RP1=0, select bank0
  2097  0344  00A5               	movwf	I2C_Read@ack
  2098  0345  3000               	movlw	0
  2099  0346  00A6               	movwf	I2C_Read@ack+1
  2100  0347  120A  118A  2748  120A  118A  	fcall	_I2C_Read
  2101                           
  2102                           ;./PIC16F877a_DS3231.h: 57:    I2C_Read(1);
  2103  034C  3001               	movlw	1
  2104  034D  1283               	bcf	3,5	;RP0=0, select bank0
  2105  034E  1303               	bcf	3,6	;RP1=0, select bank0
  2106  034F  00A5               	movwf	I2C_Read@ack
  2107  0350  3000               	movlw	0
  2108  0351  00A6               	movwf	I2C_Read@ack+1
  2109  0352  120A  118A  2748  120A  118A  	fcall	_I2C_Read
  2110                           
  2111                           ;./PIC16F877a_DS3231.h: 58:    I2C_Read(1);
  2112  0357  3001               	movlw	1
  2113  0358  1283               	bcf	3,5	;RP0=0, select bank0
  2114  0359  1303               	bcf	3,6	;RP1=0, select bank0
  2115  035A  00A5               	movwf	I2C_Read@ack
  2116  035B  3000               	movlw	0
  2117  035C  00A6               	movwf	I2C_Read@ack+1
  2118  035D  120A  118A  2748  120A  118A  	fcall	_I2C_Read
  2119                           
  2120                           ;./PIC16F877a_DS3231.h: 59:    I2C_End();
  2121  0362  120A  158A  273E  120A  118A  	fcall	_I2C_End
  2122                           
  2123                           ;./PIC16F877a_DS3231.h: 62:     I2C_Begin();
  2124  0367  120A  158A  2735  120A  118A  	fcall	_I2C_Begin
  2125                           
  2126                           ;./PIC16F877a_DS3231.h: 63:     I2C_Write(0xD1);
  2127  036C  30D1               	movlw	209
  2128  036D  1283               	bcf	3,5	;RP0=0, select bank0
  2129  036E  1303               	bcf	3,6	;RP1=0, select bank0
  2130  036F  00A5               	movwf	I2C_Write@data
  2131  0370  3000               	movlw	0
  2132  0371  00A6               	movwf	I2C_Write@data+1
  2133  0372  120A  158A  2751  120A  118A  	fcall	_I2C_Write
  2134                           
  2135                           ;./PIC16F877a_DS3231.h: 64:     I2C_Read(1);
  2136  0377  3001               	movlw	1
  2137  0378  1283               	bcf	3,5	;RP0=0, select bank0
  2138  0379  1303               	bcf	3,6	;RP1=0, select bank0
  2139  037A  00A5               	movwf	I2C_Read@ack
  2140  037B  3000               	movlw	0
  2141  037C  00A6               	movwf	I2C_Read@ack+1
  2142  037D  120A  118A  2748  120A  118A  	fcall	_I2C_Read
  2143                           
  2144                           ;./PIC16F877a_DS3231.h: 65:     I2C_End();
  2145  0382  120A  158A  273E  120A  118A  	fcall	_I2C_End
  2146  0387                     l145:	
  2147  0387  0008               	return
  2148  0388                     __end_of_Update_Current_Date_Time:	
  2149                           
  2150                           	psect	text3
  2151  0F51                     __ptext3:	
  2152 ;; *************** function _I2C_Write *****************
  2153 ;; Defined at:
  2154 ;;		line 40 in file "./PIC16F877a_I2C.h"
  2155 ;; Parameters:    Size  Location     Type
  2156 ;;  data            2    5[BANK0 ] unsigned int 
  2157 ;; Auto vars:     Size  Location     Type
  2158 ;;		None
  2159 ;; Return value:  Size  Location     Type
  2160 ;;                  1    wreg      void 
  2161 ;; Registers used:
  2162 ;;		wreg, status,2, status,0, pclath, cstack
  2163 ;; Tracked objects:
  2164 ;;		On entry : 0/0
  2165 ;;		On exit  : 0/0
  2166 ;;		Unchanged: 0/0
  2167 ;; Data sizes:     COMMON   BANK0   BANK1   BANK3   BANK2
  2168 ;;      Params:         0       2       0       0       0
  2169 ;;      Locals:         0       0       0       0       0
  2170 ;;      Temps:          0       0       0       0       0
  2171 ;;      Totals:         0       2       0       0       0
  2172 ;;Total ram usage:        2 bytes
  2173 ;; Hardware stack levels used:    1
  2174 ;; Hardware stack levels required when called:    5
  2175 ;; This function calls:
  2176 ;;		_I2C_Hold
  2177 ;; This function is called by:
  2178 ;;		_Update_Current_Date_Time
  2179 ;; This function uses a non-reentrant model
  2180 ;;
  2181                           
  2182                           
  2183                           ;psect for function _I2C_Write
  2184  0F51                     _I2C_Write:	
  2185  0F51                     l1713:	
  2186                           ;incstack = 0
  2187                           ; Regs used in _I2C_Write: [wreg+status,2+status,0+pclath+cstack]
  2188                           
  2189                           
  2190                           ;./PIC16F877a_I2C.h: 40: void I2C_Write(unsigned data);./PIC16F877a_I2C.h: 41: {;./PIC16
      +                          F877a_I2C.h: 42:   I2C_Hold();
  2191  0F51  120A  158A  2780  120A  158A  	fcall	_I2C_Hold
  2192  0F56                     l1715:	
  2193                           
  2194                           ;./PIC16F877a_I2C.h: 43:   SSPBUF = data;
  2195  0F56  1283               	bcf	3,5	;RP0=0, select bank0
  2196  0F57  1303               	bcf	3,6	;RP1=0, select bank0
  2197  0F58  0825               	movf	I2C_Write@data,w
  2198  0F59  0093               	movwf	19	;volatile
  2199  0F5A                     l124:	
  2200  0F5A  0008               	return
  2201  0F5B                     __end_of_I2C_Write:	
  2202                           
  2203                           	psect	text4
  2204  0748                     __ptext4:	
  2205 ;; *************** function _I2C_Read *****************
  2206 ;; Defined at:
  2207 ;;		line 46 in file "./PIC16F877a_I2C.h"
  2208 ;; Parameters:    Size  Location     Type
  2209 ;;  ack             2    5[BANK0 ] unsigned short 
  2210 ;; Auto vars:     Size  Location     Type
  2211 ;;  incoming        2    9[BANK0 ] unsigned short 
  2212 ;; Return value:  Size  Location     Type
  2213 ;;                  2    5[BANK0 ] unsigned short 
  2214 ;; Registers used:
  2215 ;;		wreg, status,2, status,0, pclath, cstack
  2216 ;; Tracked objects:
  2217 ;;		On entry : 0/0
  2218 ;;		On exit  : 0/0
  2219 ;;		Unchanged: 0/0
  2220 ;; Data sizes:     COMMON   BANK0   BANK1   BANK3   BANK2
  2221 ;;      Params:         0       2       0       0       0
  2222 ;;      Locals:         0       2       0       0       0
  2223 ;;      Temps:          0       2       0       0       0
  2224 ;;      Totals:         0       6       0       0       0
  2225 ;;Total ram usage:        6 bytes
  2226 ;; Hardware stack levels used:    1
  2227 ;; Hardware stack levels required when called:    5
  2228 ;; This function calls:
  2229 ;;		_I2C_Hold
  2230 ;; This function is called by:
  2231 ;;		_Update_Current_Date_Time
  2232 ;; This function uses a non-reentrant model
  2233 ;;
  2234                           
  2235                           
  2236                           ;psect for function _I2C_Read
  2237  0748                     _I2C_Read:	
  2238  0748                     l1717:	
  2239                           ;incstack = 0
  2240                           ; Regs used in _I2C_Read: [wreg+status,2+status,0+pclath+cstack]
  2241                           
  2242                           
  2243                           ;./PIC16F877a_I2C.h: 46: unsigned short I2C_Read(unsigned short ack);./PIC16F877a_I2C.h:
      +                           47: {;./PIC16F877a_I2C.h: 48:   unsigned short incoming;;./PIC16F877a_I2C.h: 49:   I2C_
      +                          Hold();
  2244  0748  120A  158A  2780  120A  118A  	fcall	_I2C_Hold
  2245  074D                     l1719:	
  2246                           
  2247                           ;./PIC16F877a_I2C.h: 50:   RCEN = 1;
  2248  074D  1683               	bsf	3,5	;RP0=1, select bank1
  2249  074E  1303               	bcf	3,6	;RP1=0, select bank1
  2250  074F  1591               	bsf	17,3	;volatile
  2251                           
  2252                           ;./PIC16F877a_I2C.h: 52:   I2C_Hold();
  2253  0750  120A  158A  2780  120A  118A  	fcall	_I2C_Hold
  2254  0755                     l1721:	
  2255                           
  2256                           ;./PIC16F877a_I2C.h: 53:   incoming = SSPBUF;
  2257  0755  1283               	bcf	3,5	;RP0=0, select bank0
  2258  0756  1303               	bcf	3,6	;RP1=0, select bank0
  2259  0757  0813               	movf	19,w	;volatile
  2260  0758  00A7               	movwf	??_I2C_Read
  2261  0759  01A8               	clrf	??_I2C_Read+1
  2262  075A  0827               	movf	??_I2C_Read,w
  2263  075B  00A9               	movwf	I2C_Read@incoming
  2264  075C  0828               	movf	??_I2C_Read+1,w
  2265  075D  00AA               	movwf	I2C_Read@incoming+1
  2266  075E                     l1723:	
  2267                           
  2268                           ;./PIC16F877a_I2C.h: 55:   I2C_Hold();
  2269  075E  120A  158A  2780  120A  118A  	fcall	_I2C_Hold
  2270  0763                     l1725:	
  2271                           
  2272                           ;./PIC16F877a_I2C.h: 56:   ACKDT = (ack)?0:1;
  2273  0763  1283               	bcf	3,5	;RP0=0, select bank0
  2274  0764  1303               	bcf	3,6	;RP1=0, select bank0
  2275  0765  0825               	movf	I2C_Read@ack,w
  2276  0766  0426               	iorwf	I2C_Read@ack+1,w
  2277  0767  1903               	btfsc	3,2
  2278  0768  2F6A               	goto	u1131
  2279  0769  2F6E               	goto	u1130
  2280  076A                     u1131:	
  2281  076A  1683               	bsf	3,5	;RP0=1, select bank1
  2282  076B  1303               	bcf	3,6	;RP1=0, select bank1
  2283  076C  1691               	bsf	17,5	;volatile
  2284  076D  2F71               	goto	u1144
  2285  076E                     u1130:	
  2286  076E  1683               	bsf	3,5	;RP0=1, select bank1
  2287  076F  1303               	bcf	3,6	;RP1=0, select bank1
  2288  0770  1291               	bcf	17,5	;volatile
  2289  0771                     u1144:	
  2290  0771                     l1727:	
  2291                           
  2292                           ;./PIC16F877a_I2C.h: 57:   ACKEN = 1;
  2293  0771  1611               	bsf	17,4	;volatile
  2294  0772                     l1729:	
  2295                           
  2296                           ;./PIC16F877a_I2C.h: 59:   return incoming;
  2297  0772  1283               	bcf	3,5	;RP0=0, select bank0
  2298  0773  1303               	bcf	3,6	;RP1=0, select bank0
  2299  0774  082A               	movf	I2C_Read@incoming+1,w
  2300  0775  00A6               	movwf	?_I2C_Read+1
  2301  0776  0829               	movf	I2C_Read@incoming,w
  2302  0777  00A5               	movwf	?_I2C_Read
  2303  0778                     l127:	
  2304  0778  0008               	return
  2305  0779                     __end_of_I2C_Read:	
  2306                           
  2307                           	psect	text5
  2308  0F3E                     __ptext5:	
  2309 ;; *************** function _I2C_End *****************
  2310 ;; Defined at:
  2311 ;;		line 34 in file "./PIC16F877a_I2C.h"
  2312 ;; Parameters:    Size  Location     Type
  2313 ;;		None
  2314 ;; Auto vars:     Size  Location     Type
  2315 ;;		None
  2316 ;; Return value:  Size  Location     Type
  2317 ;;                  1    wreg      void 
  2318 ;; Registers used:
  2319 ;;		wreg, status,2, status,0, pclath, cstack
  2320 ;; Tracked objects:
  2321 ;;		On entry : 0/0
  2322 ;;		On exit  : 0/0
  2323 ;;		Unchanged: 0/0
  2324 ;; Data sizes:     COMMON   BANK0   BANK1   BANK3   BANK2
  2325 ;;      Params:         0       0       0       0       0
  2326 ;;      Locals:         0       0       0       0       0
  2327 ;;      Temps:          0       0       0       0       0
  2328 ;;      Totals:         0       0       0       0       0
  2329 ;;Total ram usage:        0 bytes
  2330 ;; Hardware stack levels used:    1
  2331 ;; Hardware stack levels required when called:    5
  2332 ;; This function calls:
  2333 ;;		_I2C_Hold
  2334 ;; This function is called by:
  2335 ;;		_Update_Current_Date_Time
  2336 ;; This function uses a non-reentrant model
  2337 ;;
  2338                           
  2339                           
  2340                           ;psect for function _I2C_End
  2341  0F3E                     _I2C_End:	
  2342  0F3E                     l1709:	
  2343                           ;incstack = 0
  2344                           ; Regs used in _I2C_End: [wreg+status,2+status,0+pclath+cstack]
  2345                           
  2346                           
  2347                           ;./PIC16F877a_I2C.h: 36:   I2C_Hold();
  2348  0F3E  120A  158A  2780  120A  158A  	fcall	_I2C_Hold
  2349  0F43                     l1711:	
  2350                           
  2351                           ;./PIC16F877a_I2C.h: 37:   PEN = 1;
  2352  0F43  1683               	bsf	3,5	;RP0=1, select bank1
  2353  0F44  1303               	bcf	3,6	;RP1=0, select bank1
  2354  0F45  1511               	bsf	17,2	;volatile
  2355  0F46                     l121:	
  2356  0F46  0008               	return
  2357  0F47                     __end_of_I2C_End:	
  2358                           
  2359                           	psect	text6
  2360  0F35                     __ptext6:	
  2361 ;; *************** function _I2C_Begin *****************
  2362 ;; Defined at:
  2363 ;;		line 26 in file "./PIC16F877a_I2C.h"
  2364 ;; Parameters:    Size  Location     Type
  2365 ;;		None
  2366 ;; Auto vars:     Size  Location     Type
  2367 ;;		None
  2368 ;; Return value:  Size  Location     Type
  2369 ;;                  1    wreg      void 
  2370 ;; Registers used:
  2371 ;;		wreg, status,2, status,0, pclath, cstack
  2372 ;; Tracked objects:
  2373 ;;		On entry : 0/0
  2374 ;;		On exit  : 0/0
  2375 ;;		Unchanged: 0/0
  2376 ;; Data sizes:     COMMON   BANK0   BANK1   BANK3   BANK2
  2377 ;;      Params:         0       0       0       0       0
  2378 ;;      Locals:         0       0       0       0       0
  2379 ;;      Temps:          0       0       0       0       0
  2380 ;;      Totals:         0       0       0       0       0
  2381 ;;Total ram usage:        0 bytes
  2382 ;; Hardware stack levels used:    1
  2383 ;; Hardware stack levels required when called:    5
  2384 ;; This function calls:
  2385 ;;		_I2C_Hold
  2386 ;; This function is called by:
  2387 ;;		_Update_Current_Date_Time
  2388 ;; This function uses a non-reentrant model
  2389 ;;
  2390                           
  2391                           
  2392                           ;psect for function _I2C_Begin
  2393  0F35                     _I2C_Begin:	
  2394  0F35                     l1705:	
  2395                           ;incstack = 0
  2396                           ; Regs used in _I2C_Begin: [wreg+status,2+status,0+pclath+cstack]
  2397                           
  2398                           
  2399                           ;./PIC16F877a_I2C.h: 28:   I2C_Hold();
  2400  0F35  120A  158A  2780  120A  158A  	fcall	_I2C_Hold
  2401  0F3A                     l1707:	
  2402                           
  2403                           ;./PIC16F877a_I2C.h: 29:   SEN = 1;
  2404  0F3A  1683               	bsf	3,5	;RP0=1, select bank1
  2405  0F3B  1303               	bcf	3,6	;RP1=0, select bank1
  2406  0F3C  1411               	bsf	17,0	;volatile
  2407  0F3D                     l118:	
  2408  0F3D  0008               	return
  2409  0F3E                     __end_of_I2C_Begin:	
  2410                           
  2411                           	psect	text7
  2412  0F80                     __ptext7:	
  2413 ;; *************** function _I2C_Hold *****************
  2414 ;; Defined at:
  2415 ;;		line 21 in file "./PIC16F877a_I2C.h"
  2416 ;; Parameters:    Size  Location     Type
  2417 ;;		None
  2418 ;; Auto vars:     Size  Location     Type
  2419 ;;		None
  2420 ;; Return value:  Size  Location     Type
  2421 ;;                  1    wreg      void 
  2422 ;; Registers used:
  2423 ;;		wreg, status,2
  2424 ;; Tracked objects:
  2425 ;;		On entry : 0/0
  2426 ;;		On exit  : 0/0
  2427 ;;		Unchanged: 0/0
  2428 ;; Data sizes:     COMMON   BANK0   BANK1   BANK3   BANK2
  2429 ;;      Params:         0       0       0       0       0
  2430 ;;      Locals:         0       0       0       0       0
  2431 ;;      Temps:          0       0       0       0       0
  2432 ;;      Totals:         0       0       0       0       0
  2433 ;;Total ram usage:        0 bytes
  2434 ;; Hardware stack levels used:    1
  2435 ;; Hardware stack levels required when called:    4
  2436 ;; This function calls:
  2437 ;;		Nothing
  2438 ;; This function is called by:
  2439 ;;		_I2C_Begin
  2440 ;;		_I2C_End
  2441 ;;		_I2C_Write
  2442 ;;		_I2C_Read
  2443 ;; This function uses a non-reentrant model
  2444 ;;
  2445                           
  2446                           
  2447                           ;psect for function _I2C_Hold
  2448  0F80                     _I2C_Hold:	
  2449  0F80                     l1593:	
  2450                           ;incstack = 0
  2451                           ; Regs used in _I2C_Hold: [wreg+status,2]
  2452                           
  2453  0F80                     l1595:	
  2454                           ;./PIC16F877a_I2C.h: 23:     while ( (SSPCON2 & 0b00011111) || (SSPSTAT & 0b00000100) ) 
      +                          ;
  2455                           
  2456  0F80  1683               	bsf	3,5	;RP0=1, select bank1
  2457  0F81  1303               	bcf	3,6	;RP1=0, select bank1
  2458  0F82  0811               	movf	17,w	;volatile
  2459  0F83  391F               	andlw	31
  2460  0F84  1D03               	btfss	3,2
  2461  0F85  2F87               	goto	u861
  2462  0F86  2F88               	goto	u860
  2463  0F87                     u861:	
  2464  0F87  2F80               	goto	l1595
  2465  0F88                     u860:	
  2466  0F88                     l1597:	
  2467  0F88  1914               	btfsc	20,2	;volatile
  2468  0F89  2F8B               	goto	u871
  2469  0F8A  2F8C               	goto	u870
  2470  0F8B                     u871:	
  2471  0F8B  2F80               	goto	l1595
  2472  0F8C                     u870:	
  2473  0F8C                     l115:	
  2474  0F8C  0008               	return
  2475  0F8D                     __end_of_I2C_Hold:	
  2476                           
  2477                           	psect	text8
  2478  07A9                     __ptext8:	
  2479 ;; *************** function _BCD_2_DEC *****************
  2480 ;; Defined at:
  2481 ;;		line 16 in file "./PIC16F877a_DS3231.h"
  2482 ;; Parameters:    Size  Location     Type
  2483 ;;  to_convert      2   11[BANK0 ] int 
  2484 ;; Auto vars:     Size  Location     Type
  2485 ;;		None
  2486 ;; Return value:  Size  Location     Type
  2487 ;;                  2   11[BANK0 ] int 
  2488 ;; Registers used:
  2489 ;;		wreg, status,2, status,0, pclath, cstack
  2490 ;; Tracked objects:
  2491 ;;		On entry : 0/0
  2492 ;;		On exit  : 0/0
  2493 ;;		Unchanged: 0/0
  2494 ;; Data sizes:     COMMON   BANK0   BANK1   BANK3   BANK2
  2495 ;;      Params:         0       2       0       0       0
  2496 ;;      Locals:         0       0       0       0       0
  2497 ;;      Temps:          0       2       0       0       0
  2498 ;;      Totals:         0       4       0       0       0
  2499 ;;Total ram usage:        4 bytes
  2500 ;; Hardware stack levels used:    1
  2501 ;; Hardware stack levels required when called:    5
  2502 ;; This function calls:
  2503 ;;		___wmul
  2504 ;; This function is called by:
  2505 ;;		_Update_Current_Date_Time
  2506 ;; This function uses a non-reentrant model
  2507 ;;
  2508                           
  2509                           
  2510                           ;psect for function _BCD_2_DEC
  2511  07A9                     _BCD_2_DEC:	
  2512  07A9                     l1733:	
  2513                           ;incstack = 0
  2514                           ; Regs used in _BCD_2_DEC: [wreg+status,2+status,0+pclath+cstack]
  2515                           
  2516                           
  2517                           ;./PIC16F877a_DS3231.h: 16: int BCD_2_DEC(int to_convert);./PIC16F877a_DS3231.h: 17: {;.
      +                          /PIC16F877a_DS3231.h: 18:    return (to_convert >> 4) * 10 + (to_convert & 0x0F);
  2518  07A9  300F               	movlw	15
  2519  07AA  1283               	bcf	3,5	;RP0=0, select bank0
  2520  07AB  1303               	bcf	3,6	;RP1=0, select bank0
  2521  07AC  052B               	andwf	BCD_2_DEC@to_convert,w
  2522  07AD  00AD               	movwf	??_BCD_2_DEC
  2523  07AE  3000               	movlw	0
  2524  07AF  052C               	andwf	BCD_2_DEC@to_convert+1,w
  2525  07B0  00AE               	movwf	??_BCD_2_DEC+1
  2526  07B1  0E2B               	swapf	BCD_2_DEC@to_convert,w
  2527  07B2  390F               	andlw	15
  2528  07B3  00A5               	movwf	___wmul@multiplier
  2529  07B4  0E2C               	swapf	BCD_2_DEC@to_convert+1,w
  2530  07B5  39F0               	andlw	240
  2531  07B6  04A5               	iorwf	___wmul@multiplier,f
  2532  07B7  0E2C               	swapf	BCD_2_DEC@to_convert+1,w
  2533  07B8  390F               	andlw	15
  2534  07B9  00A6               	movwf	___wmul@multiplier+1
  2535  07BA  30F0               	movlw	240
  2536  07BB  1DA6               	btfss	___wmul@multiplier+1,3
  2537  07BC  3000               	movlw	0
  2538  07BD  04A6               	iorwf	___wmul@multiplier+1,f
  2539  07BE  300A               	movlw	10
  2540  07BF  00A7               	movwf	___wmul@multiplicand
  2541  07C0  3000               	movlw	0
  2542  07C1  00A8               	movwf	___wmul@multiplicand+1
  2543  07C2  120A  118A  27D2  120A  118A  	fcall	___wmul
  2544  07C7  1283               	bcf	3,5	;RP0=0, select bank0
  2545  07C8  1303               	bcf	3,6	;RP1=0, select bank0
  2546  07C9  082D               	movf	??_BCD_2_DEC,w
  2547  07CA  0725               	addwf	?___wmul,w
  2548  07CB  00AB               	movwf	?_BCD_2_DEC
  2549  07CC  082E               	movf	??_BCD_2_DEC+1,w
  2550  07CD  1803               	skipnc
  2551  07CE  0A2E               	incf	??_BCD_2_DEC+1,w
  2552  07CF  0726               	addwf	?___wmul+1,w
  2553  07D0  00AC               	movwf	?_BCD_2_DEC+1
  2554  07D1                     l136:	
  2555  07D1  0008               	return
  2556  07D2                     __end_of_BCD_2_DEC:	
  2557                           
  2558                           	psect	text9
  2559  07D2                     __ptext9:	
  2560 ;; *************** function ___wmul *****************
  2561 ;; Defined at:
  2562 ;;		line 15 in file "C:\Program Files (x86)\Microchip\xc8\v2.10\pic\sources\c90\common\Umul16.c"
  2563 ;; Parameters:    Size  Location     Type
  2564 ;;  multiplier      2    5[BANK0 ] unsigned int 
  2565 ;;  multiplicand    2    7[BANK0 ] unsigned int 
  2566 ;; Auto vars:     Size  Location     Type
  2567 ;;  product         2    9[BANK0 ] unsigned int 
  2568 ;; Return value:  Size  Location     Type
  2569 ;;                  2    5[BANK0 ] unsigned int 
  2570 ;; Registers used:
  2571 ;;		wreg, status,2, status,0
  2572 ;; Tracked objects:
  2573 ;;		On entry : 0/0
  2574 ;;		On exit  : 0/0
  2575 ;;		Unchanged: 0/0
  2576 ;; Data sizes:     COMMON   BANK0   BANK1   BANK3   BANK2
  2577 ;;      Params:         0       4       0       0       0
  2578 ;;      Locals:         0       2       0       0       0
  2579 ;;      Temps:          0       0       0       0       0
  2580 ;;      Totals:         0       6       0       0       0
  2581 ;;Total ram usage:        6 bytes
  2582 ;; Hardware stack levels used:    1
  2583 ;; Hardware stack levels required when called:    4
  2584 ;; This function calls:
  2585 ;;		Nothing
  2586 ;; This function is called by:
  2587 ;;		_BCD_2_DEC
  2588 ;; This function uses a non-reentrant model
  2589 ;;
  2590                           
  2591                           
  2592                           ;psect for function ___wmul
  2593  07D2                     ___wmul:	
  2594  07D2                     l1603:	
  2595                           ;incstack = 0
  2596                           ; Regs used in ___wmul: [wreg+status,2+status,0]
  2597                           
  2598  07D2  1283               	bcf	3,5	;RP0=0, select bank0
  2599  07D3  1303               	bcf	3,6	;RP1=0, select bank0
  2600  07D4  01A9               	clrf	___wmul@product
  2601  07D5  01AA               	clrf	___wmul@product+1
  2602  07D6                     l1605:	
  2603  07D6  1C25               	btfss	___wmul@multiplier,0
  2604  07D7  2FD9               	goto	u881
  2605  07D8  2FDA               	goto	u880
  2606  07D9                     u881:	
  2607  07D9  2FE0               	goto	l368
  2608  07DA                     u880:	
  2609  07DA                     l1607:	
  2610  07DA  0827               	movf	___wmul@multiplicand,w
  2611  07DB  07A9               	addwf	___wmul@product,f
  2612  07DC  1803               	skipnc
  2613  07DD  0AAA               	incf	___wmul@product+1,f
  2614  07DE  0828               	movf	___wmul@multiplicand+1,w
  2615  07DF  07AA               	addwf	___wmul@product+1,f
  2616  07E0                     l368:	
  2617  07E0  3001               	movlw	1
  2618  07E1                     u895:	
  2619  07E1  1003               	clrc
  2620  07E2  0DA7               	rlf	___wmul@multiplicand,f
  2621  07E3  0DA8               	rlf	___wmul@multiplicand+1,f
  2622  07E4  3EFF               	addlw	-1
  2623  07E5  1D03               	skipz
  2624  07E6  2FE1               	goto	u895
  2625  07E7                     l1609:	
  2626  07E7  3001               	movlw	1
  2627  07E8                     u905:	
  2628  07E8  1003               	clrc
  2629  07E9  0CA6               	rrf	___wmul@multiplier+1,f
  2630  07EA  0CA5               	rrf	___wmul@multiplier,f
  2631  07EB  3EFF               	addlw	-1
  2632  07EC  1D03               	skipz
  2633  07ED  2FE8               	goto	u905
  2634  07EE                     l1611:	
  2635  07EE  0825               	movf	___wmul@multiplier,w
  2636  07EF  0426               	iorwf	___wmul@multiplier+1,w
  2637  07F0  1D03               	btfss	3,2
  2638  07F1  2FF3               	goto	u911
  2639  07F2  2FF4               	goto	u910
  2640  07F3                     u911:	
  2641  07F3  2FD6               	goto	l1605
  2642  07F4                     u910:	
  2643  07F4                     l1613:	
  2644  07F4  082A               	movf	___wmul@product+1,w
  2645  07F5  00A6               	movwf	?___wmul+1
  2646  07F6  0829               	movf	___wmul@product,w
  2647  07F7  00A5               	movwf	?___wmul
  2648  07F8                     l370:	
  2649  07F8  0008               	return
  2650  07F9                     __end_of___wmul:	
  2651                           
  2652                           	psect	text10
  2653  06B2                     __ptext10:	
  2654 ;; *************** function _LCDWRITE *****************
  2655 ;; Defined at:
  2656 ;;		line 53 in file "./LCDLIBRARY1.h"
  2657 ;; Parameters:    Size  Location     Type
  2658 ;;  P               1    wreg     PTR const unsigned char 
  2659 ;;		 -> STR_2(2), STR_1(15), 
  2660 ;; Auto vars:     Size  Location     Type
  2661 ;;  P               1   12[BANK0 ] PTR const unsigned char 
  2662 ;;		 -> STR_2(2), STR_1(15), 
  2663 ;;  i               1   11[BANK0 ] unsigned char 
  2664 ;;  k               1   10[BANK0 ] unsigned char 
  2665 ;;  j               1    9[BANK0 ] unsigned char 
  2666 ;; Return value:  Size  Location     Type
  2667 ;;                  1    wreg      void 
  2668 ;; Registers used:
  2669 ;;		wreg, fsr0l, fsr0h, status,2, status,0, pclath, cstack
  2670 ;; Tracked objects:
  2671 ;;		On entry : 0/0
  2672 ;;		On exit  : 0/0
  2673 ;;		Unchanged: 0/0
  2674 ;; Data sizes:     COMMON   BANK0   BANK1   BANK3   BANK2
  2675 ;;      Params:         0       0       0       0       0
  2676 ;;      Locals:         0       4       0       0       0
  2677 ;;      Temps:          0       2       0       0       0
  2678 ;;      Totals:         0       6       0       0       0
  2679 ;;Total ram usage:        6 bytes
  2680 ;; Hardware stack levels used:    1
  2681 ;; Hardware stack levels required when called:    6
  2682 ;; This function calls:
  2683 ;;		_CLOCK
  2684 ;; This function is called by:
  2685 ;;		_main
  2686 ;; This function uses a non-reentrant model
  2687 ;;
  2688                           
  2689                           
  2690                           ;psect for function _LCDWRITE
  2691  06B2                     _LCDWRITE:	
  2692                           
  2693                           ;incstack = 0
  2694                           ; Regs used in _LCDWRITE: [wreg-fsr0h+status,2+status,0+pclath+cstack]
  2695                           ;LCDWRITE@P stored from wreg
  2696  06B2  1283               	bcf	3,5	;RP0=0, select bank0
  2697  06B3  1303               	bcf	3,6	;RP1=0, select bank0
  2698  06B4  00AC               	movwf	LCDWRITE@P
  2699  06B5                     l1817:	
  2700                           
  2701                           ;./LCDLIBRARY1.h: 53: void LCDWRITE( const char* P);./LCDLIBRARY1.h: 54: {;./LCDLIBRARY1
      +                          .h: 55:     unsigned char i ,j,k;;./LCDLIBRARY1.h: 56:     for(i=0; P[i]!='\0'; i++)
  2702  06B5  01AB               	clrf	LCDWRITE@i
  2703  06B6  2EF2               	goto	l1833
  2704  06B7                     l1819:	
  2705                           
  2706                           ;./LCDLIBRARY1.h: 57:     {;./LCDLIBRARY1.h: 58:         k = (0x0f & (P[i] >> 4)) ;
  2707  06B7  082B               	movf	LCDWRITE@i,w
  2708  06B8  072C               	addwf	LCDWRITE@P,w
  2709  06B9  0084               	movwf	4
  2710  06BA  120A  118A  254A  120A  118A  	fcall	stringdir
  2711  06BF  00A7               	movwf	??_LCDWRITE
  2712  06C0  3004               	movlw	4
  2713  06C1                     u1285:	
  2714  06C1  1003               	clrc
  2715  06C2  0CA7               	rrf	??_LCDWRITE,f
  2716  06C3  3EFF               	addlw	-1
  2717  06C4  1D03               	skipz
  2718  06C5  2EC1               	goto	u1285
  2719  06C6  0827               	movf	??_LCDWRITE,w
  2720  06C7  390F               	andlw	15
  2721  06C8  00A8               	movwf	??_LCDWRITE+1
  2722  06C9  0828               	movf	??_LCDWRITE+1,w
  2723  06CA  00AA               	movwf	LCDWRITE@k
  2724                           
  2725                           ;./LCDLIBRARY1.h: 59:         j = ( 0x0f & P[i] );
  2726  06CB  082B               	movf	LCDWRITE@i,w
  2727  06CC  072C               	addwf	LCDWRITE@P,w
  2728  06CD  0084               	movwf	4
  2729  06CE  120A  118A  254A  120A  118A  	fcall	stringdir
  2730  06D3  390F               	andlw	15
  2731  06D4  00A7               	movwf	??_LCDWRITE
  2732  06D5  0827               	movf	??_LCDWRITE,w
  2733  06D6  00A9               	movwf	LCDWRITE@j
  2734  06D7                     l1821:	
  2735                           
  2736                           ;./LCDLIBRARY1.h: 60:         PORTBbits.RB4 =1;
  2737  06D7  1606               	bsf	6,4	;volatile
  2738  06D8                     l1823:	
  2739                           
  2740                           ;./LCDLIBRARY1.h: 62:         PORTB = k | PORTB & 0xf0 ;
  2741  06D8  0806               	movf	6,w	;volatile
  2742  06D9  39F0               	andlw	240
  2743  06DA  042A               	iorwf	LCDWRITE@k,w
  2744  06DB  0086               	movwf	6	;volatile
  2745  06DC                     l1825:	
  2746                           
  2747                           ;./LCDLIBRARY1.h: 63:         CLOCK();
  2748  06DC  120A  158A  279B  120A  118A  	fcall	_CLOCK
  2749  06E1                     l1827:	
  2750                           
  2751                           ;./LCDLIBRARY1.h: 64:         PORTB = j | PORTB & 0xf0 ;
  2752  06E1  1283               	bcf	3,5	;RP0=0, select bank0
  2753  06E2  1303               	bcf	3,6	;RP1=0, select bank0
  2754  06E3  0806               	movf	6,w	;volatile
  2755  06E4  39F0               	andlw	240
  2756  06E5  0429               	iorwf	LCDWRITE@j,w
  2757  06E6  0086               	movwf	6	;volatile
  2758  06E7                     l1829:	
  2759                           
  2760                           ;./LCDLIBRARY1.h: 65:         CLOCK();
  2761  06E7  120A  158A  279B  120A  118A  	fcall	_CLOCK
  2762  06EC                     l1831:	
  2763                           
  2764                           ;./LCDLIBRARY1.h: 66:     }
  2765  06EC  3001               	movlw	1
  2766  06ED  1283               	bcf	3,5	;RP0=0, select bank0
  2767  06EE  1303               	bcf	3,6	;RP1=0, select bank0
  2768  06EF  00A7               	movwf	??_LCDWRITE
  2769  06F0  0827               	movf	??_LCDWRITE,w
  2770  06F1  07AB               	addwf	LCDWRITE@i,f
  2771  06F2                     l1833:	
  2772  06F2  082B               	movf	LCDWRITE@i,w
  2773  06F3  072C               	addwf	LCDWRITE@P,w
  2774  06F4  0084               	movwf	4
  2775  06F5  120A  118A  254A  120A  118A  	fcall	stringdir
  2776  06FA  3A00               	xorlw	0
  2777  06FB  1D03               	skipz
  2778  06FC  2EFE               	goto	u1291
  2779  06FD  2EFF               	goto	u1290
  2780  06FE                     u1291:	
  2781  06FE  2EB7               	goto	l1819
  2782  06FF                     u1290:	
  2783  06FF                     l164:	
  2784  06FF  0008               	return
  2785  0700                     __end_of_LCDWRITE:	
  2786                           
  2787                           	psect	text11
  2788  065F                     __ptext11:	
  2789 ;; *************** function _I2C_Initialize *****************
  2790 ;; Defined at:
  2791 ;;		line 10 in file "./PIC16F877a_I2C.h"
  2792 ;; Parameters:    Size  Location     Type
  2793 ;;  feq_K           4   32[BANK0 ] const unsigned long 
  2794 ;; Auto vars:     Size  Location     Type
  2795 ;;		None
  2796 ;; Return value:  Size  Location     Type
  2797 ;;                  1    wreg      void 
  2798 ;; Registers used:
  2799 ;;		wreg, status,2, status,0, pclath, cstack
  2800 ;; Tracked objects:
  2801 ;;		On entry : 0/0
  2802 ;;		On exit  : 0/0
  2803 ;;		Unchanged: 0/0
  2804 ;; Data sizes:     COMMON   BANK0   BANK1   BANK3   BANK2
  2805 ;;      Params:         0       4       0       0       0
  2806 ;;      Locals:         0       0       0       0       0
  2807 ;;      Temps:          0       4       0       0       0
  2808 ;;      Totals:         0       8       0       0       0
  2809 ;;Total ram usage:        8 bytes
  2810 ;; Hardware stack levels used:    1
  2811 ;; Hardware stack levels required when called:    5
  2812 ;; This function calls:
  2813 ;;		___lldiv
  2814 ;;		___lmul
  2815 ;; This function is called by:
  2816 ;;		_main
  2817 ;; This function uses a non-reentrant model
  2818 ;;
  2819                           
  2820                           
  2821                           ;psect for function _I2C_Initialize
  2822  065F                     _I2C_Initialize:	
  2823  065F                     l1803:	
  2824                           ;incstack = 0
  2825                           ; Regs used in _I2C_Initialize: [wreg+status,2+status,0+pclath+cstack]
  2826                           
  2827                           
  2828                           ;./PIC16F877a_I2C.h: 10: void I2C_Initialize(const unsigned long feq_K);./PIC16F877a_I2C
      +                          .h: 11: {;./PIC16F877a_I2C.h: 12:   TRISC3 = 1; TRISC4 = 1;
  2829  065F  1683               	bsf	3,5	;RP0=1, select bank1
  2830  0660  1303               	bcf	3,6	;RP1=0, select bank1
  2831  0661  1587               	bsf	7,3	;volatile
  2832  0662  1607               	bsf	7,4	;volatile
  2833  0663                     l1805:	
  2834                           
  2835                           ;./PIC16F877a_I2C.h: 14:   SSPCON = 0b00101000;
  2836  0663  3028               	movlw	40
  2837  0664  1283               	bcf	3,5	;RP0=0, select bank0
  2838  0665  1303               	bcf	3,6	;RP1=0, select bank0
  2839  0666  0094               	movwf	20	;volatile
  2840  0667                     l1807:	
  2841                           
  2842                           ;./PIC16F877a_I2C.h: 15:   SSPCON2 = 0b00000000;
  2843  0667  1683               	bsf	3,5	;RP0=1, select bank1
  2844  0668  1303               	bcf	3,6	;RP1=0, select bank1
  2845  0669  0191               	clrf	17	;volatile
  2846  066A                     l1809:	
  2847                           
  2848                           ;./PIC16F877a_I2C.h: 17:   SSPADD = (20000000/(4*feq_K*100))-1;
  2849  066A  1283               	bcf	3,5	;RP0=0, select bank0
  2850  066B  1303               	bcf	3,6	;RP1=0, select bank0
  2851  066C  0840               	movf	I2C_Initialize@feq_K,w
  2852  066D  00C4               	movwf	??_I2C_Initialize
  2853  066E  0841               	movf	I2C_Initialize@feq_K+1,w
  2854  066F  00C5               	movwf	??_I2C_Initialize+1
  2855  0670  0842               	movf	I2C_Initialize@feq_K+2,w
  2856  0671  00C6               	movwf	??_I2C_Initialize+2
  2857  0672  0843               	movf	I2C_Initialize@feq_K+3,w
  2858  0673  00C7               	movwf	??_I2C_Initialize+3
  2859  0674  3002               	movlw	2
  2860  0675                     u1275:	
  2861  0675  1003               	clrc
  2862  0676  0DC4               	rlf	??_I2C_Initialize,f
  2863  0677  0DC5               	rlf	??_I2C_Initialize+1,f
  2864  0678  0DC6               	rlf	??_I2C_Initialize+2,f
  2865  0679  0DC7               	rlf	??_I2C_Initialize+3,f
  2866  067A                     u1270:	
  2867  067A  3EFF               	addlw	-1
  2868  067B  1D03               	skipz
  2869  067C  2E75               	goto	u1275
  2870  067D  0847               	movf	??_I2C_Initialize+3,w
  2871  067E  00A8               	movwf	___lmul@multiplier+3
  2872  067F  0846               	movf	??_I2C_Initialize+2,w
  2873  0680  00A7               	movwf	___lmul@multiplier+2
  2874  0681  0845               	movf	??_I2C_Initialize+1,w
  2875  0682  00A6               	movwf	___lmul@multiplier+1
  2876  0683  0844               	movf	??_I2C_Initialize,w
  2877  0684  00A5               	movwf	___lmul@multiplier
  2878  0685  3000               	movlw	0
  2879  0686  00AC               	movwf	___lmul@multiplicand+3
  2880  0687  3000               	movlw	0
  2881  0688  00AB               	movwf	___lmul@multiplicand+2
  2882  0689  3000               	movlw	0
  2883  068A  00AA               	movwf	___lmul@multiplicand+1
  2884  068B  3064               	movlw	100
  2885  068C  00A9               	movwf	___lmul@multiplicand
  2886  068D  120A  118A  2700  120A  118A  	fcall	___lmul
  2887  0692  1283               	bcf	3,5	;RP0=0, select bank0
  2888  0693  1303               	bcf	3,6	;RP1=0, select bank0
  2889  0694  0828               	movf	?___lmul+3,w
  2890  0695  00B5               	movwf	___lldiv@divisor+3
  2891  0696  0827               	movf	?___lmul+2,w
  2892  0697  00B4               	movwf	___lldiv@divisor+2
  2893  0698  0826               	movf	?___lmul+1,w
  2894  0699  00B3               	movwf	___lldiv@divisor+1
  2895  069A  0825               	movf	?___lmul,w
  2896  069B  00B2               	movwf	___lldiv@divisor
  2897  069C  3001               	movlw	1
  2898  069D  00B9               	movwf	___lldiv@dividend+3
  2899  069E  3031               	movlw	49
  2900  069F  00B8               	movwf	___lldiv@dividend+2
  2901  06A0  302D               	movlw	45
  2902  06A1  00B7               	movwf	___lldiv@dividend+1
  2903  06A2  3000               	movlw	0
  2904  06A3  00B6               	movwf	___lldiv@dividend
  2905  06A4  120A  118A  2416  120A  118A  	fcall	___lldiv
  2906  06A9  1283               	bcf	3,5	;RP0=0, select bank0
  2907  06AA  1303               	bcf	3,6	;RP1=0, select bank0
  2908  06AB  0832               	movf	?___lldiv,w
  2909  06AC  3EFF               	addlw	255
  2910  06AD  1683               	bsf	3,5	;RP0=1, select bank1
  2911  06AE  1303               	bcf	3,6	;RP1=0, select bank1
  2912  06AF  0093               	movwf	19	;volatile
  2913  06B0                     l1811:	
  2914                           
  2915                           ;./PIC16F877a_I2C.h: 18:   SSPSTAT = 0b00000000;
  2916  06B0  0194               	clrf	20	;volatile
  2917  06B1                     l109:	
  2918  06B1  0008               	return
  2919  06B2                     __end_of_I2C_Initialize:	
  2920                           
  2921                           	psect	text12
  2922  0700                     __ptext12:	
  2923 ;; *************** function ___lmul *****************
  2924 ;; Defined at:
  2925 ;;		line 15 in file "C:\Program Files (x86)\Microchip\xc8\v2.10\pic\sources\c90\common\Umul32.c"
  2926 ;; Parameters:    Size  Location     Type
  2927 ;;  multiplier      4    5[BANK0 ] unsigned long 
  2928 ;;  multiplicand    4    9[BANK0 ] unsigned long 
  2929 ;; Auto vars:     Size  Location     Type
  2930 ;;  product         4   14[BANK0 ] unsigned long 
  2931 ;; Return value:  Size  Location     Type
  2932 ;;                  4    5[BANK0 ] unsigned long 
  2933 ;; Registers used:
  2934 ;;		wreg, status,2, status,0
  2935 ;; Tracked objects:
  2936 ;;		On entry : 0/0
  2937 ;;		On exit  : 0/0
  2938 ;;		Unchanged: 0/0
  2939 ;; Data sizes:     COMMON   BANK0   BANK1   BANK3   BANK2
  2940 ;;      Params:         0       8       0       0       0
  2941 ;;      Locals:         0       4       0       0       0
  2942 ;;      Temps:          0       1       0       0       0
  2943 ;;      Totals:         0      13       0       0       0
  2944 ;;Total ram usage:       13 bytes
  2945 ;; Hardware stack levels used:    1
  2946 ;; Hardware stack levels required when called:    4
  2947 ;; This function calls:
  2948 ;;		Nothing
  2949 ;; This function is called by:
  2950 ;;		_I2C_Initialize
  2951 ;; This function uses a non-reentrant model
  2952 ;;
  2953                           
  2954                           
  2955                           ;psect for function ___lmul
  2956  0700                     ___lmul:	
  2957  0700                     l1753:	
  2958                           ;incstack = 0
  2959                           ; Regs used in ___lmul: [wreg+status,2+status,0]
  2960                           
  2961  0700  3000               	movlw	0
  2962  0701  1283               	bcf	3,5	;RP0=0, select bank0
  2963  0702  1303               	bcf	3,6	;RP1=0, select bank0
  2964  0703  00B1               	movwf	___lmul@product+3
  2965  0704  3000               	movlw	0
  2966  0705  00B0               	movwf	___lmul@product+2
  2967  0706  3000               	movlw	0
  2968  0707  00AF               	movwf	___lmul@product+1
  2969  0708  3000               	movlw	0
  2970  0709  00AE               	movwf	___lmul@product
  2971  070A                     l1755:	
  2972  070A  1C25               	btfss	___lmul@multiplier,0
  2973  070B  2F0D               	goto	u1151
  2974  070C  2F0E               	goto	u1150
  2975  070D                     u1151:	
  2976  070D  2F25               	goto	l1759
  2977  070E                     u1150:	
  2978  070E                     l1757:	
  2979  070E  0829               	movf	___lmul@multiplicand,w
  2980  070F  07AE               	addwf	___lmul@product,f
  2981  0710  082A               	movf	___lmul@multiplicand+1,w
  2982  0711  1103               	clrz
  2983  0712  1803               	skipnc
  2984  0713  3E01               	addlw	1
  2985  0714  1903               	skipnz
  2986  0715  2F17               	goto	u1161
  2987  0716  07AF               	addwf	___lmul@product+1,f
  2988  0717                     u1161:	
  2989  0717  082B               	movf	___lmul@multiplicand+2,w
  2990  0718  1103               	clrz
  2991  0719  1803               	skipnc
  2992  071A  3E01               	addlw	1
  2993  071B  1903               	skipnz
  2994  071C  2F1E               	goto	u1162
  2995  071D  07B0               	addwf	___lmul@product+2,f
  2996  071E                     u1162:	
  2997  071E  082C               	movf	___lmul@multiplicand+3,w
  2998  071F  1103               	clrz
  2999  0720  1803               	skipnc
  3000  0721  3E01               	addlw	1
  3001  0722  1903               	skipnz
  3002  0723  2F25               	goto	u1163
  3003  0724  07B1               	addwf	___lmul@product+3,f
  3004  0725                     u1163:	
  3005  0725                     l1759:	
  3006  0725  3001               	movlw	1
  3007  0726  00AD               	movwf	??___lmul
  3008  0727                     u1175:	
  3009  0727  1003               	clrc
  3010  0728  0DA9               	rlf	___lmul@multiplicand,f
  3011  0729  0DAA               	rlf	___lmul@multiplicand+1,f
  3012  072A  0DAB               	rlf	___lmul@multiplicand+2,f
  3013  072B  0DAC               	rlf	___lmul@multiplicand+3,f
  3014  072C  0BAD               	decfsz	??___lmul,f
  3015  072D  2F27               	goto	u1175
  3016  072E                     l1761:	
  3017  072E  3001               	movlw	1
  3018  072F                     u1185:	
  3019  072F  1003               	clrc
  3020  0730  0CA8               	rrf	___lmul@multiplier+3,f
  3021  0731  0CA7               	rrf	___lmul@multiplier+2,f
  3022  0732  0CA6               	rrf	___lmul@multiplier+1,f
  3023  0733  0CA5               	rrf	___lmul@multiplier,f
  3024  0734  3EFF               	addlw	-1
  3025  0735  1D03               	skipz
  3026  0736  2F2F               	goto	u1185
  3027  0737  0828               	movf	___lmul@multiplier+3,w
  3028  0738  0427               	iorwf	___lmul@multiplier+2,w
  3029  0739  0426               	iorwf	___lmul@multiplier+1,w
  3030  073A  0425               	iorwf	___lmul@multiplier,w
  3031  073B  1D03               	skipz
  3032  073C  2F3E               	goto	u1191
  3033  073D  2F3F               	goto	u1190
  3034  073E                     u1191:	
  3035  073E  2F0A               	goto	l1755
  3036  073F                     u1190:	
  3037  073F                     l1763:	
  3038  073F  0831               	movf	___lmul@product+3,w
  3039  0740  00A8               	movwf	?___lmul+3
  3040  0741  0830               	movf	___lmul@product+2,w
  3041  0742  00A7               	movwf	?___lmul+2
  3042  0743  082F               	movf	___lmul@product+1,w
  3043  0744  00A6               	movwf	?___lmul+1
  3044  0745  082E               	movf	___lmul@product,w
  3045  0746  00A5               	movwf	?___lmul
  3046  0747                     l382:	
  3047  0747  0008               	return
  3048  0748                     __end_of___lmul:	
  3049                           
  3050                           	psect	text13
  3051  0416                     __ptext13:	
  3052 ;; *************** function ___lldiv *****************
  3053 ;; Defined at:
  3054 ;;		line 5 in file "C:\Program Files (x86)\Microchip\xc8\v2.10\pic\sources\c90\common\__lldiv.c"
  3055 ;; Parameters:    Size  Location     Type
  3056 ;;  divisor         4   18[BANK0 ] unsigned long 
  3057 ;;  dividend        4   22[BANK0 ] unsigned long 
  3058 ;; Auto vars:     Size  Location     Type
  3059 ;;  quotient        4   27[BANK0 ] unsigned long 
  3060 ;;  counter         1   31[BANK0 ] unsigned char 
  3061 ;; Return value:  Size  Location     Type
  3062 ;;                  4   18[BANK0 ] unsigned long 
  3063 ;; Registers used:
  3064 ;;		wreg, status,2, status,0
  3065 ;; Tracked objects:
  3066 ;;		On entry : 0/0
  3067 ;;		On exit  : 0/0
  3068 ;;		Unchanged: 0/0
  3069 ;; Data sizes:     COMMON   BANK0   BANK1   BANK3   BANK2
  3070 ;;      Params:         0       8       0       0       0
  3071 ;;      Locals:         0       5       0       0       0
  3072 ;;      Temps:          0       1       0       0       0
  3073 ;;      Totals:         0      14       0       0       0
  3074 ;;Total ram usage:       14 bytes
  3075 ;; Hardware stack levels used:    1
  3076 ;; Hardware stack levels required when called:    4
  3077 ;; This function calls:
  3078 ;;		Nothing
  3079 ;; This function is called by:
  3080 ;;		_I2C_Initialize
  3081 ;; This function uses a non-reentrant model
  3082 ;;
  3083                           
  3084                           
  3085                           ;psect for function ___lldiv
  3086  0416                     ___lldiv:	
  3087  0416                     l1767:	
  3088                           ;incstack = 0
  3089                           ; Regs used in ___lldiv: [wreg+status,2+status,0]
  3090                           
  3091  0416  3000               	movlw	0
  3092  0417  1283               	bcf	3,5	;RP0=0, select bank0
  3093  0418  1303               	bcf	3,6	;RP1=0, select bank0
  3094  0419  00BE               	movwf	___lldiv@quotient+3
  3095  041A  3000               	movlw	0
  3096  041B  00BD               	movwf	___lldiv@quotient+2
  3097  041C  3000               	movlw	0
  3098  041D  00BC               	movwf	___lldiv@quotient+1
  3099  041E  3000               	movlw	0
  3100  041F  00BB               	movwf	___lldiv@quotient
  3101  0420  0835               	movf	___lldiv@divisor+3,w
  3102  0421  0434               	iorwf	___lldiv@divisor+2,w
  3103  0422  0433               	iorwf	___lldiv@divisor+1,w
  3104  0423  0432               	iorwf	___lldiv@divisor,w
  3105  0424  1903               	skipnz
  3106  0425  2C27               	goto	u1201
  3107  0426  2C28               	goto	u1200
  3108  0427                     u1201:	
  3109  0427  2C75               	goto	l1787
  3110  0428                     u1200:	
  3111  0428                     l1769:	
  3112  0428  01BF               	clrf	___lldiv@counter
  3113  0429  0ABF               	incf	___lldiv@counter,f
  3114  042A  2C38               	goto	l1773
  3115  042B                     l1771:	
  3116  042B  3001               	movlw	1
  3117  042C  00BA               	movwf	??___lldiv
  3118  042D                     u1215:	
  3119  042D  1003               	clrc
  3120  042E  0DB2               	rlf	___lldiv@divisor,f
  3121  042F  0DB3               	rlf	___lldiv@divisor+1,f
  3122  0430  0DB4               	rlf	___lldiv@divisor+2,f
  3123  0431  0DB5               	rlf	___lldiv@divisor+3,f
  3124  0432  0BBA               	decfsz	??___lldiv,f
  3125  0433  2C2D               	goto	u1215
  3126  0434  3001               	movlw	1
  3127  0435  00BA               	movwf	??___lldiv
  3128  0436  083A               	movf	??___lldiv,w
  3129  0437  07BF               	addwf	___lldiv@counter,f
  3130  0438                     l1773:	
  3131  0438  1FB5               	btfss	___lldiv@divisor+3,7
  3132  0439  2C3B               	goto	u1221
  3133  043A  2C3C               	goto	u1220
  3134  043B                     u1221:	
  3135  043B  2C2B               	goto	l1771
  3136  043C                     u1220:	
  3137  043C                     l1775:	
  3138  043C  3001               	movlw	1
  3139  043D  00BA               	movwf	??___lldiv
  3140  043E                     u1235:	
  3141  043E  1003               	clrc
  3142  043F  0DBB               	rlf	___lldiv@quotient,f
  3143  0440  0DBC               	rlf	___lldiv@quotient+1,f
  3144  0441  0DBD               	rlf	___lldiv@quotient+2,f
  3145  0442  0DBE               	rlf	___lldiv@quotient+3,f
  3146  0443  0BBA               	decfsz	??___lldiv,f
  3147  0444  2C3E               	goto	u1235
  3148  0445                     l1777:	
  3149  0445  0835               	movf	___lldiv@divisor+3,w
  3150  0446  0239               	subwf	___lldiv@dividend+3,w
  3151  0447  1D03               	skipz
  3152  0448  2C53               	goto	u1245
  3153  0449  0834               	movf	___lldiv@divisor+2,w
  3154  044A  0238               	subwf	___lldiv@dividend+2,w
  3155  044B  1D03               	skipz
  3156  044C  2C53               	goto	u1245
  3157  044D  0833               	movf	___lldiv@divisor+1,w
  3158  044E  0237               	subwf	___lldiv@dividend+1,w
  3159  044F  1D03               	skipz
  3160  0450  2C53               	goto	u1245
  3161  0451  0832               	movf	___lldiv@divisor,w
  3162  0452  0236               	subwf	___lldiv@dividend,w
  3163  0453                     u1245:	
  3164  0453  1C03               	skipc
  3165  0454  2C56               	goto	u1241
  3166  0455  2C57               	goto	u1240
  3167  0456                     u1241:	
  3168  0456  2C66               	goto	l1783
  3169  0457                     u1240:	
  3170  0457                     l1779:	
  3171  0457  0832               	movf	___lldiv@divisor,w
  3172  0458  02B6               	subwf	___lldiv@dividend,f
  3173  0459  0833               	movf	___lldiv@divisor+1,w
  3174  045A  1C03               	skipc
  3175  045B  0F33               	incfsz	___lldiv@divisor+1,w
  3176  045C  02B7               	subwf	___lldiv@dividend+1,f
  3177  045D  0834               	movf	___lldiv@divisor+2,w
  3178  045E  1C03               	skipc
  3179  045F  0F34               	incfsz	___lldiv@divisor+2,w
  3180  0460  02B8               	subwf	___lldiv@dividend+2,f
  3181  0461  0835               	movf	___lldiv@divisor+3,w
  3182  0462  1C03               	skipc
  3183  0463  0F35               	incfsz	___lldiv@divisor+3,w
  3184  0464  02B9               	subwf	___lldiv@dividend+3,f
  3185  0465                     l1781:	
  3186  0465  143B               	bsf	___lldiv@quotient,0
  3187  0466                     l1783:	
  3188  0466  3001               	movlw	1
  3189  0467                     u1255:	
  3190  0467  1003               	clrc
  3191  0468  0CB5               	rrf	___lldiv@divisor+3,f
  3192  0469  0CB4               	rrf	___lldiv@divisor+2,f
  3193  046A  0CB3               	rrf	___lldiv@divisor+1,f
  3194  046B  0CB2               	rrf	___lldiv@divisor,f
  3195  046C  3EFF               	addlw	-1
  3196  046D  1D03               	skipz
  3197  046E  2C67               	goto	u1255
  3198  046F                     l1785:	
  3199  046F  3001               	movlw	1
  3200  0470  02BF               	subwf	___lldiv@counter,f
  3201  0471  1D03               	btfss	3,2
  3202  0472  2C74               	goto	u1261
  3203  0473  2C75               	goto	u1260
  3204  0474                     u1261:	
  3205  0474  2C3C               	goto	l1775
  3206  0475                     u1260:	
  3207  0475                     l1787:	
  3208  0475  083E               	movf	___lldiv@quotient+3,w
  3209  0476  00B5               	movwf	?___lldiv+3
  3210  0477  083D               	movf	___lldiv@quotient+2,w
  3211  0478  00B4               	movwf	?___lldiv+2
  3212  0479  083C               	movf	___lldiv@quotient+1,w
  3213  047A  00B3               	movwf	?___lldiv+1
  3214  047B  083B               	movf	___lldiv@quotient,w
  3215  047C  00B2               	movwf	?___lldiv
  3216  047D                     l404:	
  3217  047D  0008               	return
  3218  047E                     __end_of___lldiv:	
  3219                           
  3220                           	psect	text14
  3221  0FDC                     __ptext14:	
  3222 ;; *************** function _CURSOR *****************
  3223 ;; Defined at:
  3224 ;;		line 199 in file "./LCDLIBRARY1.h"
  3225 ;; Parameters:    Size  Location     Type
  3226 ;;  a               1    wreg     unsigned char 
  3227 ;;  b               1    7[BANK0 ] unsigned char 
  3228 ;; Auto vars:     Size  Location     Type
  3229 ;;  a               1   10[BANK0 ] unsigned char 
  3230 ;; Return value:  Size  Location     Type
  3231 ;;                  1    wreg      void 
  3232 ;; Registers used:
  3233 ;;		wreg, status,2, status,0, btemp+1, pclath, cstack
  3234 ;; Tracked objects:
  3235 ;;		On entry : 0/0
  3236 ;;		On exit  : 0/0
  3237 ;;		Unchanged: 0/0
  3238 ;; Data sizes:     COMMON   BANK0   BANK1   BANK3   BANK2
  3239 ;;      Params:         0       1       0       0       0
  3240 ;;      Locals:         0       1       0       0       0
  3241 ;;      Temps:          0       2       0       0       0
  3242 ;;      Totals:         0       4       0       0       0
  3243 ;;Total ram usage:        4 bytes
  3244 ;; Hardware stack levels used:    1
  3245 ;; Hardware stack levels required when called:    6
  3246 ;; This function calls:
  3247 ;;		_CLOCK
  3248 ;; This function is called by:
  3249 ;;		_main
  3250 ;; This function uses a non-reentrant model
  3251 ;;
  3252                           
  3253                           
  3254                           ;psect for function _CURSOR
  3255  0FDC                     _CURSOR:	
  3256                           
  3257                           ;incstack = 0
  3258                           ; Regs used in _CURSOR: [wreg+status,2+status,0+btemp+1+pclath+cstack]
  3259                           ;CURSOR@a stored from wreg
  3260  0FDC  1283               	bcf	3,5	;RP0=0, select bank0
  3261  0FDD  1303               	bcf	3,6	;RP1=0, select bank0
  3262  0FDE  00AA               	movwf	CURSOR@a
  3263  0FDF                     l1835:	
  3264                           
  3265                           ;./LCDLIBRARY1.h: 199: void CURSOR(char a, char b );./LCDLIBRARY1.h: 200: {;./LCDLIBRARY
      +                          1.h: 201:             RB4 = RB5 = 0;
  3266  0FDF  1286               	bcf	6,5	;volatile
  3267  0FE0  1206               	bcf	6,4	;volatile
  3268  0FE1                     l1839:	
  3269                           
  3270                           ;./LCDLIBRARY1.h: 203:                 PORTB=(a+b)>>4;
  3271  0FE1  082A               	movf	CURSOR@a,w
  3272  0FE2  0727               	addwf	CURSOR@b,w
  3273  0FE3  00A8               	movwf	??_CURSOR
  3274  0FE4  01A9               	clrf	??_CURSOR+1
  3275  0FE5  0DA9               	rlf	??_CURSOR+1,f
  3276  0FE6  3004               	movlw	4
  3277  0FE7  00FF               	movwf	btemp+1
  3278  0FE8                     u1305:	
  3279  0FE8  0D29               	rlf	??_CURSOR+1,w
  3280  0FE9  0CA9               	rrf	??_CURSOR+1,f
  3281  0FEA  0CA8               	rrf	??_CURSOR,f
  3282  0FEB  0BFF               	decfsz	btemp+1,f
  3283  0FEC  2FE8               	goto	u1305
  3284  0FED  0828               	movf	??_CURSOR,w
  3285  0FEE  0086               	movwf	6	;volatile
  3286  0FEF                     l1841:	
  3287                           
  3288                           ;./LCDLIBRARY1.h: 204:                 CLOCK();
  3289  0FEF  120A  158A  279B  120A  158A  	fcall	_CLOCK
  3290  0FF4                     l1843:	
  3291                           
  3292                           ;./LCDLIBRARY1.h: 205:                 PORTB=(a+b)&0x0F;
  3293  0FF4  1283               	bcf	3,5	;RP0=0, select bank0
  3294  0FF5  1303               	bcf	3,6	;RP1=0, select bank0
  3295  0FF6  0827               	movf	CURSOR@b,w
  3296  0FF7  072A               	addwf	CURSOR@a,w
  3297  0FF8  390F               	andlw	15
  3298  0FF9  0086               	movwf	6	;volatile
  3299  0FFA                     l1845:	
  3300                           
  3301                           ;./LCDLIBRARY1.h: 206:                 CLOCK();
  3302  0FFA  120A  158A  279B  120A  158A  	fcall	_CLOCK
  3303  0FFF                     l199:	
  3304                           ;./LCDLIBRARY1.h: 207:             }else{
  3305                           
  3306  0FFF  0008               	return
  3307  1000                     __end_of_CURSOR:	
  3308                           
  3309                           	psect	text15
  3310  0FBF                     __ptext15:	
  3311 ;; *************** function _CLRDISP *****************
  3312 ;; Defined at:
  3313 ;;		line 217 in file "./LCDLIBRARY1.h"
  3314 ;; Parameters:    Size  Location     Type
  3315 ;;		None
  3316 ;; Auto vars:     Size  Location     Type
  3317 ;;		None
  3318 ;; Return value:  Size  Location     Type
  3319 ;;                  1    wreg      void 
  3320 ;; Registers used:
  3321 ;;		wreg, status,2, status,0, pclath, cstack
  3322 ;; Tracked objects:
  3323 ;;		On entry : 0/0
  3324 ;;		On exit  : 0/0
  3325 ;;		Unchanged: 0/0
  3326 ;; Data sizes:     COMMON   BANK0   BANK1   BANK3   BANK2
  3327 ;;      Params:         0       0       0       0       0
  3328 ;;      Locals:         0       0       0       0       0
  3329 ;;      Temps:          0       0       0       0       0
  3330 ;;      Totals:         0       0       0       0       0
  3331 ;;Total ram usage:        0 bytes
  3332 ;; Hardware stack levels used:    1
  3333 ;; Hardware stack levels required when called:    6
  3334 ;; This function calls:
  3335 ;;		_CLOCK
  3336 ;;		_delay1
  3337 ;; This function is called by:
  3338 ;;		_main
  3339 ;; This function uses a non-reentrant model
  3340 ;;
  3341                           
  3342                           
  3343                           ;psect for function _CLRDISP
  3344  0FBF                     _CLRDISP:	
  3345  0FBF                     l1857:	
  3346                           ;incstack = 0
  3347                           ; Regs used in _CLRDISP: [wreg+status,2+status,0+pclath+cstack]
  3348                           
  3349                           
  3350                           ;./LCDLIBRARY1.h: 219:     RB4 = RB5 = 0 ;
  3351  0FBF  1283               	bcf	3,5	;RP0=0, select bank0
  3352  0FC0  1303               	bcf	3,6	;RP1=0, select bank0
  3353  0FC1  1286               	bcf	6,5	;volatile
  3354  0FC2  1206               	bcf	6,4	;volatile
  3355  0FC3                     l1859:	
  3356                           
  3357                           ;./LCDLIBRARY1.h: 220:     PORTB= 0 | PORTB & 0xf0;
  3358  0FC3  0806               	movf	6,w	;volatile
  3359  0FC4  39F0               	andlw	240
  3360  0FC5  0086               	movwf	6	;volatile
  3361  0FC6                     l1861:	
  3362                           
  3363                           ;./LCDLIBRARY1.h: 221:     CLOCK();
  3364  0FC6  120A  158A  279B  120A  158A  	fcall	_CLOCK
  3365  0FCB                     l1863:	
  3366                           
  3367                           ;./LCDLIBRARY1.h: 222:     PORTB= 0x1 | PORTB & 0xf0 ;
  3368  0FCB  1283               	bcf	3,5	;RP0=0, select bank0
  3369  0FCC  1303               	bcf	3,6	;RP1=0, select bank0
  3370  0FCD  0806               	movf	6,w	;volatile
  3371  0FCE  39F0               	andlw	240
  3372  0FCF  3801               	iorlw	1
  3373  0FD0  0086               	movwf	6	;volatile
  3374                           
  3375                           ;./LCDLIBRARY1.h: 223:     CLOCK();
  3376  0FD1  120A  158A  279B  120A  158A  	fcall	_CLOCK
  3377                           
  3378                           ;./LCDLIBRARY1.h: 224:     delay1();
  3379  0FD6  120A  158A  2767  120A  158A  	fcall	_delay1
  3380  0FDB                     l202:	
  3381  0FDB  0008               	return
  3382  0FDC                     __end_of_CLRDISP:	
  3383                           
  3384                           	psect	text16
  3385  0F67                     __ptext16:	
  3386 ;; *************** function _delay1 *****************
  3387 ;; Defined at:
  3388 ;;		line 29 in file "./LCDLIBRARY1.h"
  3389 ;; Parameters:    Size  Location     Type
  3390 ;;		None
  3391 ;; Auto vars:     Size  Location     Type
  3392 ;;		None
  3393 ;; Return value:  Size  Location     Type
  3394 ;;                  1    wreg      void 
  3395 ;; Registers used:
  3396 ;;		wreg
  3397 ;; Tracked objects:
  3398 ;;		On entry : 0/0
  3399 ;;		On exit  : 0/0
  3400 ;;		Unchanged: 0/0
  3401 ;; Data sizes:     COMMON   BANK0   BANK1   BANK3   BANK2
  3402 ;;      Params:         0       0       0       0       0
  3403 ;;      Locals:         0       0       0       0       0
  3404 ;;      Temps:          0       2       0       0       0
  3405 ;;      Totals:         0       2       0       0       0
  3406 ;;Total ram usage:        2 bytes
  3407 ;; Hardware stack levels used:    1
  3408 ;; Hardware stack levels required when called:    4
  3409 ;; This function calls:
  3410 ;;		Nothing
  3411 ;; This function is called by:
  3412 ;;		_CLRDISP
  3413 ;;		_config
  3414 ;;		_SETCURSORTYPE
  3415 ;; This function uses a non-reentrant model
  3416 ;;
  3417                           
  3418                           
  3419                           ;psect for function _delay1
  3420  0F67                     _delay1:	
  3421  0F67                     l1741:	
  3422                           ;incstack = 0
  3423                           ; Regs used in _delay1: [wreg]
  3424                           
  3425                           
  3426                           ;./LCDLIBRARY1.h: 31:     _delay((unsigned long)((5)*(20000000/4000.0)));
  3427  0F67  3021               	movlw	33
  3428  0F68  1283               	bcf	3,5	;RP0=0, select bank0
  3429  0F69  1303               	bcf	3,6	;RP1=0, select bank0
  3430  0F6A  00A6               	movwf	??_delay1+1
  3431  0F6B  3075               	movlw	117
  3432  0F6C  00A5               	movwf	??_delay1
  3433  0F6D                     u2057:	
  3434  0F6D  0BA5               	decfsz	??_delay1,f
  3435  0F6E  2F6D               	goto	u2057
  3436  0F6F  0BA6               	decfsz	??_delay1+1,f
  3437  0F70  2F6D               	goto	u2057
  3438  0F71  2F72               	nop2
  3439  0F72                     l152:	
  3440  0F72  0008               	return
  3441  0F73                     __end_of_delay1:	
  3442                           
  3443                           	psect	text17
  3444  0F9B                     __ptext17:	
  3445 ;; *************** function _CLOCK *****************
  3446 ;; Defined at:
  3447 ;;		line 43 in file "./LCDLIBRARY1.h"
  3448 ;; Parameters:    Size  Location     Type
  3449 ;;		None
  3450 ;; Auto vars:     Size  Location     Type
  3451 ;;		None
  3452 ;; Return value:  Size  Location     Type
  3453 ;;                  1    wreg      void 
  3454 ;; Registers used:
  3455 ;;		wreg, status,2, status,0, pclath, cstack
  3456 ;; Tracked objects:
  3457 ;;		On entry : 0/0
  3458 ;;		On exit  : 0/0
  3459 ;;		Unchanged: 0/0
  3460 ;; Data sizes:     COMMON   BANK0   BANK1   BANK3   BANK2
  3461 ;;      Params:         0       0       0       0       0
  3462 ;;      Locals:         0       0       0       0       0
  3463 ;;      Temps:          0       0       0       0       0
  3464 ;;      Totals:         0       0       0       0       0
  3465 ;;Total ram usage:        0 bytes
  3466 ;; Hardware stack levels used:    1
  3467 ;; Hardware stack levels required when called:    5
  3468 ;; This function calls:
  3469 ;;		_delay2
  3470 ;; This function is called by:
  3471 ;;		_LCDWRITE
  3472 ;;		_CURSOR
  3473 ;;		_CLRDISP
  3474 ;;		_config
  3475 ;;		_addition
  3476 ;;		_NUMDISP
  3477 ;;		_NUMDISP2
  3478 ;;		_SETCURSORTYPE
  3479 ;; This function uses a non-reentrant model
  3480 ;;
  3481                           
  3482                           
  3483                           ;psect for function _CLOCK
  3484  0F9B                     _CLOCK:	
  3485  0F9B                     l1745:	
  3486                           ;incstack = 0
  3487                           ; Regs used in _CLOCK: [wreg+status,2+status,0+pclath+cstack]
  3488                           
  3489                           
  3490                           ;./LCDLIBRARY1.h: 45:     PORTBbits.RB5 =1;
  3491  0F9B  1283               	bcf	3,5	;RP0=0, select bank0
  3492  0F9C  1303               	bcf	3,6	;RP1=0, select bank0
  3493  0F9D  1686               	bsf	6,5	;volatile
  3494  0F9E                     l1747:	
  3495                           
  3496                           ;./LCDLIBRARY1.h: 46:     delay2();
  3497  0F9E  120A  158A  275B  120A  158A  	fcall	_delay2
  3498  0FA3                     l1749:	
  3499                           
  3500                           ;./LCDLIBRARY1.h: 47:     PORTBbits.RB5 =0;
  3501  0FA3  1283               	bcf	3,5	;RP0=0, select bank0
  3502  0FA4  1303               	bcf	3,6	;RP1=0, select bank0
  3503  0FA5  1286               	bcf	6,5	;volatile
  3504                           
  3505                           ;./LCDLIBRARY1.h: 48:     delay2();
  3506  0FA6  120A  158A  275B  120A  158A  	fcall	_delay2
  3507  0FAB                     l158:	
  3508  0FAB  0008               	return
  3509  0FAC                     __end_of_CLOCK:	
  3510                           
  3511                           	psect	text18
  3512  0F5B                     __ptext18:	
  3513 ;; *************** function _delay2 *****************
  3514 ;; Defined at:
  3515 ;;		line 36 in file "./LCDLIBRARY1.h"
  3516 ;; Parameters:    Size  Location     Type
  3517 ;;		None
  3518 ;; Auto vars:     Size  Location     Type
  3519 ;;		None
  3520 ;; Return value:  Size  Location     Type
  3521 ;;                  1    wreg      void 
  3522 ;; Registers used:
  3523 ;;		wreg
  3524 ;; Tracked objects:
  3525 ;;		On entry : 0/0
  3526 ;;		On exit  : 0/0
  3527 ;;		Unchanged: 0/0
  3528 ;; Data sizes:     COMMON   BANK0   BANK1   BANK3   BANK2
  3529 ;;      Params:         0       0       0       0       0
  3530 ;;      Locals:         0       0       0       0       0
  3531 ;;      Temps:          0       2       0       0       0
  3532 ;;      Totals:         0       2       0       0       0
  3533 ;;Total ram usage:        2 bytes
  3534 ;; Hardware stack levels used:    1
  3535 ;; Hardware stack levels required when called:    4
  3536 ;; This function calls:
  3537 ;;		Nothing
  3538 ;; This function is called by:
  3539 ;;		_CLOCK
  3540 ;; This function uses a non-reentrant model
  3541 ;;
  3542                           
  3543                           
  3544                           ;psect for function _delay2
  3545  0F5B                     _delay2:	
  3546  0F5B                     l1599:	
  3547                           ;incstack = 0
  3548                           ; Regs used in _delay2: [wreg]
  3549                           
  3550                           
  3551                           ;./LCDLIBRARY1.h: 38:     _delay((unsigned long)((5)*(20000000/4000.0)));
  3552  0F5B  3021               	movlw	33
  3553  0F5C  1283               	bcf	3,5	;RP0=0, select bank0
  3554  0F5D  1303               	bcf	3,6	;RP1=0, select bank0
  3555  0F5E  00A6               	movwf	??_delay2+1
  3556  0F5F  3075               	movlw	117
  3557  0F60  00A5               	movwf	??_delay2
  3558  0F61                     u2067:	
  3559  0F61  0BA5               	decfsz	??_delay2,f
  3560  0F62  2F61               	goto	u2067
  3561  0F63  0BA6               	decfsz	??_delay2+1,f
  3562  0F64  2F61               	goto	u2067
  3563  0F65  2F66               	nop2
  3564  0F66                     l155:	
  3565  0F66  0008               	return
  3566  0F67                     __end_of_delay2:	
  3567                           
  3568                           	psect	text19
  3569  05AD                     __ptext19:	
  3570 ;; *************** function _ISR *****************
  3571 ;; Defined at:
  3572 ;;		line 53 in file "main.c"
  3573 ;; Parameters:    Size  Location     Type
  3574 ;;		None
  3575 ;; Auto vars:     Size  Location     Type
  3576 ;;		None
  3577 ;; Return value:  Size  Location     Type
  3578 ;;                  1    wreg      void 
  3579 ;; Registers used:
  3580 ;;		wreg, status,2, status,0, btemp+1, pclath, cstack
  3581 ;; Tracked objects:
  3582 ;;		On entry : 0/0
  3583 ;;		On exit  : 0/0
  3584 ;;		Unchanged: 0/0
  3585 ;; Data sizes:     COMMON   BANK0   BANK1   BANK3   BANK2
  3586 ;;      Params:         0       0       0       0       0
  3587 ;;      Locals:         0       0       0       0       0
  3588 ;;      Temps:          0       3       0       0       0
  3589 ;;      Totals:         0       3       0       0       0
  3590 ;;Total ram usage:        3 bytes
  3591 ;; Hardware stack levels used:    1
  3592 ;; Hardware stack levels required when called:    3
  3593 ;; This function calls:
  3594 ;;		_Set_Time_Date
  3595 ;; This function is called by:
  3596 ;;		Interrupt level 1
  3597 ;; This function uses a non-reentrant model
  3598 ;;
  3599                           
  3600                           
  3601                           ;psect for function _ISR
  3602  05AD                     _ISR:	
  3603  05AD                     i1l2043:	
  3604                           
  3605                           ;main.c: 54:     RD5=1;RD4=0;
  3606  05AD  1688               	bsf	8,5	;volatile
  3607  05AE  1208               	bcf	8,4	;volatile
  3608                           
  3609                           ;main.c: 55:     if(TMR0IF==1){
  3610  05AF  1D0B               	btfss	11,2	;volatile
  3611  05B0  2DB2               	goto	u140_21
  3612  05B1  2DB3               	goto	u140_20
  3613  05B2                     u140_21:	
  3614  05B2  2DCD               	goto	i1l2051
  3615  05B3                     u140_20:	
  3616  05B3                     i1l2045:	
  3617                           
  3618                           ;main.c: 56:         if(hour<=22)hour++;
  3619  05B3  0857               	movf	_hour+1,w
  3620  05B4  3A80               	xorlw	128
  3621  05B5  00FF               	movwf	btemp+1
  3622  05B6  3080               	movlw	128
  3623  05B7  027F               	subwf	btemp+1,w
  3624  05B8  1D03               	skipz
  3625  05B9  2DBC               	goto	u141_25
  3626  05BA  3017               	movlw	23
  3627  05BB  0256               	subwf	_hour,w
  3628  05BC                     u141_25:	
  3629  05BC  1803               	skipnc
  3630  05BD  2DBF               	goto	u141_21
  3631  05BE  2DC0               	goto	u141_20
  3632  05BF                     u141_21:	
  3633  05BF  2DC9               	goto	i1l2049
  3634  05C0                     u141_20:	
  3635  05C0                     i1l2047:	
  3636  05C0  3001               	movlw	1
  3637  05C1  1283               	bcf	3,5	;RP0=0, select bank0
  3638  05C2  1303               	bcf	3,6	;RP1=0, select bank0
  3639  05C3  07D6               	addwf	_hour,f
  3640  05C4  1803               	skipnc
  3641  05C5  0AD7               	incf	_hour+1,f
  3642  05C6  3000               	movlw	0
  3643  05C7  07D7               	addwf	_hour+1,f
  3644  05C8  2DCD               	goto	i1l2051
  3645  05C9                     i1l2049:	
  3646  05C9  1283               	bcf	3,5	;RP0=0, select bank0
  3647  05CA  1303               	bcf	3,6	;RP1=0, select bank0
  3648  05CB  01D6               	clrf	_hour
  3649  05CC  01D7               	clrf	_hour+1
  3650  05CD                     i1l2051:	
  3651                           
  3652                           ;main.c: 59:     if(TMR1IF==1){
  3653  05CD  1C0C               	btfss	12,0	;volatile
  3654  05CE  2DD0               	goto	u142_21
  3655  05CF  2DD1               	goto	u142_20
  3656  05D0                     u142_21:	
  3657  05D0  2DEB               	goto	i1l2059
  3658  05D1                     u142_20:	
  3659  05D1                     i1l2053:	
  3660                           
  3661                           ;main.c: 60:         if(min<=22)min++;
  3662  05D1  0859               	movf	_min+1,w
  3663  05D2  3A80               	xorlw	128
  3664  05D3  00FF               	movwf	btemp+1
  3665  05D4  3080               	movlw	128
  3666  05D5  027F               	subwf	btemp+1,w
  3667  05D6  1D03               	skipz
  3668  05D7  2DDA               	goto	u143_25
  3669  05D8  3017               	movlw	23
  3670  05D9  0258               	subwf	_min,w
  3671  05DA                     u143_25:	
  3672  05DA  1803               	skipnc
  3673  05DB  2DDD               	goto	u143_21
  3674  05DC  2DDE               	goto	u143_20
  3675  05DD                     u143_21:	
  3676  05DD  2DE7               	goto	i1l2057
  3677  05DE                     u143_20:	
  3678  05DE                     i1l2055:	
  3679  05DE  3001               	movlw	1
  3680  05DF  1283               	bcf	3,5	;RP0=0, select bank0
  3681  05E0  1303               	bcf	3,6	;RP1=0, select bank0
  3682  05E1  07D8               	addwf	_min,f
  3683  05E2  1803               	skipnc
  3684  05E3  0AD9               	incf	_min+1,f
  3685  05E4  3000               	movlw	0
  3686  05E5  07D9               	addwf	_min+1,f
  3687  05E6  2DEB               	goto	i1l2059
  3688  05E7                     i1l2057:	
  3689  05E7  1283               	bcf	3,5	;RP0=0, select bank0
  3690  05E8  1303               	bcf	3,6	;RP1=0, select bank0
  3691  05E9  01D8               	clrf	_min
  3692  05EA  01D9               	clrf	_min+1
  3693  05EB                     i1l2059:	
  3694                           
  3695                           ;main.c: 63:     TMR0IF=0;
  3696  05EB  110B               	bcf	11,2	;volatile
  3697  05EC                     i1l2061:	
  3698                           
  3699                           ;main.c: 64:     TMR1IF=0;
  3700  05EC  100C               	bcf	12,0	;volatile
  3701  05ED                     i1l2063:	
  3702                           
  3703                           ;main.c: 65:     TMR0=255;
  3704  05ED  30FF               	movlw	255
  3705  05EE  0081               	movwf	1	;volatile
  3706  05EF                     i1l2065:	
  3707                           
  3708                           ;main.c: 66:     TMR1=65535;
  3709  05EF  30FF               	movlw	255
  3710  05F0  008F               	movwf	15	;volatile
  3711  05F1  30FF               	movlw	255
  3712  05F2  008E               	movwf	14	;volatile
  3713  05F3  0064               	clrwdt	;# 
  3714  05F4                     i1l2067:	
  3715                           
  3716                           ;main.c: 68:     Set_Time_Date();
  3717  05F4  120A  118A  2388  120A  118A  	fcall	_Set_Time_Date
  3718  05F9  0064               	clrwdt	;# 
  3719  05FA                     i1l2069:	
  3720                           
  3721                           ;main.c: 70:     RD5=0;
  3722  05FA  1283               	bcf	3,5	;RP0=0, select bank0
  3723  05FB  1303               	bcf	3,6	;RP1=0, select bank0
  3724  05FC  1288               	bcf	8,5	;volatile
  3725  05FD                     i1l233:	
  3726  05FD  0824               	movf	??_ISR+2,w
  3727  05FE  00FF               	movwf	btemp+1
  3728  05FF  0823               	movf	??_ISR+1,w
  3729  0600  008A               	movwf	10
  3730  0601  0E22               	swapf	??_ISR^0,w
  3731  0602  0083               	movwf	3
  3732  0603  0EFE               	swapf	btemp,f
  3733  0604  0E7E               	swapf	btemp,w
  3734  0605  0009               	retfie
  3735  0606                     __end_of_ISR:	
  3736                           
  3737                           	psect	intentry
  3738  0004                     __pintentry:	
  3739                           ;incstack = 0
  3740                           ; Regs used in _ISR: [wreg+status,2+status,0+btemp+1+pclath+cstack]
  3741                           
  3742  0004                     interrupt_function:	
  3743  007E                     saved_w	set	btemp
  3744  0004  00FE               	movwf	btemp
  3745  0005  0E03               	swapf	3,w
  3746  0006  1283               	bcf	3,5	;RP0=0, select bank0
  3747  0007  1303               	bcf	3,6	;RP1=0, select bank0
  3748  0008  00A2               	movwf	??_ISR
  3749  0009  080A               	movf	10,w
  3750  000A  00A3               	movwf	??_ISR+1
  3751  000B  087F               	movf	btemp+1,w
  3752  000C  00A4               	movwf	??_ISR+2
  3753  000D  120A  118A  2DAD   	ljmp	_ISR
  3754                           
  3755                           	psect	text20
  3756  0388                     __ptext20:	
  3757 ;; *************** function _Set_Time_Date *****************
  3758 ;; Defined at:
  3759 ;;		line 26 in file "./PIC16F877a_DS3231.h"
  3760 ;; Parameters:    Size  Location     Type
  3761 ;;		None
  3762 ;; Auto vars:     Size  Location     Type
  3763 ;;		None
  3764 ;; Return value:  Size  Location     Type
  3765 ;;                  1    wreg      void 
  3766 ;; Registers used:
  3767 ;;		wreg, status,2, status,0, pclath, cstack
  3768 ;; Tracked objects:
  3769 ;;		On entry : 0/0
  3770 ;;		On exit  : 0/0
  3771 ;;		Unchanged: 0/0
  3772 ;; Data sizes:     COMMON   BANK0   BANK1   BANK3   BANK2
  3773 ;;      Params:         0       0       0       0       0
  3774 ;;      Locals:         0       0       0       0       0
  3775 ;;      Temps:          0       0       0       0       0
  3776 ;;      Totals:         0       0       0       0       0
  3777 ;;Total ram usage:        0 bytes
  3778 ;; Hardware stack levels used:    1
  3779 ;; Hardware stack levels required when called:    2
  3780 ;; This function calls:
  3781 ;;		_DEC_2_BCD
  3782 ;;		i1_I2C_Begin
  3783 ;;		i1_I2C_End
  3784 ;;		i1_I2C_Write
  3785 ;; This function is called by:
  3786 ;;		_ISR
  3787 ;; This function uses a non-reentrant model
  3788 ;;
  3789                           
  3790                           
  3791                           ;psect for function _Set_Time_Date
  3792  0388                     _Set_Time_Date:	
  3793  0388                     i1l1813:	
  3794                           ;incstack = 0
  3795                           ; Regs used in _Set_Time_Date: [wreg+status,2+status,0+pclath+cstack]
  3796                           
  3797                           
  3798                           ;./PIC16F877a_DS3231.h: 28:    I2C_Begin();
  3799  0388  120A  158A  2723  120A  118A  	fcall	i1_I2C_Begin
  3800                           
  3801                           ;./PIC16F877a_DS3231.h: 29:    I2C_Write(0xD0);
  3802  038D  30D0               	movlw	208
  3803  038E  1283               	bcf	3,5	;RP0=0, select bank0
  3804  038F  1303               	bcf	3,6	;RP1=0, select bank0
  3805  0390  00A0               	movwf	i1I2C_Write@data
  3806  0391  3000               	movlw	0
  3807  0392  00A1               	movwf	i1I2C_Write@data+1
  3808  0393  120A  158A  2747  120A  118A  	fcall	i1_I2C_Write
  3809                           
  3810                           ;./PIC16F877a_DS3231.h: 30:    I2C_Write(0);
  3811  0398  3000               	movlw	0
  3812  0399  1283               	bcf	3,5	;RP0=0, select bank0
  3813  039A  1303               	bcf	3,6	;RP1=0, select bank0
  3814  039B  00A0               	movwf	i1I2C_Write@data
  3815  039C  00A1               	movwf	i1I2C_Write@data+1
  3816  039D  120A  158A  2747  120A  118A  	fcall	i1_I2C_Write
  3817                           
  3818                           ;./PIC16F877a_DS3231.h: 31:    I2C_Write(DEC_2_BCD(sec));
  3819  03A2  1283               	bcf	3,5	;RP0=0, select bank0
  3820  03A3  1303               	bcf	3,6	;RP1=0, select bank0
  3821  03A4  085B               	movf	_sec+1,w
  3822  03A5  00FA               	movwf	DEC_2_BCD@to_convert+1
  3823  03A6  085A               	movf	_sec,w
  3824  03A7  00F9               	movwf	DEC_2_BCD@to_convert
  3825  03A8  120A  118A  2779  120A  118A  	fcall	_DEC_2_BCD
  3826  03AD  087A               	movf	?_DEC_2_BCD+1,w
  3827  03AE  1283               	bcf	3,5	;RP0=0, select bank0
  3828  03AF  1303               	bcf	3,6	;RP1=0, select bank0
  3829  03B0  00A1               	movwf	i1I2C_Write@data+1
  3830  03B1  0879               	movf	?_DEC_2_BCD,w
  3831  03B2  00A0               	movwf	i1I2C_Write@data
  3832  03B3  120A  158A  2747  120A  118A  	fcall	i1_I2C_Write
  3833                           
  3834                           ;./PIC16F877a_DS3231.h: 32:    I2C_Write(DEC_2_BCD(min));
  3835  03B8  1283               	bcf	3,5	;RP0=0, select bank0
  3836  03B9  1303               	bcf	3,6	;RP1=0, select bank0
  3837  03BA  0859               	movf	_min+1,w
  3838  03BB  00FA               	movwf	DEC_2_BCD@to_convert+1
  3839  03BC  0858               	movf	_min,w
  3840  03BD  00F9               	movwf	DEC_2_BCD@to_convert
  3841  03BE  120A  118A  2779  120A  118A  	fcall	_DEC_2_BCD
  3842  03C3  087A               	movf	?_DEC_2_BCD+1,w
  3843  03C4  1283               	bcf	3,5	;RP0=0, select bank0
  3844  03C5  1303               	bcf	3,6	;RP1=0, select bank0
  3845  03C6  00A1               	movwf	i1I2C_Write@data+1
  3846  03C7  0879               	movf	?_DEC_2_BCD,w
  3847  03C8  00A0               	movwf	i1I2C_Write@data
  3848  03C9  120A  158A  2747  120A  118A  	fcall	i1_I2C_Write
  3849                           
  3850                           ;./PIC16F877a_DS3231.h: 33:    I2C_Write(DEC_2_BCD(hour));
  3851  03CE  1283               	bcf	3,5	;RP0=0, select bank0
  3852  03CF  1303               	bcf	3,6	;RP1=0, select bank0
  3853  03D0  0857               	movf	_hour+1,w
  3854  03D1  00FA               	movwf	DEC_2_BCD@to_convert+1
  3855  03D2  0856               	movf	_hour,w
  3856  03D3  00F9               	movwf	DEC_2_BCD@to_convert
  3857  03D4  120A  118A  2779  120A  118A  	fcall	_DEC_2_BCD
  3858  03D9  087A               	movf	?_DEC_2_BCD+1,w
  3859  03DA  1283               	bcf	3,5	;RP0=0, select bank0
  3860  03DB  1303               	bcf	3,6	;RP1=0, select bank0
  3861  03DC  00A1               	movwf	i1I2C_Write@data+1
  3862  03DD  0879               	movf	?_DEC_2_BCD,w
  3863  03DE  00A0               	movwf	i1I2C_Write@data
  3864  03DF  120A  158A  2747  120A  118A  	fcall	i1_I2C_Write
  3865                           
  3866                           ;./PIC16F877a_DS3231.h: 34:    I2C_Write(1);
  3867  03E4  3001               	movlw	1
  3868  03E5  1283               	bcf	3,5	;RP0=0, select bank0
  3869  03E6  1303               	bcf	3,6	;RP1=0, select bank0
  3870  03E7  00A0               	movwf	i1I2C_Write@data
  3871  03E8  3000               	movlw	0
  3872  03E9  00A1               	movwf	i1I2C_Write@data+1
  3873  03EA  120A  158A  2747  120A  118A  	fcall	i1_I2C_Write
  3874                           
  3875                           ;./PIC16F877a_DS3231.h: 35:    I2C_Write(1);
  3876  03EF  3001               	movlw	1
  3877  03F0  1283               	bcf	3,5	;RP0=0, select bank0
  3878  03F1  1303               	bcf	3,6	;RP1=0, select bank0
  3879  03F2  00A0               	movwf	i1I2C_Write@data
  3880  03F3  3000               	movlw	0
  3881  03F4  00A1               	movwf	i1I2C_Write@data+1
  3882  03F5  120A  158A  2747  120A  118A  	fcall	i1_I2C_Write
  3883                           
  3884                           ;./PIC16F877a_DS3231.h: 36:    I2C_Write(1);
  3885  03FA  3001               	movlw	1
  3886  03FB  1283               	bcf	3,5	;RP0=0, select bank0
  3887  03FC  1303               	bcf	3,6	;RP1=0, select bank0
  3888  03FD  00A0               	movwf	i1I2C_Write@data
  3889  03FE  3000               	movlw	0
  3890  03FF  00A1               	movwf	i1I2C_Write@data+1
  3891  0400  120A  158A  2747  120A  118A  	fcall	i1_I2C_Write
  3892                           
  3893                           ;./PIC16F877a_DS3231.h: 37:    I2C_Write(1);
  3894  0405  3001               	movlw	1
  3895  0406  1283               	bcf	3,5	;RP0=0, select bank0
  3896  0407  1303               	bcf	3,6	;RP1=0, select bank0
  3897  0408  00A0               	movwf	i1I2C_Write@data
  3898  0409  3000               	movlw	0
  3899  040A  00A1               	movwf	i1I2C_Write@data+1
  3900  040B  120A  158A  2747  120A  118A  	fcall	i1_I2C_Write
  3901                           
  3902                           ;./PIC16F877a_DS3231.h: 38:    I2C_End();
  3903  0410  120A  158A  272C  120A  118A  	fcall	i1_I2C_End
  3904  0415                     i1l142:	
  3905  0415  0008               	return
  3906  0416                     __end_of_Set_Time_Date:	
  3907                           
  3908                           	psect	text21
  3909  0F47                     __ptext21:	
  3910 ;; *************** function i1_I2C_Write *****************
  3911 ;; Defined at:
  3912 ;;		line 40 in file "./PIC16F877a_I2C.h"
  3913 ;; Parameters:    Size  Location     Type
  3914 ;;  data            2    0[BANK0 ] unsigned int 
  3915 ;; Auto vars:     Size  Location     Type
  3916 ;;		None
  3917 ;; Return value:  Size  Location     Type
  3918 ;;                  1    wreg      void 
  3919 ;; Registers used:
  3920 ;;		wreg, status,2, status,0, pclath, cstack
  3921 ;; Tracked objects:
  3922 ;;		On entry : 0/0
  3923 ;;		On exit  : 0/0
  3924 ;;		Unchanged: 0/0
  3925 ;; Data sizes:     COMMON   BANK0   BANK1   BANK3   BANK2
  3926 ;;      Params:         0       2       0       0       0
  3927 ;;      Locals:         0       0       0       0       0
  3928 ;;      Temps:          0       0       0       0       0
  3929 ;;      Totals:         0       2       0       0       0
  3930 ;;Total ram usage:        2 bytes
  3931 ;; Hardware stack levels used:    1
  3932 ;; Hardware stack levels required when called:    1
  3933 ;; This function calls:
  3934 ;;		i1_I2C_Hold
  3935 ;; This function is called by:
  3936 ;;		_Set_Time_Date
  3937 ;; This function uses a non-reentrant model
  3938 ;;
  3939                           
  3940                           
  3941                           ;psect for function i1_I2C_Write
  3942  0F47                     i1_I2C_Write:	
  3943  0F47                     i1l1799:	
  3944                           ;incstack = 0
  3945                           ; Regs used in i1_I2C_Write: [wreg+status,2+status,0+pclath+cstack]
  3946                           
  3947                           
  3948                           ;./PIC16F877a_I2C.h: 40: void I2C_Write(unsigned data);./PIC16F877a_I2C.h: 41: {;./PIC16
      +                          F877a_I2C.h: 42:   I2C_Hold();
  3949  0F47  120A  158A  2773  120A  158A  	fcall	i1_I2C_Hold
  3950  0F4C                     i1l1801:	
  3951                           
  3952                           ;./PIC16F877a_I2C.h: 43:   SSPBUF = data;
  3953  0F4C  1283               	bcf	3,5	;RP0=0, select bank0
  3954  0F4D  1303               	bcf	3,6	;RP1=0, select bank0
  3955  0F4E  0820               	movf	i1I2C_Write@data,w
  3956  0F4F  0093               	movwf	19	;volatile
  3957  0F50                     i1l124:	
  3958  0F50  0008               	return
  3959  0F51                     __end_ofi1_I2C_Write:	
  3960                           
  3961                           	psect	text22
  3962  0F2C                     __ptext22:	
  3963 ;; *************** function i1_I2C_End *****************
  3964 ;; Defined at:
  3965 ;;		line 34 in file "./PIC16F877a_I2C.h"
  3966 ;; Parameters:    Size  Location     Type
  3967 ;;		None
  3968 ;; Auto vars:     Size  Location     Type
  3969 ;;		None
  3970 ;; Return value:  Size  Location     Type
  3971 ;;                  1    wreg      void 
  3972 ;; Registers used:
  3973 ;;		wreg, status,2, status,0, pclath, cstack
  3974 ;; Tracked objects:
  3975 ;;		On entry : 0/0
  3976 ;;		On exit  : 0/0
  3977 ;;		Unchanged: 0/0
  3978 ;; Data sizes:     COMMON   BANK0   BANK1   BANK3   BANK2
  3979 ;;      Params:         0       0       0       0       0
  3980 ;;      Locals:         0       0       0       0       0
  3981 ;;      Temps:          0       0       0       0       0
  3982 ;;      Totals:         0       0       0       0       0
  3983 ;;Total ram usage:        0 bytes
  3984 ;; Hardware stack levels used:    1
  3985 ;; Hardware stack levels required when called:    1
  3986 ;; This function calls:
  3987 ;;		i1_I2C_Hold
  3988 ;; This function is called by:
  3989 ;;		_Set_Time_Date
  3990 ;; This function uses a non-reentrant model
  3991 ;;
  3992                           
  3993                           
  3994                           ;psect for function i1_I2C_End
  3995  0F2C                     i1_I2C_End:	
  3996  0F2C                     i1l1795:	
  3997                           ;incstack = 0
  3998                           ; Regs used in i1_I2C_End: [wreg+status,2+status,0+pclath+cstack]
  3999                           
  4000                           
  4001                           ;./PIC16F877a_I2C.h: 36:   I2C_Hold();
  4002  0F2C  120A  158A  2773  120A  158A  	fcall	i1_I2C_Hold
  4003  0F31                     i1l1797:	
  4004                           
  4005                           ;./PIC16F877a_I2C.h: 37:   PEN = 1;
  4006  0F31  1683               	bsf	3,5	;RP0=1, select bank1
  4007  0F32  1303               	bcf	3,6	;RP1=0, select bank1
  4008  0F33  1511               	bsf	17,2	;volatile
  4009  0F34                     i1l121:	
  4010  0F34  0008               	return
  4011  0F35                     __end_ofi1_I2C_End:	
  4012                           
  4013                           	psect	text23
  4014  0F23                     __ptext23:	
  4015 ;; *************** function i1_I2C_Begin *****************
  4016 ;; Defined at:
  4017 ;;		line 26 in file "./PIC16F877a_I2C.h"
  4018 ;; Parameters:    Size  Location     Type
  4019 ;;		None
  4020 ;; Auto vars:     Size  Location     Type
  4021 ;;		None
  4022 ;; Return value:  Size  Location     Type
  4023 ;;                  1    wreg      void 
  4024 ;; Registers used:
  4025 ;;		wreg, status,2, status,0, pclath, cstack
  4026 ;; Tracked objects:
  4027 ;;		On entry : 0/0
  4028 ;;		On exit  : 0/0
  4029 ;;		Unchanged: 0/0
  4030 ;; Data sizes:     COMMON   BANK0   BANK1   BANK3   BANK2
  4031 ;;      Params:         0       0       0       0       0
  4032 ;;      Locals:         0       0       0       0       0
  4033 ;;      Temps:          0       0       0       0       0
  4034 ;;      Totals:         0       0       0       0       0
  4035 ;;Total ram usage:        0 bytes
  4036 ;; Hardware stack levels used:    1
  4037 ;; Hardware stack levels required when called:    1
  4038 ;; This function calls:
  4039 ;;		i1_I2C_Hold
  4040 ;; This function is called by:
  4041 ;;		_Set_Time_Date
  4042 ;; This function uses a non-reentrant model
  4043 ;;
  4044                           
  4045                           
  4046                           ;psect for function i1_I2C_Begin
  4047  0F23                     i1_I2C_Begin:	
  4048  0F23                     i1l1791:	
  4049                           ;incstack = 0
  4050                           ; Regs used in i1_I2C_Begin: [wreg+status,2+status,0+pclath+cstack]
  4051                           
  4052                           
  4053                           ;./PIC16F877a_I2C.h: 28:   I2C_Hold();
  4054  0F23  120A  158A  2773  120A  158A  	fcall	i1_I2C_Hold
  4055  0F28                     i1l1793:	
  4056                           
  4057                           ;./PIC16F877a_I2C.h: 29:   SEN = 1;
  4058  0F28  1683               	bsf	3,5	;RP0=1, select bank1
  4059  0F29  1303               	bcf	3,6	;RP1=0, select bank1
  4060  0F2A  1411               	bsf	17,0	;volatile
  4061  0F2B                     i1l118:	
  4062  0F2B  0008               	return
  4063  0F2C                     __end_ofi1_I2C_Begin:	
  4064                           
  4065                           	psect	text24
  4066  0F73                     __ptext24:	
  4067 ;; *************** function i1_I2C_Hold *****************
  4068 ;; Defined at:
  4069 ;;		line 21 in file "./PIC16F877a_I2C.h"
  4070 ;; Parameters:    Size  Location     Type
  4071 ;;		None
  4072 ;; Auto vars:     Size  Location     Type
  4073 ;;		None
  4074 ;; Return value:  Size  Location     Type
  4075 ;;                  1    wreg      void 
  4076 ;; Registers used:
  4077 ;;		wreg, status,2
  4078 ;; Tracked objects:
  4079 ;;		On entry : 0/0
  4080 ;;		On exit  : 0/0
  4081 ;;		Unchanged: 0/0
  4082 ;; Data sizes:     COMMON   BANK0   BANK1   BANK3   BANK2
  4083 ;;      Params:         0       0       0       0       0
  4084 ;;      Locals:         0       0       0       0       0
  4085 ;;      Temps:          0       0       0       0       0
  4086 ;;      Totals:         0       0       0       0       0
  4087 ;;Total ram usage:        0 bytes
  4088 ;; Hardware stack levels used:    1
  4089 ;; This function calls:
  4090 ;;		Nothing
  4091 ;; This function is called by:
  4092 ;;		i1_I2C_Begin
  4093 ;;		i1_I2C_End
  4094 ;;		i1_I2C_Write
  4095 ;; This function uses a non-reentrant model
  4096 ;;
  4097                           
  4098                           
  4099                           ;psect for function i1_I2C_Hold
  4100  0F73                     i1_I2C_Hold:	
  4101  0F73                     i1l1699:	
  4102                           ;incstack = 0
  4103                           ; Regs used in i1_I2C_Hold: [wreg+status,2]
  4104                           
  4105  0F73                     i1l1701:	
  4106                           ;./PIC16F877a_I2C.h: 23:     while ( (SSPCON2 & 0b00011111) || (SSPSTAT & 0b00000100) ) 
      +                          ;
  4107                           
  4108  0F73  1683               	bsf	3,5	;RP0=1, select bank1
  4109  0F74  1303               	bcf	3,6	;RP1=0, select bank1
  4110  0F75  0811               	movf	17,w	;volatile
  4111  0F76  391F               	andlw	31
  4112  0F77  1D03               	btfss	3,2
  4113  0F78  2F7A               	goto	u111_21
  4114  0F79  2F7B               	goto	u111_20
  4115  0F7A                     u111_21:	
  4116  0F7A  2F73               	goto	i1l1701
  4117  0F7B                     u111_20:	
  4118  0F7B                     i1l1703:	
  4119  0F7B  1914               	btfsc	20,2	;volatile
  4120  0F7C  2F7E               	goto	u112_21
  4121  0F7D  2F7F               	goto	u112_20
  4122  0F7E                     u112_21:	
  4123  0F7E  2F73               	goto	i1l1701
  4124  0F7F                     u112_20:	
  4125  0F7F                     i1l115:	
  4126  0F7F  0008               	return
  4127  0F80                     __end_ofi1_I2C_Hold:	
  4128                           
  4129                           	psect	text25
  4130  0779                     __ptext25:	
  4131 ;; *************** function _DEC_2_BCD *****************
  4132 ;; Defined at:
  4133 ;;		line 21 in file "./PIC16F877a_DS3231.h"
  4134 ;; Parameters:    Size  Location     Type
  4135 ;;  to_convert      2    9[COMMON] int 
  4136 ;; Auto vars:     Size  Location     Type
  4137 ;;		None
  4138 ;; Return value:  Size  Location     Type
  4139 ;;                  2    9[COMMON] int 
  4140 ;; Registers used:
  4141 ;;		wreg, status,2, status,0, pclath, cstack
  4142 ;; Tracked objects:
  4143 ;;		On entry : 0/0
  4144 ;;		On exit  : 0/0
  4145 ;;		Unchanged: 0/0
  4146 ;; Data sizes:     COMMON   BANK0   BANK1   BANK3   BANK2
  4147 ;;      Params:         2       0       0       0       0
  4148 ;;      Locals:         0       0       0       0       0
  4149 ;;      Temps:          2       0       0       0       0
  4150 ;;      Totals:         4       0       0       0       0
  4151 ;;Total ram usage:        4 bytes
  4152 ;; Hardware stack levels used:    1
  4153 ;; Hardware stack levels required when called:    1
  4154 ;; This function calls:
  4155 ;;		___awdiv
  4156 ;;		___awmod
  4157 ;; This function is called by:
  4158 ;;		_Set_Time_Date
  4159 ;; This function uses a non-reentrant model
  4160 ;;
  4161                           
  4162                           
  4163                           ;psect for function _DEC_2_BCD
  4164  0779                     _DEC_2_BCD:	
  4165  0779                     i1l1737:	
  4166                           ;incstack = 0
  4167                           ; Regs used in _DEC_2_BCD: [wreg+status,2+status,0+pclath+cstack]
  4168                           
  4169                           
  4170                           ;./PIC16F877a_DS3231.h: 21: int DEC_2_BCD (int to_convert);./PIC16F877a_DS3231.h: 22: {;
      +                          ./PIC16F877a_DS3231.h: 23:    return ((to_convert / 10) << 4) + (to_convert % 10);
  4171  0779  300A               	movlw	10
  4172  077A  00F0               	movwf	___awdiv@divisor
  4173  077B  3000               	movlw	0
  4174  077C  00F1               	movwf	___awdiv@divisor+1
  4175  077D  087A               	movf	DEC_2_BCD@to_convert+1,w
  4176  077E  00F3               	movwf	___awdiv@dividend+1
  4177  077F  0879               	movf	DEC_2_BCD@to_convert,w
  4178  0780  00F2               	movwf	___awdiv@dividend
  4179  0781  120A  118A  247E  120A  118A  	fcall	___awdiv
  4180  0786  0870               	movf	?___awdiv,w
  4181  0787  00FB               	movwf	??_DEC_2_BCD
  4182  0788  0871               	movf	?___awdiv+1,w
  4183  0789  00FC               	movwf	??_DEC_2_BCD+1
  4184  078A  0EFB               	swapf	??_DEC_2_BCD,f
  4185  078B  0EFC               	swapf	??_DEC_2_BCD+1,f
  4186  078C  30F0               	movlw	240
  4187  078D  05FC               	andwf	??_DEC_2_BCD+1,f
  4188  078E  087B               	movf	??_DEC_2_BCD,w
  4189  078F  390F               	andlw	15
  4190  0790  04FC               	iorwf	??_DEC_2_BCD+1,f
  4191  0791  30F0               	movlw	240
  4192  0792  05FB               	andwf	??_DEC_2_BCD,f
  4193  0793  300A               	movlw	10
  4194  0794  00F0               	movwf	___awmod@divisor
  4195  0795  3000               	movlw	0
  4196  0796  00F1               	movwf	___awmod@divisor+1
  4197  0797  087A               	movf	DEC_2_BCD@to_convert+1,w
  4198  0798  00F3               	movwf	___awmod@dividend+1
  4199  0799  0879               	movf	DEC_2_BCD@to_convert,w
  4200  079A  00F2               	movwf	___awmod@dividend
  4201  079B  120A  118A  2606  120A  118A  	fcall	___awmod
  4202  07A0  0870               	movf	?___awmod,w
  4203  07A1  077B               	addwf	??_DEC_2_BCD,w
  4204  07A2  00F9               	movwf	?_DEC_2_BCD
  4205  07A3  0871               	movf	?___awmod+1,w
  4206  07A4  1803               	skipnc
  4207  07A5  0A71               	incf	?___awmod+1,w
  4208  07A6  077C               	addwf	??_DEC_2_BCD+1,w
  4209  07A7  00FA               	movwf	?_DEC_2_BCD+1
  4210  07A8                     i1l139:	
  4211  07A8  0008               	return
  4212  07A9                     __end_of_DEC_2_BCD:	
  4213                           
  4214                           	psect	text26
  4215  0606                     __ptext26:	
  4216 ;; *************** function ___awmod *****************
  4217 ;; Defined at:
  4218 ;;		line 5 in file "C:\Program Files (x86)\Microchip\xc8\v2.10\pic\sources\c90\common\awmod.c"
  4219 ;; Parameters:    Size  Location     Type
  4220 ;;  divisor         2    0[COMMON] int 
  4221 ;;  dividend        2    2[COMMON] int 
  4222 ;; Auto vars:     Size  Location     Type
  4223 ;;  sign            1    6[COMMON] unsigned char 
  4224 ;;  counter         1    5[COMMON] unsigned char 
  4225 ;; Return value:  Size  Location     Type
  4226 ;;                  2    0[COMMON] int 
  4227 ;; Registers used:
  4228 ;;		wreg, status,2, status,0
  4229 ;; Tracked objects:
  4230 ;;		On entry : 0/0
  4231 ;;		On exit  : 0/0
  4232 ;;		Unchanged: 0/0
  4233 ;; Data sizes:     COMMON   BANK0   BANK1   BANK3   BANK2
  4234 ;;      Params:         4       0       0       0       0
  4235 ;;      Locals:         2       0       0       0       0
  4236 ;;      Temps:          1       0       0       0       0
  4237 ;;      Totals:         7       0       0       0       0
  4238 ;;Total ram usage:        7 bytes
  4239 ;; Hardware stack levels used:    1
  4240 ;; This function calls:
  4241 ;;		Nothing
  4242 ;; This function is called by:
  4243 ;;		_DEC_2_BCD
  4244 ;;		_NUMDISP2
  4245 ;; This function uses a non-reentrant model
  4246 ;;
  4247                           
  4248                           
  4249                           ;psect for function ___awmod
  4250  0606                     ___awmod:	
  4251  0606                     i1l1661:	
  4252                           ;incstack = 0
  4253                           ; Regs used in ___awmod: [wreg+status,2+status,0]
  4254                           
  4255  0606  01F6               	clrf	___awmod@sign
  4256  0607                     i1l1663:	
  4257  0607  1FF3               	btfss	___awmod@dividend+1,7
  4258  0608  2E0A               	goto	u102_21
  4259  0609  2E0B               	goto	u102_20
  4260  060A                     u102_21:	
  4261  060A  2E12               	goto	i1l1669
  4262  060B                     u102_20:	
  4263  060B                     i1l1665:	
  4264  060B  09F2               	comf	___awmod@dividend,f
  4265  060C  09F3               	comf	___awmod@dividend+1,f
  4266  060D  0AF2               	incf	___awmod@dividend,f
  4267  060E  1903               	skipnz
  4268  060F  0AF3               	incf	___awmod@dividend+1,f
  4269  0610                     i1l1667:	
  4270  0610  01F6               	clrf	___awmod@sign
  4271  0611  0AF6               	incf	___awmod@sign,f
  4272  0612                     i1l1669:	
  4273  0612  1FF1               	btfss	___awmod@divisor+1,7
  4274  0613  2E15               	goto	u103_21
  4275  0614  2E16               	goto	u103_20
  4276  0615                     u103_21:	
  4277  0615  2E1B               	goto	i1l1673
  4278  0616                     u103_20:	
  4279  0616                     i1l1671:	
  4280  0616  09F0               	comf	___awmod@divisor,f
  4281  0617  09F1               	comf	___awmod@divisor+1,f
  4282  0618  0AF0               	incf	___awmod@divisor,f
  4283  0619  1903               	skipnz
  4284  061A  0AF1               	incf	___awmod@divisor+1,f
  4285  061B                     i1l1673:	
  4286  061B  0870               	movf	___awmod@divisor,w
  4287  061C  0471               	iorwf	___awmod@divisor+1,w
  4288  061D  1903               	btfsc	3,2
  4289  061E  2E20               	goto	u104_21
  4290  061F  2E21               	goto	u104_20
  4291  0620                     u104_21:	
  4292  0620  2E50               	goto	i1l1691
  4293  0621                     u104_20:	
  4294  0621                     i1l1675:	
  4295  0621  01F5               	clrf	___awmod@counter
  4296  0622  0AF5               	incf	___awmod@counter,f
  4297  0623  2E2F               	goto	i1l1681
  4298  0624                     i1l1677:	
  4299  0624  3001               	movlw	1
  4300  0625                     u105_25:	
  4301  0625  1003               	clrc
  4302  0626  0DF0               	rlf	___awmod@divisor,f
  4303  0627  0DF1               	rlf	___awmod@divisor+1,f
  4304  0628  3EFF               	addlw	-1
  4305  0629  1D03               	skipz
  4306  062A  2E25               	goto	u105_25
  4307  062B                     i1l1679:	
  4308  062B  3001               	movlw	1
  4309  062C  00F4               	movwf	??___awmod
  4310  062D  0874               	movf	??___awmod,w
  4311  062E  07F5               	addwf	___awmod@counter,f
  4312  062F                     i1l1681:	
  4313  062F  1FF1               	btfss	___awmod@divisor+1,7
  4314  0630  2E32               	goto	u106_21
  4315  0631  2E33               	goto	u106_20
  4316  0632                     u106_21:	
  4317  0632  2E24               	goto	i1l1677
  4318  0633                     u106_20:	
  4319  0633                     i1l1683:	
  4320  0633  0871               	movf	___awmod@divisor+1,w
  4321  0634  0273               	subwf	___awmod@dividend+1,w
  4322  0635  1D03               	skipz
  4323  0636  2E39               	goto	u107_25
  4324  0637  0870               	movf	___awmod@divisor,w
  4325  0638  0272               	subwf	___awmod@dividend,w
  4326  0639                     u107_25:	
  4327  0639  1C03               	skipc
  4328  063A  2E3C               	goto	u107_21
  4329  063B  2E3D               	goto	u107_20
  4330  063C                     u107_21:	
  4331  063C  2E43               	goto	i1l1687
  4332  063D                     u107_20:	
  4333  063D                     i1l1685:	
  4334  063D  0870               	movf	___awmod@divisor,w
  4335  063E  02F2               	subwf	___awmod@dividend,f
  4336  063F  0871               	movf	___awmod@divisor+1,w
  4337  0640  1C03               	skipc
  4338  0641  03F3               	decf	___awmod@dividend+1,f
  4339  0642  02F3               	subwf	___awmod@dividend+1,f
  4340  0643                     i1l1687:	
  4341  0643  3001               	movlw	1
  4342  0644                     u108_25:	
  4343  0644  1003               	clrc
  4344  0645  0CF1               	rrf	___awmod@divisor+1,f
  4345  0646  0CF0               	rrf	___awmod@divisor,f
  4346  0647  3EFF               	addlw	-1
  4347  0648  1D03               	skipz
  4348  0649  2E44               	goto	u108_25
  4349  064A                     i1l1689:	
  4350  064A  3001               	movlw	1
  4351  064B  02F5               	subwf	___awmod@counter,f
  4352  064C  1D03               	btfss	3,2
  4353  064D  2E4F               	goto	u109_21
  4354  064E  2E50               	goto	u109_20
  4355  064F                     u109_21:	
  4356  064F  2E33               	goto	i1l1683
  4357  0650                     u109_20:	
  4358  0650                     i1l1691:	
  4359  0650  0876               	movf	___awmod@sign,w
  4360  0651  1903               	btfsc	3,2
  4361  0652  2E54               	goto	u110_21
  4362  0653  2E55               	goto	u110_20
  4363  0654                     u110_21:	
  4364  0654  2E5A               	goto	i1l1695
  4365  0655                     u110_20:	
  4366  0655                     i1l1693:	
  4367  0655  09F2               	comf	___awmod@dividend,f
  4368  0656  09F3               	comf	___awmod@dividend+1,f
  4369  0657  0AF2               	incf	___awmod@dividend,f
  4370  0658  1903               	skipnz
  4371  0659  0AF3               	incf	___awmod@dividend+1,f
  4372  065A                     i1l1695:	
  4373  065A  0873               	movf	___awmod@dividend+1,w
  4374  065B  00F1               	movwf	?___awmod+1
  4375  065C  0872               	movf	___awmod@dividend,w
  4376  065D  00F0               	movwf	?___awmod
  4377  065E                     i1l534:	
  4378  065E  0008               	return
  4379  065F                     __end_of___awmod:	
  4380                           
  4381                           	psect	text27
  4382  047E                     __ptext27:	
  4383 ;; *************** function ___awdiv *****************
  4384 ;; Defined at:
  4385 ;;		line 5 in file "C:\Program Files (x86)\Microchip\xc8\v2.10\pic\sources\c90\common\awdiv.c"
  4386 ;; Parameters:    Size  Location     Type
  4387 ;;  divisor         2    0[COMMON] int 
  4388 ;;  dividend        2    2[COMMON] int 
  4389 ;; Auto vars:     Size  Location     Type
  4390 ;;  quotient        2    7[COMMON] int 
  4391 ;;  sign            1    6[COMMON] unsigned char 
  4392 ;;  counter         1    5[COMMON] unsigned char 
  4393 ;; Return value:  Size  Location     Type
  4394 ;;                  2    0[COMMON] int 
  4395 ;; Registers used:
  4396 ;;		wreg, status,2, status,0
  4397 ;; Tracked objects:
  4398 ;;		On entry : 0/0
  4399 ;;		On exit  : 0/0
  4400 ;;		Unchanged: 0/0
  4401 ;; Data sizes:     COMMON   BANK0   BANK1   BANK3   BANK2
  4402 ;;      Params:         4       0       0       0       0
  4403 ;;      Locals:         4       0       0       0       0
  4404 ;;      Temps:          1       0       0       0       0
  4405 ;;      Totals:         9       0       0       0       0
  4406 ;;Total ram usage:        9 bytes
  4407 ;; Hardware stack levels used:    1
  4408 ;; This function calls:
  4409 ;;		Nothing
  4410 ;; This function is called by:
  4411 ;;		_DEC_2_BCD
  4412 ;;		_NUMDISP2
  4413 ;; This function uses a non-reentrant model
  4414 ;;
  4415                           
  4416                           
  4417                           ;psect for function ___awdiv
  4418  047E                     ___awdiv:	
  4419  047E                     i1l1617:	
  4420                           ;incstack = 0
  4421                           ; Regs used in ___awdiv: [wreg+status,2+status,0]
  4422                           
  4423  047E  01F6               	clrf	___awdiv@sign
  4424  047F                     i1l1619:	
  4425  047F  1FF1               	btfss	___awdiv@divisor+1,7
  4426  0480  2C82               	goto	u92_21
  4427  0481  2C83               	goto	u92_20
  4428  0482                     u92_21:	
  4429  0482  2C8A               	goto	i1l1625
  4430  0483                     u92_20:	
  4431  0483                     i1l1621:	
  4432  0483  09F0               	comf	___awdiv@divisor,f
  4433  0484  09F1               	comf	___awdiv@divisor+1,f
  4434  0485  0AF0               	incf	___awdiv@divisor,f
  4435  0486  1903               	skipnz
  4436  0487  0AF1               	incf	___awdiv@divisor+1,f
  4437  0488                     i1l1623:	
  4438  0488  01F6               	clrf	___awdiv@sign
  4439  0489  0AF6               	incf	___awdiv@sign,f
  4440  048A                     i1l1625:	
  4441  048A  1FF3               	btfss	___awdiv@dividend+1,7
  4442  048B  2C8D               	goto	u93_21
  4443  048C  2C8E               	goto	u93_20
  4444  048D                     u93_21:	
  4445  048D  2C97               	goto	i1l1631
  4446  048E                     u93_20:	
  4447  048E                     i1l1627:	
  4448  048E  09F2               	comf	___awdiv@dividend,f
  4449  048F  09F3               	comf	___awdiv@dividend+1,f
  4450  0490  0AF2               	incf	___awdiv@dividend,f
  4451  0491  1903               	skipnz
  4452  0492  0AF3               	incf	___awdiv@dividend+1,f
  4453  0493                     i1l1629:	
  4454  0493  3001               	movlw	1
  4455  0494  00F4               	movwf	??___awdiv
  4456  0495  0874               	movf	??___awdiv,w
  4457  0496  06F6               	xorwf	___awdiv@sign,f
  4458  0497                     i1l1631:	
  4459  0497  01F7               	clrf	___awdiv@quotient
  4460  0498  01F8               	clrf	___awdiv@quotient+1
  4461  0499                     i1l1633:	
  4462  0499  0870               	movf	___awdiv@divisor,w
  4463  049A  0471               	iorwf	___awdiv@divisor+1,w
  4464  049B  1903               	btfsc	3,2
  4465  049C  2C9E               	goto	u94_21
  4466  049D  2C9F               	goto	u94_20
  4467  049E                     u94_21:	
  4468  049E  2CD6               	goto	i1l1653
  4469  049F                     u94_20:	
  4470  049F                     i1l1635:	
  4471  049F  01F5               	clrf	___awdiv@counter
  4472  04A0  0AF5               	incf	___awdiv@counter,f
  4473  04A1  2CAD               	goto	i1l1641
  4474  04A2                     i1l1637:	
  4475  04A2  3001               	movlw	1
  4476  04A3                     u95_25:	
  4477  04A3  1003               	clrc
  4478  04A4  0DF0               	rlf	___awdiv@divisor,f
  4479  04A5  0DF1               	rlf	___awdiv@divisor+1,f
  4480  04A6  3EFF               	addlw	-1
  4481  04A7  1D03               	skipz
  4482  04A8  2CA3               	goto	u95_25
  4483  04A9                     i1l1639:	
  4484  04A9  3001               	movlw	1
  4485  04AA  00F4               	movwf	??___awdiv
  4486  04AB  0874               	movf	??___awdiv,w
  4487  04AC  07F5               	addwf	___awdiv@counter,f
  4488  04AD                     i1l1641:	
  4489  04AD  1FF1               	btfss	___awdiv@divisor+1,7
  4490  04AE  2CB0               	goto	u96_21
  4491  04AF  2CB1               	goto	u96_20
  4492  04B0                     u96_21:	
  4493  04B0  2CA2               	goto	i1l1637
  4494  04B1                     u96_20:	
  4495  04B1                     i1l1643:	
  4496  04B1  3001               	movlw	1
  4497  04B2                     u97_25:	
  4498  04B2  1003               	clrc
  4499  04B3  0DF7               	rlf	___awdiv@quotient,f
  4500  04B4  0DF8               	rlf	___awdiv@quotient+1,f
  4501  04B5  3EFF               	addlw	-1
  4502  04B6  1D03               	skipz
  4503  04B7  2CB2               	goto	u97_25
  4504  04B8  0871               	movf	___awdiv@divisor+1,w
  4505  04B9  0273               	subwf	___awdiv@dividend+1,w
  4506  04BA  1D03               	skipz
  4507  04BB  2CBE               	goto	u98_25
  4508  04BC  0870               	movf	___awdiv@divisor,w
  4509  04BD  0272               	subwf	___awdiv@dividend,w
  4510  04BE                     u98_25:	
  4511  04BE  1C03               	skipc
  4512  04BF  2CC1               	goto	u98_21
  4513  04C0  2CC2               	goto	u98_20
  4514  04C1                     u98_21:	
  4515  04C1  2CC9               	goto	i1l1649
  4516  04C2                     u98_20:	
  4517  04C2                     i1l1645:	
  4518  04C2  0870               	movf	___awdiv@divisor,w
  4519  04C3  02F2               	subwf	___awdiv@dividend,f
  4520  04C4  0871               	movf	___awdiv@divisor+1,w
  4521  04C5  1C03               	skipc
  4522  04C6  03F3               	decf	___awdiv@dividend+1,f
  4523  04C7  02F3               	subwf	___awdiv@dividend+1,f
  4524  04C8                     i1l1647:	
  4525  04C8  1477               	bsf	___awdiv@quotient,0
  4526  04C9                     i1l1649:	
  4527  04C9  3001               	movlw	1
  4528  04CA                     u99_25:	
  4529  04CA  1003               	clrc
  4530  04CB  0CF1               	rrf	___awdiv@divisor+1,f
  4531  04CC  0CF0               	rrf	___awdiv@divisor,f
  4532  04CD  3EFF               	addlw	-1
  4533  04CE  1D03               	skipz
  4534  04CF  2CCA               	goto	u99_25
  4535  04D0                     i1l1651:	
  4536  04D0  3001               	movlw	1
  4537  04D1  02F5               	subwf	___awdiv@counter,f
  4538  04D2  1D03               	btfss	3,2
  4539  04D3  2CD5               	goto	u100_21
  4540  04D4  2CD6               	goto	u100_20
  4541  04D5                     u100_21:	
  4542  04D5  2CB1               	goto	i1l1643
  4543  04D6                     u100_20:	
  4544  04D6                     i1l1653:	
  4545  04D6  0876               	movf	___awdiv@sign,w
  4546  04D7  1903               	btfsc	3,2
  4547  04D8  2CDA               	goto	u101_21
  4548  04D9  2CDB               	goto	u101_20
  4549  04DA                     u101_21:	
  4550  04DA  2CE0               	goto	i1l1657
  4551  04DB                     u101_20:	
  4552  04DB                     i1l1655:	
  4553  04DB  09F7               	comf	___awdiv@quotient,f
  4554  04DC  09F8               	comf	___awdiv@quotient+1,f
  4555  04DD  0AF7               	incf	___awdiv@quotient,f
  4556  04DE  1903               	skipnz
  4557  04DF  0AF8               	incf	___awdiv@quotient+1,f
  4558  04E0                     i1l1657:	
  4559  04E0  0878               	movf	___awdiv@quotient+1,w
  4560  04E1  00F1               	movwf	?___awdiv+1
  4561  04E2  0877               	movf	___awdiv@quotient,w
  4562  04E3  00F0               	movwf	?___awdiv
  4563  04E4                     i1l521:	
  4564  04E4  0008               	return
  4565  04E5                     __end_of___awdiv:	
  4566  007E                     btemp	set	126	;btemp
  4567  007E                     wtemp0	set	126


Data Sizes:
    Strings     17
    Constant    76
    Data        14
    BSS         21
    Persistent  0
    Stack       0

Auto Spaces:
    Space          Size  Autos    Used
    COMMON           14     13      13
    BANK0            80     40      75
    BANK1            80      3       3
    BANK3            96      0       0
    BANK2            96      0       0

Pointer List with Targets:

    LCDWRITE@P	PTR const unsigned char  size(1) Largest target is 15
		 -> STR_2(CODE[2]), STR_1(CODE[15]), 


Critical Paths under _main in COMMON

    None.

Critical Paths under _ISR in COMMON

    _Set_Time_Date->_DEC_2_BCD
    i1_I2C_Write->_DEC_2_BCD
    _DEC_2_BCD->___awdiv

Critical Paths under _main in BANK0

    _main->_I2C_Initialize
    _config->_delay1
    _Update_Current_Date_Time->_BCD_2_DEC
    _BCD_2_DEC->_I2C_Read
    _BCD_2_DEC->___wmul
    _I2C_Initialize->___lldiv
    ___lldiv->___lmul
    _CLRDISP->_delay1
    _CLOCK->_delay2

Critical Paths under _ISR in BANK0

    _Set_Time_Date->i1_I2C_Write

Critical Paths under _main in BANK1

    None.

Critical Paths under _ISR in BANK1

    None.

Critical Paths under _main in BANK3

    None.

Critical Paths under _ISR in BANK3

    None.

Critical Paths under _main in BANK2

    None.

Critical Paths under _ISR in BANK2

    None.

Call Graph Tables:

 ---------------------------------------------------------------------------------
 (Depth) Function   	        Calls       Base Space   Used Autos Params    Refs
 ---------------------------------------------------------------------------------
 (0) _main                                                 3     3      0    3197
                                              0 BANK1      3     3      0
                            _CLRDISP
                             _CURSOR
                     _I2C_Initialize
                           _LCDWRITE
           _Update_Current_Date_Time
                             _config
 ---------------------------------------------------------------------------------
 (1) _config                                               0     0      0       0
                              _CLOCK
                             _delay1
 ---------------------------------------------------------------------------------
 (1) _Update_Current_Date_Time                             0     0      0    1945
                          _BCD_2_DEC
                          _I2C_Begin
                            _I2C_End
                           _I2C_Read
                          _I2C_Write
 ---------------------------------------------------------------------------------
 (2) _I2C_Write                                            2     0      2     776
                                              5 BANK0      2     0      2
                           _I2C_Hold
 ---------------------------------------------------------------------------------
 (2) _I2C_Read                                             6     4      2     653
                                              5 BANK0      6     4      2
                           _I2C_Hold
 ---------------------------------------------------------------------------------
 (2) _I2C_End                                              0     0      0       0
                           _I2C_Hold
 ---------------------------------------------------------------------------------
 (2) _I2C_Begin                                            0     0      0       0
                           _I2C_Hold
 ---------------------------------------------------------------------------------
 (3) _I2C_Hold                                             0     0      0       0
 ---------------------------------------------------------------------------------
 (2) _BCD_2_DEC                                            4     2      2     516
                                             11 BANK0      4     2      2
                           _I2C_Read (ARG)
                             ___wmul
 ---------------------------------------------------------------------------------
 (3) ___wmul                                               6     2      4     244
                                              5 BANK0      6     2      4
 ---------------------------------------------------------------------------------
 (1) _LCDWRITE                                             6     6      0     246
                                              7 BANK0      6     6      0
                              _CLOCK
 ---------------------------------------------------------------------------------
 (1) _I2C_Initialize                                       8     4      4     656
                                             32 BANK0      8     4      4
                            ___lldiv
                             ___lmul
 ---------------------------------------------------------------------------------
 (2) ___lmul                                              13     5      8     244
                                              5 BANK0     13     5      8
 ---------------------------------------------------------------------------------
 (2) ___lldiv                                             14     6      8     314
                                             18 BANK0     14     6      8
                             ___lmul (ARG)
 ---------------------------------------------------------------------------------
 (1) _CURSOR                                               4     3      1     350
                                              7 BANK0      4     3      1
                              _CLOCK
 ---------------------------------------------------------------------------------
 (1) _CLRDISP                                              0     0      0       0
                              _CLOCK
                             _delay1
 ---------------------------------------------------------------------------------
 (2) _delay1                                               2     2      0       0
                                              5 BANK0      2     2      0
 ---------------------------------------------------------------------------------
 (2) _CLOCK                                                0     0      0       0
                             _delay2
 ---------------------------------------------------------------------------------
 (3) _delay2                                               2     2      0       0
                                              5 BANK0      2     2      0
 ---------------------------------------------------------------------------------
 Estimated maximum stack depth 3
 ---------------------------------------------------------------------------------
 (Depth) Function   	        Calls       Base Space   Used Autos Params    Refs
 ---------------------------------------------------------------------------------
 (4) _ISR                                                  3     3      0    1732
                                              2 BANK0      3     3      0
                      _Set_Time_Date
 ---------------------------------------------------------------------------------
 (5) _Set_Time_Date                                        0     0      0    1732
                          _DEC_2_BCD
                        i1_I2C_Begin
                          i1_I2C_End
                        i1_I2C_Write
 ---------------------------------------------------------------------------------
 (6) i1_I2C_Write                                          2     0      2     256
                                              0 BANK0      2     0      2
                          _DEC_2_BCD (ARG)
                         i1_I2C_Hold
 ---------------------------------------------------------------------------------
 (6) i1_I2C_End                                            0     0      0       0
                         i1_I2C_Hold
 ---------------------------------------------------------------------------------
 (6) i1_I2C_Begin                                          0     0      0       0
                         i1_I2C_Hold
 ---------------------------------------------------------------------------------
 (7) i1_I2C_Hold                                           0     0      0       0
 ---------------------------------------------------------------------------------
 (6) _DEC_2_BCD                                            4     2      2    1476
                                              9 COMMON     4     2      2
                            ___awdiv
                            ___awmod
 ---------------------------------------------------------------------------------
 (7) ___awmod                                              7     3      4     600
                                              0 COMMON     7     3      4
 ---------------------------------------------------------------------------------
 (7) ___awdiv                                              9     5      4     604
                                              0 COMMON     9     5      4
 ---------------------------------------------------------------------------------
 Estimated maximum stack depth 7
 ---------------------------------------------------------------------------------

 Call Graph Graphs:

 _main (ROOT)
   _CLRDISP
     _CLOCK
       _delay2
     _delay1
   _CURSOR
     _CLOCK
       _delay2
   _I2C_Initialize
     ___lldiv
       ___lmul (ARG)
     ___lmul
   _LCDWRITE
     _CLOCK
       _delay2
   _Update_Current_Date_Time
     _BCD_2_DEC
       _I2C_Read (ARG)
         _I2C_Hold
       ___wmul (ARG)
     _I2C_Begin
       _I2C_Hold
     _I2C_End
       _I2C_Hold
     _I2C_Read
       _I2C_Hold
     _I2C_Write
       _I2C_Hold
   _config
     _CLOCK
       _delay2
     _delay1

 _ISR (ROOT)
   _Set_Time_Date
     _DEC_2_BCD
       ___awdiv
       ___awmod
     i1_I2C_Begin
       i1_I2C_Hold
     i1_I2C_End
       i1_I2C_Hold
     i1_I2C_Write
       _DEC_2_BCD (ARG)
         ___awdiv
         ___awmod
       i1_I2C_Hold (ARG)

 Address spaces:
Name               Size   Autos  Total    Cost      Usage
BANK3               60      0       0       9        0.0%
BITBANK3            60      0       0       8        0.0%
SFR3                 0      0       0       4        0.0%
BITSFR3              0      0       0       4        0.0%
BANK2               60      0       0      11        0.0%
BITBANK2            60      0       0      10        0.0%
SFR2                 0      0       0       5        0.0%
BITSFR2              0      0       0       5        0.0%
BANK1               50      3       3       7        3.8%
BITBANK1            50      0       0       6        0.0%
SFR1                 0      0       0       2        0.0%
BITSFR1              0      0       0       2        0.0%
BANK0               50     28      4B       5       93.8%
BITBANK0            50      0       0       4        0.0%
SFR0                 0      0       0       1        0.0%
BITSFR0              0      0       0       1        0.0%
COMMON               E      D       D       1       92.9%
BITCOMMON            E      0       0       0        0.0%
CODE                 0      0       0       0        0.0%
DATA                 0      0      5B      12        0.0%
ABS                  0      0      5B       3        0.0%
NULL                 0      0       0       0        0.0%
STACK                0      0       0       2        0.0%
EEDATA             100      0       0       0        0.0%


Microchip Technology PIC Macro Assembler V2.10 build 88905656 
Symbol Table                                                                                   Sat Feb 06 14:29:00 2021

               __size_of_I2C_Begin 0009                         __CFG_CP$ON 0000  
                                pc 0002                 __size_of_I2C_Write 000A  
                      __CFG_CPD$ON 0000                       ___awdiv@sign 0076  
               __size_of_DEC_2_BCD 0030                                 fsr 0004  
              ___wmul@multiplicand 0027                        ?i1_I2C_Hold 0070  
                      __CFG_LVP$ON 0000                                l121 0F46  
                              l202 0FDB                                l115 0F8C  
                              l124 0F5A                                l109 06B1  
                              l118 0F3D                                l127 0778  
                              l152 0F72                                l136 07D1  
                              l208 0549                                l240 00C8  
                              l145 0387                                l155 0F66  
                              l243 00E2                                l404 047D  
                              l164 06FF                                l158 0FAB  
                              l246 00FC                                l271 0254  
                              l255 01B1                                l239 01B1  
                              l264 0207                                l249 0116  
                              l370 07F8                                l382 0747  
                              l278 02A1                                l199 0FFF  
                              l368 07E0                                _GIE 005F  
                              _RB4 0034                                _RD0 0040  
                              _RB5 0035                                _RD1 0041  
                              _RC4 003C                                _RD2 0042  
                              _RC5 003D                                _RD3 0043  
                              _RD4 0044                                _RC6 003E  
                              _RD5 0045                                _RC7 003F  
                              _PEN 048A                                _ISR 05AD  
                              _SEN 0488                                u910 07F4  
                              u911 07F3                                u905 07E8  
                              u860 0F88                                u861 0F87  
                              u870 0F8C                                u871 0F8B  
                              _NUM 0048                                u880 07DA  
                              u881 07D9                                u895 07E1  
                  __end_of_I2C_End 0F47                                _min 0058  
                              _sec 005A                                fsr0 0004  
                              indf 0000                       ___awmod@sign 0076  
                     __CFG_FOSC$HS 0000                    __end_of_CLRDISP 0FDC  
                     ?i1_I2C_Begin 0070                               ?_ISR 0070  
                     ?i1_I2C_Write 0020                               l2301 0111  
                             l2311 0139                               l2303 0115  
                             l2231 0033                               l2321 0175  
                             l2313 013F                               l2305 011A  
                             l2241 0051                               l2233 0037  
                             l1611 07EE                               l1603 07D2  
                             l2323 0184                               l2315 014E  
                             l2307 012B                               l2251 005F  
                             l2243 0055                               l2235 0039  
                             l1613 07F4                               l1605 07D6  
                             l2341 01DB                               l2333 01B2  
                             l2325 0189                               l2317 015D  
                             l2309 0130                               l2261 006B  
                             l2253 0063                               l2245 0056  
                             l2237 003D                               l2229 002D  
                             l1607 07DA                               l1711 0F43  
                             l2343 01EA                               l2351 020E  
                             l2335 01C0                               l2327 0198  
                             l2319 0166                               l2271 0076  
                             l2263 006E                               l2255 0066  
                             l2247 005A                               l2239 0044  
                             l1609 07E7                               l1705 0F35  
                             l1721 0755                               l1713 0F51  
                             l2361 023E                               l2353 0214  
                             l2345 01F1                               l2337 01C7  
                             l2329 01A1                               l2281 00B5  
                             l2273 007B                               l2265 006F  
                             l2257 0067                               l2249 005B  
                             l1811 06B0                               l1803 065F  
                             l1707 0F3A                               l1723 075E  
                             l1715 0F56                               l2371 026E  
                             l2363 024D                               l2355 0221  
                             l2347 0200                               l2339 01D4  
                             l2291 00E1                               l2283 00C3  
                             l2275 0089                               l2267 0070  
                             l2259 0068                               l1741 0F67  
                             l1805 0663                               l1821 06D7  
                             l1733 07A9                               l1709 0F3E  
                             l1725 0763                               l1717 0748  
                             l1901 0544                               l2381 02A7  
                             l2373 0275                               l2365 025A  
                             l2357 0228                               l2349 020D  
                             l2293 00E6                               l2285 00C7  
                             l2277 008F                               l2269 0071  
                             l1807 0667                               l1831 06EC  
                             l1823 06D8                               l1727 0771  
                             l1719 074D                               l1815 02B9  
                             l2375 0284                               l2383 02A8  
                             l2359 0237                               l2367 025B  
                             l2295 00F7                               l2287 00CC  
                             l2279 0096                               l1745 0F9B  
                             l1841 0FEF                               l1761 072E  
                             l1753 0700                               l1809 066A  
                             l1825 06DC                               l1833 06F2  
                             l1817 06B5                               l1593 0F80  
                             l1729 0772                               l2385 02A9  
                             l2377 028B                               l2369 0261  
                             l2297 00FB                               l2289 00DD  
                             l1747 0F9E                               l1843 0FF4  
                             l1835 0FDF                               l1771 042B  
                             l1763 073F                               l1755 070A  
                             l1827 06E1                               l1819 06B7  
                             l1595 0F80                               l2379 029A  
                             l2299 0100                               l1749 0FA3  
                             l1861 0FC6                               l1845 0FFA  
                             l1781 0465                               l1773 0438  
                             l1757 070E                               l1829 06E7  
                             l1597 0F88                               l1599 0F5B  
                             l1863 0FCB                               l1839 0FE1  
                             l1783 0466                               l1775 043C  
                             l1767 0416                               l1759 0725  
                             l1871 04EE                               l1857 0FBF  
                             l1785 046F                               l1777 0445  
                             l1769 0428                               l1881 0513  
                             l1873 04F7                               l1859 0FC3  
                             l1779 0457                               l1787 0475  
                             l1891 0529                               l1883 0518  
                             l1875 04FC                               l1867 04E5  
                             l1893 052E                               l1885 051D  
                             l1877 0505                               l1869 04E9  
                             l1895 0533                               l1887 0520  
                             l1879 050A                               l1897 053B  
                             l1889 0525                               l1899 053F  
                             STR_1 059C                               STR_2 05AB  
                             u1200 0428                               u1201 0427  
                             u1130 076E                               u1131 076A  
                             u1220 043C                               u1221 043B  
                             u1150 070E                               u1215 042D  
                             u1151 070D                               u2007 00EA  
                             u1240 0457                               u1144 0771  
                             u1305 0FE8                               u1241 0456  
                             u1161 0717                               u2017 0104  
                             u1162 071E                               u1235 043E  
                             u1163 0725                               u2027 011E  
                             u1260 0475                               u1261 0474  
                             u1245 0453                               u2037 01BB  
                             u1190 073F                               u1270 067A  
                             u1255 0467                               u1191 073E  
                             u1175 0727                               u2047 02AF  
                             u2057 0F6D                               u1185 072F  
                             u1290 06FF                               u2067 0F61  
                             u1275 0675                               u1291 06FE  
                             u1285 06C1                               u1710 0096  
                             u1711 0095                               u1800 014E  
                             u1720 009E                               u1801 014D  
                             u1721 009A                               u1810 015D  
                             u1730 00A8                               u1811 015C  
                             u1731 00A4                               u1900 0214  
                             u1820 0175                               u1740 00B2  
                             u1901 0213                               u1821 0174  
                             u1805 014A                               u1741 00AE  
                             u1910 0221                               u1830 0184  
                             u1734 00A1                               u1911 0220  
                             u1831 0183                               u1815 0159  
                             u1920 0237                               u1840 0198  
                             u1760 00CC                               u1744 00AB  
                             u1921 0236                               u1841 0197  
                             u1825 0171                               u1761 00CB  
                             u1930 024D                               u1850 01B0  
                             u1770 00E6                               u1754 00B5  
                             u1931 024C                               u1915 021D  
                             u1851 01AF                               u1835 0180  
                             u1771 00E5                               u1940 0261  
                             u1860 01C7                               u1780 0100  
                             u1941 0260                               u1925 0233  
                             u1861 01C6                               u1845 0194  
                             u1781 00FF                               u1950 026E  
                             u1870 01D4                               u1790 011A  
                             u1951 026D                               u1935 0249  
                             u1871 01D3                               u1855 01AC  
                             u1791 0119                               u1960 0284  
                             u1880 01EA                               u1961 0283  
                             u1881 01E9                               u1970 029A  
                             u1890 0200                               u1971 0299  
                             u1955 026A                               u1891 01FF  
                             u1875 01D0                               _PEIE 005E  
                             u1965 0280                               u1885 01E6  
                             u1975 0296                               u1895 01FC  
                             u1987 00BD                               _RCEN 048B  
                             u1997 00D0                               _TMR0 0001  
                             _TMR1 000E                       __CFG_WRT$OFF 0000  
                             _main 002D                               _hour 0056  
                             _logo 005D                   __end_of_I2C_Hold 0F8D  
                 __end_of_I2C_Read 0779                               btemp 007E  
                             start 0010                 __size_ofi1_I2C_End 0009  
                            ??_ISR 0022                   __end_of_LCDWRITE 0700  
                            ?_main 0070                              _ACKEN 048C  
                            _ACKDT 048D                    __end_of___awdiv 04E5  
                    __CFG_WDTE$OFF 0000                    __end_of___awmod 065F  
                            _CLOCK 0F9B                    __end_of___lldiv 047E  
                  ___awdiv@divisor 0070                              _T1CON 0010  
                            i1l121 0F34                              i1l115 0F7F  
                            i1l124 0F50                              i1l118 0F2B  
                            i1l142 0415                              i1l233 05FD  
                            i1l139 07A8                              i1l521 04E4  
                            i1l534 065E                    ___awdiv@counter 0075  
                            _PORTB 0006                              _PORTD 0008  
                            _TRISA 0085                              _TRISB 0086  
                            _TRISD 0088                              u92_20 0483  
                            u92_21 0482                              u93_20 048E  
                            u93_21 048D                              u94_20 049F  
                            u94_21 049E                              u95_25 04A3  
                            u96_20 04B1                              u96_21 04B0  
                            u97_25 04B2                              u98_20 04C2  
                            u98_21 04C1                              u98_25 04BE  
                            u99_25 04CA                ___lmul@multiplicand 0029  
                __end_of_BCD_2_DEC 07D2                  __end_of_I2C_Begin 0F3E  
                            _errno 004C                  __end_of_I2C_Write 0F5B  
                   __CFG_BOREN$OFF 0000                              pclath 000A  
                __end_of_DEC_2_BCD 07A9                              status 0003  
                            wtemp0 007E                __size_ofi1_I2C_Hold 000D  
                  __initialization 0013                       __end_of_main 02B9  
                        ??_I2C_End 0025                             ??_main 00A0  
                        ??_CLRDISP 0027                             ?_CLOCK 0070  
                __end_ofi1_I2C_End 0F35                             _ADCON0 001F  
                           _ADCON1 009F                             _ADRESH 001E  
                           _ADRESL 009E                   ___awdiv@dividend 0072  
                           u100_20 04D6                             u100_21 04D5  
                           u101_20 04DB                             u101_21 04DA  
                           u110_20 0655                             u102_20 060B  
                           u110_21 0654                             u102_21 060A  
                           u103_20 0616                             u111_20 0F7B  
                           u103_21 0615                             u111_21 0F7A  
                           i1l2051 05CD                             i1l2043 05AD  
                           i1l2061 05EC                             i1l2053 05D1  
                           i1l2045 05B3                             i1l2063 05ED  
                           i1l2055 05DE                             i1l2047 05C0  
                           u104_20 0621                             u112_20 0F7F  
                           u104_21 0620                             u112_21 0F7E  
                           i1l2065 05EF                             i1l2057 05E7  
                           i1l2049 05C9                             i1l2067 05F4  
                           i1l2059 05EB                             i1l1621 0483  
                           i1l1701 0F73                             i1l2069 05FA  
                           i1l1631 0497                             i1l1623 0488  
                           i1l1703 0F7B                             i1l1641 04AD  
                           i1l1633 0499                             i1l1625 048A  
                           i1l1617 047E                             i1l1801 0F4C  
                           i1l1651 04D0                             i1l1643 04B1  
                           i1l1635 049F                             i1l1627 048E  
                           i1l1619 047F                             i1l1645 04C2  
                           i1l1637 04A2                             i1l1653 04D6  
                           i1l1629 0493                             u105_25 0625  
                           i1l1661 0606                             i1l1813 0388  
                           i1l1655 04DB                             i1l1647 04C8  
                           i1l1639 04A9                             i1l1671 0616  
                           i1l1663 0607                             u106_20 0633  
                           i1l1657 04E0                             i1l1649 04C9  
                           u106_21 0632                             i1l1681 062F  
                           i1l1673 061B                             i1l1665 060B  
                           i1l1737 0779                             i1l1683 0633  
                           i1l1675 0621                             i1l1691 0650  
                           i1l1667 0610                             i1l1693 0655  
                           i1l1685 063D                             i1l1677 0624  
                           i1l1669 0612                             i1l1695 065A  
                           i1l1687 0643                             i1l1679 062B  
                           i1l1791 0F23                             u107_20 063D  
                           i1l1689 064A                             u107_21 063C  
                           i1l1793 0F28                             i1l1699 0F73  
                           i1l1795 0F2C                             u107_25 0639  
                           i1l1797 0F31                             i1l1799 0F47  
                           u140_20 05B3                             u140_21 05B2  
                           u108_25 0644                             u109_20 0650  
                           u141_20 05C0                             u109_21 064F  
                           u141_21 05BF                             _CURSOR 0FDC  
                           u141_25 05BC                             u142_20 05D1  
                           u142_21 05D0                             u143_20 05DE  
                           u143_21 05DD                             u143_25 05DA  
                           _TMR0IE 005D                             _TMR0IF 005A  
                           _TMR1IE 0460                             _TMR1IF 0060  
                           _TMR1ON 0080                             _SSPADD 0093  
                           _TRISA0 0428                             _TRISA1 0429  
                           _TRISA2 042A                             _TRISA3 042B  
                           _TRISC0 0438                             _TRISC3 043B  
                           _TRISC4 043C                             _SSPCON 0014  
                           _SSPBUF 0013                     __CFG_PWRTE$OFF 0000  
                           ___lmul 0700                             ___wmul 07D2  
                        ??___awdiv 0074                          ??___awmod 0074  
                           _delay1 0F67                             _delay2 0F5B  
                        ??___lldiv 003A                             _config 04E5  
                 ___awdiv@quotient 0077                    ___awmod@divisor 0070  
                  ___awmod@counter 0075            __size_of_I2C_Initialize 0053  
                           _thresh 0069   __end_of_Update_Current_Date_Time 0388  
                        ?_I2C_Hold 0070                          ?_I2C_Read 0025  
                           saved_w 007E               __size_ofi1_I2C_Begin 0009  
                        LCDWRITE@P 002C                          LCDWRITE@i 002B  
                        LCDWRITE@j 0029                          LCDWRITE@k 002A  
                        ?_LCDWRITE 0070                   __end_ofexp@coeff 0578  
                 __end_oflog@coeff 059C            __end_of__initialization 0029  
             __size_ofi1_I2C_Write 000A                      __end_of_CLOCK 0FAC  
                   __pcstackCOMMON 0070                       __pidataBANK0 0F8D  
                     ??i1_I2C_Hold 0070                            ??_CLOCK 0027  
                       ??_I2C_Hold 0025                         ??_I2C_Read 0027  
                       __pbssBANK0 0048                         ??_LCDWRITE 0027  
                          ?_CURSOR 0027                            CURSOR@a 002A  
                          CURSOR@b 0027                 __end_ofi1_I2C_Hold 0F80  
                       __pmaintext 002D                         _biogas_val 0050  
                          ?___lmul 0025                            ?___wmul 0025  
                          ?_delay1 0070                            ?_delay2 0070  
                       __pintentry 0004                            ?_config 0070  
                          _I2C_End 0F3E                     ___lmul@product 002E  
                          _CLRDISP 0FBF                   I2C_Read@incoming 0029  
         _Update_Current_Date_Time 02B9             __size_of_Set_Time_Date 008E  
                          _SSPCON2 0091                            _SSPSTAT 0094  
                       __stringtab 054A                          _BCD_2_DEC 07A9  
                  __size_of_CURSOR 0024                          _I2C_Begin 0F35  
                        _I2C_Write 0F51                          _DEC_2_BCD 0779  
                          ___awdiv 047E                    __size_of___lmul 0048  
                          ___awmod 0606                            ___lldiv 0416  
                  __size_of___wmul 0027                    __size_of_delay1 000C  
                  __size_of_delay2 000C                    __size_of_config 0065  
                   _I2C_Initialize 065F                            __ptext1 04E5  
                          __ptext2 02B9                            __ptext3 0F51  
                          __ptext4 0748                            __ptext5 0F3E  
                          __ptext6 0F35                            __ptext7 0F80  
                          __ptext8 07A9                            __ptext9 07D2  
                     __size_of_ISR 0059                   ___awmod@dividend 0072  
                          clrloop0 0F1C                          i1_I2C_End 0F2C  
             end_of_initialization 0029                         ?_BCD_2_DEC 002B  
                       ?_I2C_Begin 0070                         ?_I2C_Write 0025  
                       ?_DEC_2_BCD 0079                    ___lldiv@divisor 0032  
                  ___lldiv@counter 003F                      _Set_Time_Date 0388  
           __end_of_I2C_Initialize 06B2                          _PORTBbits 0006  
                __size_of_I2C_Hold 000D                  __size_of_I2C_Read 0031  
                       ?i1_I2C_End 0070                     __end_of_CURSOR 1000  
                __size_of_LCDWRITE 004E                     ?_Set_Time_Date 0070  
              BCD_2_DEC@to_convert 002B                    ?_I2C_Initialize 0040  
                   __end_of___lmul 0748                     __end_of___wmul 07F9  
                   __end_of_delay1 0F73                     __end_of_delay2 0F67  
                   __end_of_config 054A                start_initialization 0013  
                      __end_of_ISR 0606                      ??i1_I2C_Begin 0070  
                    ??i1_I2C_Write 007D                           ??_CURSOR 0028  
                      ??_BCD_2_DEC 002D                        ??_I2C_Begin 0025  
                      ??_I2C_Write 0027                        ??_DEC_2_BCD 007B  
                         ??___lmul 002D                           ??___wmul 0029  
                       init_fetch0 0FAC                           ??_delay1 0025  
                         ??_delay2 0025                           ??_config 0027  
                      __pdataBANK0 005D                           ?_I2C_End 0070  
       ??_Update_Current_Date_Time 002F                           ?_CLRDISP 0070  
                        ___latbits 0002                      __pcstackBANK0 0020  
                    __pcstackBANK1 00A0                        ??i1_I2C_End 0070  
              __end_ofi1_I2C_Begin 0F2C                    ??_Set_Time_Date 007D  
              __end_ofi1_I2C_Write 0F51                        I2C_Read@ack 0025  
                         ?___awdiv 0070                           ?___awmod 0070  
                         ?___lldiv 0032                          __pstrings 054A  
                   __size_of_CLOCK 0011                           _I2C_Hold 0F80  
                         _I2C_Read 0748                           _LCDWRITE 06B2  
                interrupt_function 0004                     ___wmul@product 0029  
                        _nextState 005C                          clear_ram0 0F1B  
                        _solar_val 0052                   __size_of_I2C_End 0009  
                       _ADCON0bits 001F                        __stringbase 054F  
                ___wmul@multiplier 0025                   __size_of_CLRDISP 001D  
                      i1_I2C_Begin 0F23                  ___lmul@multiplier 0025  
                      i1_I2C_Write 0F47                   ??_I2C_Initialize 0044  
                    I2C_Write@data 0025                   __size_of___awdiv 0067  
                 __size_of___awmod 0059                   __size_of___lldiv 0068  
               __end_of__stringtab 0550                           __ptext10 06B2  
                         __ptext11 065F                           __ptext20 0388  
                         __ptext12 0700                           __ptext21 0F47  
                         __ptext13 0416                           __ptext22 0F2C  
                         __ptext14 0FDC                           __ptext23 0F23  
                         __ptext15 0FBF                           __ptext24 0F73  
                         __ptext16 0F67                           __ptext25 0779  
                         __ptext17 0F9B                           __ptext26 0606  
                         __ptext18 0F5B                           __ptext27 047E  
                         __ptext19 05AD                      __size_of_main 028C  
                         _phcn_val 004E                I2C_Initialize@feq_K 0040  
                         _wind_val 0054                         i1_I2C_Hold 0F73  
                         exp@coeff 0550                           log@coeff 0578  
                         init_ram0 0FB0                           intlevel1 0000  
                 ___lldiv@dividend 0036                          stringcode 054A  
                       _OPTION_REG 0081                    i1I2C_Write@data 0020  
                 ___lldiv@quotient 003B                           stringdir 054A  
                         stringtab 054A  __size_of_Update_Current_Date_Time 00CF  
        ?_Update_Current_Date_Time 0070              __end_of_Set_Time_Date 0416  
              DEC_2_BCD@to_convert 0079                 __size_of_BCD_2_DEC 0029  
